(lp0
(dp1
S'comp_id'
p2
S'ALA'
p3
sS'count'
p4
I29402
sS'min'
p5
F164.477
sS'max'
p6
F187.2
sS'std'
p7
F2.078
sS'atom_id'
p8
S'C'
p9
sS'avg'
p10
F177.817
sa(dp11
g2
S'ALA'
p12
sg4
I40106
sg5
F39.922
sg6
F65.516
sg7
F1.946
sg8
S'CA'
p13
sg10
F53.181
sa(dp14
g2
S'ALA'
p15
sg4
I37648
sg5
F0.0
sg6
F37.817
sg7
F1.776
sg8
S'CB'
p16
sg10
F18.97
sa(dp17
g2
S'ALA'
p18
sg4
I46070
sg5
F3.53
sg6
F12.11
sg7
F0.585
sg8
S'H'
p19
sS'h_desc'
p20
S'isolated'
p21
sg10
F8.193
sa(dp22
g2
S'ALA'
p23
sg4
I34476
sg5
F0.87
sg6
F6.514
sg7
F0.425
sg8
S'HA'
p24
sg20
g21
sg10
F4.243
sa(dp25
g2
S'ALA'
p26
sg4
I32381
sg5
F-0.88
sg6
F3.3376
sg7
F0.247
sg8
S'HB1'
p27
sg20
S'methyl'
p28
sg10
F1.357
sa(dp29
g2
g26
sg4
I32381
sg5
F-0.88
sg6
F3.3376
sg7
F0.247
sg8
S'HB2'
p30
sg20
g28
sg10
F1.357
sa(dp31
g2
g26
sg4
I32381
sg5
F-0.88
sg6
F3.3376
sg7
F0.247
sg8
S'HB3'
p32
sg20
g28
sg10
F1.357
sa(dp33
g2
S'ALA'
p34
sg4
I42783
sg5
F98.053
sg6
F142.81
sg7
F3.475
sg8
S'N'
p35
sg10
F123.27
sa(dp36
g2
S'ARG'
p37
sg4
I18487
sg5
F167.44
sg6
F184.51
sg7
F2.003
sg8
g9
sg10
F176.472
sa(dp38
g2
S'ARG'
p39
sg4
I25987
sg5
F43.271
sg6
F67.98
sg7
F2.303
sg8
S'CA'
p40
sg10
F56.8
sa(dp41
g2
S'ARG'
p42
sg4
I24241
sg5
F20.705
sg6
F42.504
sg7
F1.817
sg8
S'CB'
p43
sg10
F30.656
sa(dp44
g2
S'ARG'
p45
sg4
I15644
sg5
F32.499
sg6
F50.882
sg7
F0.894
sg8
S'CD'
p46
sg10
F43.157
sa(dp47
g2
S'ARG'
p48
sg4
I15443
sg5
F18.22
sg6
F39.975
sg7
F1.179
sg8
S'CG'
p49
sg10
F27.213
sa(dp50
g2
S'ARG'
p51
sg4
I405
sg5
F145.032
sg6
F179.69
sg7
F2.975
sg8
S'CZ'
p52
sg10
F160.031
sa(dp53
g2
S'ARG'
p54
sg4
I30832
sg5
F3.566
sg6
F12.69
sg7
F0.607
sg8
g19
sg20
g21
sg10
F8.237
sa(dp55
g2
S'ARG'
p56
sg4
I23653
sg5
F1.34
sg6
F6.515
sg7
F0.455
sg8
S'HA'
p57
sg20
g21
sg10
F4.289
sa(dp58
g2
S'ARG'
p59
sg4
I21490
sg5
F-0.773
sg6
F3.493
sg7
F0.267
sg8
S'HB2'
p60
sg20
S'geminal'
p61
sg10
F1.793
sa(dp62
g2
S'ARG'
p63
sg4
I20316
sg5
F-0.857
sg6
F3.32
sg7
F0.278
sg8
S'HB3'
p64
sg20
g61
sg10
F1.762
sa(dp65
g2
S'ARG'
p66
sg4
I18994
sg5
F0.961
sg6
F4.692
sg7
F0.234
sg8
S'HD2'
p67
sg20
g61
sg10
F3.117
sa(dp68
g2
S'ARG'
p69
sg4
I17202
sg5
F0.733
sg6
F4.564
sg7
F0.255
sg8
S'HD3'
p70
sg20
g61
sg10
F3.102
sa(dp71
g2
S'ARG'
p72
sg4
I6091
sg5
F2.201
sg6
F11.88
sg7
F0.572
sg8
S'HE'
p73
sg20
g21
sg10
F7.352
sa(dp74
g2
S'ARG'
p75
sg4
I19333
sg5
F-0.72
sg6
F3.51
sg7
F0.27
sg8
S'HG2'
p76
sg20
g61
sg10
F1.565
sa(dp77
g2
S'ARG'
p78
sg4
I17811
sg5
F-0.742
sg6
F3.51
sg7
F0.286
sg8
S'HG3'
p79
sg20
g61
sg10
F1.543
sa(dp80
g2
S'ARG'
p81
sg4
I560
sg5
F5.642
sg6
F9.82
sg7
F0.425
sg8
S'HH11'
p82
sg20
S'genimal'
p83
sg10
F6.886
sa(dp84
g2
S'ARG'
p85
sg4
I428
sg5
F5.92
sg6
F8.76
sg7
F0.345
sg8
S'HH12'
p86
sg20
g83
sg10
F6.812
sa(dp87
g2
S'ARG'
p88
sg4
I477
sg5
F4.845
sg6
F8.66
sg7
F0.354
sg8
S'HH21'
p89
sg20
g83
sg10
F6.779
sa(dp90
g2
S'ARG'
p91
sg4
I394
sg5
F5.92
sg6
F8.389
sg7
F0.314
sg8
S'HH22'
p92
sg20
g83
sg10
F6.768
sa(dp93
g2
S'ARG'
p94
sg4
I27680
sg5
F102.782
sg6
F137.6
sg7
F3.646
sg8
g35
sg10
F120.789
sa(dp95
g2
S'ARG'
p96
sg4
I3407
sg5
F67.0
sg6
F99.808
sg7
F1.598
sg8
S'NE'
p97
sg10
F84.587
sa(dp98
g2
S'ARG'
p99
sg4
I96
sg5
F67.6
sg6
F87.786
sg7
F4.898
sg8
S'NH1'
p100
sg10
F73.907
sa(dp101
g2
S'ARG'
p102
sg4
I89
sg5
F69.9
sg6
F85.28
sg7
F2.727
sg8
S'NH2'
p103
sg10
F72.648
sa(dp104
g2
S'ASN'
p105
sg4
I15886
sg5
F167.039
sg6
F185.3
sg7
F1.779
sg8
g9
sg10
F175.302
sa(dp106
g2
S'ASN'
p107
sg4
I22112
sg5
F41.58
sg6
F66.211
sg7
F1.882
sg8
S'CA'
p108
sg10
F53.562
sa(dp109
g2
S'ASN'
p110
sg4
I20922
sg5
F26.448
sg6
F53.678
sg7
F1.671
sg8
S'CB'
p111
sg10
F38.69
sa(dp112
g2
S'ASN'
p113
sg4
I1525
sg5
F166.399
sg6
F183.8
sg7
F1.404
sg8
S'CG'
p114
sg10
F176.759
sa(dp115
g2
S'ASN'
p116
sg4
I25706
sg5
F2.61
sg6
F12.4
sg7
F0.62
sg8
g19
sg20
g21
sg10
F8.328
sa(dp117
g2
S'ASN'
p118
sg4
I19739
sg5
F1.752
sg6
F6.6
sg7
F0.357
sg8
S'HA'
p119
sg20
g21
sg10
F4.661
sa(dp120
g2
S'ASN'
p121
sg4
I18457
sg5
F0.18
sg6
F4.47
sg7
F0.315
sg8
S'HB2'
p122
sg20
g61
sg10
F2.804
sa(dp123
g2
S'ASN'
p124
sg4
I17798
sg5
F-0.172
sg6
F4.47
sg7
F0.338
sg8
S'HB3'
p125
sg20
g61
sg10
F2.75
sa(dp126
g2
S'ASN'
p127
sg4
I13888
sg5
F2.06
sg6
F9.603
sg7
F0.489
sg8
S'HD21'
p128
sg20
g83
sg10
F7.327
sa(dp129
g2
S'ASN'
p130
sg4
I13694
sg5
F2.578
sg6
F9.986
sg7
F0.5
sg8
S'HD22'
p131
sg20
g83
sg10
F7.15
sa(dp132
g2
S'ASN'
p133
sg4
I23379
sg5
F101.712
sg6
F137.49
sg7
F3.956
sg8
g35
sg10
F118.902
sa(dp134
g2
S'ASN'
p135
sg4
I11588
sg5
F99.4
sg6
F134.5
sg7
F2.303
sg8
S'ND2'
p136
sg10
F112.77
sa(dp137
g2
S'ASP'
p138
sg4
I22866
sg5
F166.8
sg6
F182.7
sg7
F1.718
sg8
g9
sg10
F176.445
sa(dp139
g2
S'ASP'
p140
sg4
I31500
sg5
F41.113
sg6
F67.166
sg7
F2.039
sg8
S'CA'
p141
sg10
F54.701
sa(dp142
g2
S'ASP'
p143
sg4
I29731
sg5
F27.48
sg6
F54.947
sg7
F1.609
sg8
S'CB'
p144
sg10
F40.87
sa(dp145
g2
S'ASP'
p146
sg4
I428
sg5
F170.72
sg6
F186.5
sg7
F1.761
sg8
S'CG'
p147
sg10
F179.263
sa(dp148
g2
S'ASP'
p149
sg4
I36209
sg5
F3.56
sg6
F12.68
sg7
F0.569
sg8
g19
sg20
g21
sg10
F8.303
sa(dp150
g2
S'ASP'
p151
sg4
I26924
sg5
F2.171
sg6
F6.33
sg7
F0.314
sg8
S'HA'
p152
sg20
g21
sg10
F4.587
sa(dp153
g2
S'ASP'
p154
sg4
I25040
sg5
F-0.39
sg6
F6.6
sg7
F0.263
sg8
S'HB2'
p155
sg20
g61
sg10
F2.716
sa(dp156
g2
S'ASP'
p157
sg4
I24054
sg5
F-0.362
sg6
F4.58
sg7
F0.273
sg8
S'HB3'
p158
sg20
g61
sg10
F2.664
sa(dp159
g2
S'ASP'
p160
sg4
I5
sg5
F4.65139
sg6
F9.29
sg7
F1.874
sg8
S'HD2'
p161
sg20
g21
sg10
F6.059
sa(dp162
g2
S'ASP'
p163
sg4
I34021
sg5
F101.9
sg6
F143.52
sg7
F3.802
sg8
g35
sg10
F120.643
sa(dp164
g2
S'CYS'
p165
sg4
I6356
sg5
F166.733
sg6
F187.591
sg7
F2.039
sg8
g9
sg10
F174.955
sa(dp166
g2
S'CYS'
p167
sg4
I9298
sg5
F42.452
sg6
F67.641
sg7
F3.375
sg8
S'CA'
p168
sg10
F58.163
sa(dp169
g2
S'CYS'
p170
sg4
I8803
sg5
F17.99
sg6
F62.07
sg7
F6.303
sg8
S'CB'
p171
sg10
F33.091
sa(dp172
g2
S'CYS'
p173
sg4
I13952
sg5
F4.379
sg6
F12.12
sg7
F0.674
sg8
g19
sg20
g21
sg10
F8.384
sa(dp174
g2
S'CYS'
p175
sg4
I12104
sg5
F1.64
sg6
F6.448
sg7
F0.549
sg8
S'HA'
p176
sg20
g21
sg10
F4.655
sa(dp177
g2
S'CYS'
p178
sg4
I11673
sg5
F-0.488
sg6
F4.715
sg7
F0.44
sg8
S'HB2'
p179
sg20
g61
sg10
F2.957
sa(dp180
g2
S'CYS'
p181
sg4
I11404
sg5
F-0.83
sg6
F4.77
sg7
F0.456
sg8
S'HB3'
p182
sg20
g61
sg10
F2.889
sa(dp183
g2
S'CYS'
p184
sg4
I104
sg5
F0.1
sg6
F7.392
sg7
F1.25
sg8
S'HG'
p185
sg20
g21
sg10
F2.08
sa(dp186
g2
S'CYS'
p187
sg4
I10047
sg5
F4.465484
sg6
F135.89
sg7
F4.652
sg8
g35
sg10
F120.082
sa(dp188
g2
S'GLN'
p189
sg4
I16569
sg5
F168.085
sg6
F183.366
sg7
F1.92
sg8
g9
sg10
F176.371
sa(dp190
g2
S'GLN'
p191
sg4
I22845
sg5
F43.453
sg6
F66.6
sg7
F2.114
sg8
S'CA'
p192
sg10
F56.615
sa(dp193
g2
S'GLN'
p194
sg4
I21327
sg5
F18.425
sg6
F42.196
sg7
F1.809
sg8
S'CB'
p195
sg10
F29.172
sa(dp196
g2
S'GLN'
p197
sg4
I1446
sg5
F171.365
sg6
F183.5
sg7
F1.236
sg8
S'CD'
p198
sg10
F179.707
sa(dp199
g2
S'GLN'
p200
sg4
I14439
sg5
F21.64
sg6
F42.8
sg7
F1.103
sg8
S'CG'
p201
sg10
F33.771
sa(dp202
g2
S'GLN'
p203
sg4
I25909
sg5
F3.505
sg6
F12.04
sg7
F0.578
sg8
g19
sg20
g21
sg10
F8.216
sa(dp204
g2
S'GLN'
p205
sg4
I19726
sg5
F1.567
sg6
F6.34
sg7
F0.426
sg8
S'HA'
p206
sg20
g21
sg10
F4.258
sa(dp207
g2
S'GLN'
p208
sg4
I17894
sg5
F-0.14
sg6
F4.0
sg7
F0.254
sg8
S'HB2'
p209
sg20
g61
sg10
F2.046
sa(dp210
g2
S'GLN'
p211
sg4
I17011
sg5
F-0.52
sg6
F4.04
sg7
F0.268
sg8
S'HB3'
p212
sg20
g61
sg10
F2.015
sa(dp213
g2
S'GLN'
p214
sg4
I12651
sg5
F3.39
sg6
F9.922
sg7
F0.446
sg8
S'HE21'
p215
sg20
g83
sg10
F7.216
sa(dp216
g2
S'GLN'
p217
sg4
I12579
sg5
F3.59
sg6
F9.79
sg7
F0.435
sg8
S'HE22'
p218
sg20
g83
sg10
F7.038
sa(dp219
g2
S'GLN'
p220
sg4
I16852
sg5
F-0.111
sg6
F3.899
sg7
F0.268
sg8
S'HG2'
p221
sg20
g61
sg10
F2.313
sa(dp222
g2
S'GLN'
p223
sg4
I15537
sg5
F-0.406
sg6
F3.899
sg7
F0.287
sg8
S'HG3'
p224
sg20
g61
sg10
F2.291
sa(dp225
g2
S'GLN'
p226
sg4
I24185
sg5
F103.877
sg6
F139.55
sg7
F3.554
sg8
g35
sg10
F119.89
sa(dp227
g2
S'GLN'
p228
sg4
I11080
sg5
F97.9
sg6
F125.331
sg7
F1.679
sg8
S'NE2'
p229
sg10
F111.868
sa(dp230
g2
S'GLU'
p231
sg4
I31062
sg5
F166.8
sg6
F182.988
sg7
F1.914
sg8
g9
sg10
F176.92
sa(dp232
g2
S'GLU'
p233
sg4
I41987
sg5
F44.348
sg6
F66.94
sg7
F2.074
sg8
S'CA'
p234
sg10
F57.335
sa(dp235
g2
S'GLU'
p236
sg4
I39060
sg5
F18.356
sg6
F46.749
sg7
F1.706
sg8
S'CB'
p237
sg10
F29.975
sa(dp238
g2
S'GLU'
p239
sg4
I465
sg5
F129.753
sg6
F188.007
sg7
F2.992
sg8
S'CD'
p240
sg10
F182.393
sa(dp241
g2
S'GLU'
p242
sg4
I25964
sg5
F25.074
sg6
F50.278
sg7
F1.189
sg8
S'CG'
p243
sg10
F36.098
sa(dp244
g2
S'GLU'
p245
sg4
I47762
sg5
F4.244
sg6
F12.692
sg7
F0.587
sg8
g19
sg20
g21
sg10
F8.331
sa(dp246
g2
S'GLU'
p247
sg4
I35732
sg5
F1.393
sg6
F6.29
sg7
F0.405
sg8
S'HA'
p248
sg20
g21
sg10
F4.243
sa(dp249
g2
S'GLU'
p250
sg4
I32331
sg5
F0.23
sg6
F3.44
sg7
F0.209
sg8
S'HB2'
p251
sg20
g61
sg10
F2.022
sa(dp252
g2
S'GLU'
p253
sg4
I30351
sg5
F0.163
sg6
F3.467
sg7
F0.217
sg8
S'HB3'
p254
sg20
g61
sg10
F1.997
sa(dp255
g2
S'GLU'
p256
sg4
I3
sg5
F2.727
sg6
F6.69
sg7
F2.288
sg8
S'HE2'
p257
sg20
g21
sg10
F5.369
sa(dp258
g2
S'GLU'
p259
sg4
I30087
sg5
F0.528
sg6
F3.77
sg7
F0.211
sg8
S'HG2'
p260
sg20
g61
sg10
F2.269
sa(dp261
g2
S'GLU'
p262
sg4
I27946
sg5
F0.438
sg6
F3.832
sg7
F0.214
sg8
S'HG3'
p263
sg20
g61
sg10
F2.248
sa(dp264
g2
S'GLU'
p265
sg4
I45175
sg5
F102.942
sg6
F138.6
sg7
F3.46
sg8
g35
sg10
F120.702
sa(dp266
g2
S'GLY'
p267
sg4
I28767
sg5
F163.272
sg6
F187.394
sg7
F1.851
sg8
g9
sg10
F173.892
sa(dp268
g2
S'GLY'
p269
sg4
I40012
sg5
F33.148
sg6
F57.879
sg7
F1.269
sg8
S'CA'
p270
sg10
F45.357
sa(dp271
g2
S'GLY'
p272
sg4
I45808
sg5
F3.01
sg6
F12.22
sg7
F0.629
sg8
g19
sg20
g21
sg10
F8.334
sa(dp273
g2
S'GLY'
p274
sg4
I34286
sg5
F0.844
sg6
F6.428
sg7
F0.368
sg8
S'HA2'
p275
sg20
g61
sg10
F3.963
sa(dp276
g2
S'GLY'
p277
sg4
I32570
sg5
F0.645
sg6
F6.385
sg7
F0.369
sg8
S'HA3'
p278
sg20
g61
sg10
F3.898
sa(dp279
g2
S'GLY'
p280
sg4
I41800
sg5
F93.604
sg6
F162.194
sg7
F3.705
sg8
g35
sg10
F109.595
sa(dp281
g2
S'HIS'
p282
sg4
I8230
sg5
F166.9
sg6
F183.12
sg7
F1.95
sg8
g9
sg10
F175.262
sa(dp283
g2
S'HIS'
p284
sg4
I11745
sg5
F43.308
sg6
F66.98
sg7
F2.312
sg8
S'CA'
p285
sg10
F56.523
sa(dp286
g2
S'HIS'
p287
sg4
I11048
sg5
F18.745
sg6
F43.382
sg7
F2.091
sg8
S'CB'
p288
sg10
F30.226
sa(dp289
g2
S'HIS'
p290
sg4
I4330
sg5
F110.516
sg6
F159.946
sg7
F3.382
sg8
S'CD2'
p291
sg10
F120.428
sa(dp292
g2
S'HIS'
p293
sg4
I3334
sg5
F104.667
sg6
F144.756
sg7
F2.272
sg8
S'CE1'
p294
sg10
F137.649
sa(dp295
g2
S'HIS'
p296
sg4
I92
sg5
F117.54
sg6
F139.557
sg7
F3.213
sg8
S'CG'
p297
sg10
F131.971
sa(dp298
g2
S'HIS'
p299
sg4
I13120
sg5
F3.97
sg6
F12.392
sg7
F0.674
sg8
g19
sg20
g21
sg10
F8.248
sa(dp300
g2
S'HIS'
p301
sg4
I10294
sg5
F1.929
sg6
F8.9
sg7
F0.43
sg8
S'HA'
p302
sg20
g21
sg10
F4.603
sa(dp303
g2
S'HIS'
p304
sg4
I9582
sg5
F-0.038
sg6
F8.7
sg7
F0.353
sg8
S'HB2'
p305
sg20
g61
sg10
F3.108
sa(dp306
g2
S'HIS'
p307
sg4
I9292
sg5
F-0.387
sg6
F8.7
sg7
F0.382
sg8
S'HB3'
p308
sg20
g61
sg10
F3.046
sa(dp309
g2
S'HIS'
p310
sg4
I447
sg5
F2.73
sg6
F77.1
sg7
F7.964
sg8
S'HD1'
p311
sg20
g83
sg10
F9.504
sa(dp312
g2
S'HIS'
p313
sg4
I6835
sg5
F0.47
sg6
F9.415
sg7
F0.491
sg8
S'HD2'
p314
sg20
g83
sg10
F6.999
sa(dp315
g2
S'HIS'
p316
sg4
I5404
sg5
F0.075
sg6
F10.881
sg7
F0.593
sg8
S'HE1'
p317
sg20
g83
sg10
F7.94
sa(dp318
g2
S'HIS'
p319
sg4
I193
sg5
F6.573
sg6
F16.53
sg7
F2.388
sg8
S'HE2'
p320
sg20
g83
sg10
F9.578
sa(dp321
g2
S'HIS'
p322
sg4
I11968
sg5
F103.986
sg6
F136.48
sg7
F4.037
sg8
g35
sg10
F119.686
sa(dp323
g2
S'HIS'
p324
sg4
I220
sg5
F162.04
sg6
F229.14
sg7
F18.456
sg8
S'ND1'
p325
sg10
F192.368
sa(dp326
g2
S'HIS'
p327
sg4
I238
sg5
F161.376
sg6
F226.759
sg7
F16.905
sg8
S'NE2'
p328
sg10
F184.533
sa(dp329
g2
S'ILE'
p330
sg4
I20717
sg5
F166.403
sg6
F187.551
sg7
F1.892
sg8
g9
sg10
F175.936
sa(dp331
g2
S'ILE'
p332
sg4
I28363
sg5
F49.045
sg6
F71.856
sg7
F2.681
sg8
S'CA'
p333
sg10
F61.675
sa(dp334
g2
S'ILE'
p335
sg4
I26540
sg5
F22.113
sg6
F51.876
sg7
F1.993
sg8
S'CB'
p336
sg10
F38.577
sa(dp337
g2
S'ILE'
p338
sg4
I18980
sg5
F2.905
sg6
F29.595
sg7
F1.652
sg8
S'CD1'
p339
sg10
F13.402
sa(dp340
g2
S'ILE'
p341
sg4
I17622
sg5
F12.05
sg6
F39.05
sg7
F1.686
sg8
S'CG1'
p342
sg10
F27.735
sa(dp343
g2
S'ILE'
p344
sg4
I18720
sg5
F3.448
sg6
F29.8
sg7
F1.325
sg8
S'CG2'
p345
sg10
F17.53
sa(dp346
g2
S'ILE'
p347
sg4
I32337
sg5
F3.428
sg6
F11.871
sg7
F0.681
sg8
g19
sg20
g21
sg10
F8.265
sa(dp348
g2
S'ILE'
p349
sg4
I24256
sg5
F1.32
sg6
F6.362
sg7
F0.553
sg8
S'HA'
p350
sg20
g21
sg10
F4.165
sa(dp351
g2
S'ILE'
p352
sg4
I22794
sg5
F-1.28
sg6
F3.87
sg7
F0.294
sg8
S'HB'
p353
sg20
g21
sg10
F1.783
sa(dp354
g2
S'ILE'
p355
sg4
I20691
sg5
F-2.12
sg6
F2.691
sg7
F0.399
sg8
S'HG12'
p356
sg20
g61
sg10
F1.274
sa(dp357
g2
S'ILE'
p358
sg4
I19937
sg5
F-2.074
sg6
F2.99
sg7
F0.407
sg8
S'HG13'
p359
sg20
g61
sg10
F1.194
sa(dp360
g2
S'ILE'
p361
sg4
I22024
sg5
F-1.468
sg6
F2.82
sg7
F0.288
sg8
S'HD11'
p362
sg20
g28
sg10
F0.679
sa(dp363
g2
g361
sg4
I22024
sg5
F-1.468
sg6
F2.82
sg7
F0.288
sg8
S'HD12'
p364
sg20
g28
sg10
F0.679
sa(dp365
g2
g361
sg4
I22024
sg5
F-1.468
sg6
F2.82
sg7
F0.288
sg8
S'HD13'
p366
sg20
g28
sg10
F0.679
sa(dp367
g2
S'ILE'
p368
sg4
I21671
sg5
F-1.468
sg6
F2.198
sg7
F0.271
sg8
S'HG21'
p369
sg20
g28
sg10
F0.776
sa(dp370
g2
g368
sg4
I21671
sg5
F-1.468
sg6
F2.198
sg7
F0.271
sg8
S'HG22'
p371
sg20
g28
sg10
F0.776
sa(dp372
g2
g368
sg4
I21671
sg5
F-1.468
sg6
F2.198
sg7
F0.271
sg8
S'HG23'
p373
sg20
g28
sg10
F0.776
sa(dp374
g2
S'ILE'
p375
sg4
I30189
sg5
F99.0
sg6
F138.12
sg7
F4.267
sg8
g35
sg10
F121.399
sa(dp376
g2
S'LEU'
p377
sg4
I34089
sg5
F167.49
sg6
F189.78
sg7
F1.933
sg8
g9
sg10
F177.083
sa(dp378
g2
S'LEU'
p379
sg4
I46695
sg5
F37.916
sg6
F67.88
sg7
F2.124
sg8
S'CA'
p380
sg10
F55.694
sa(dp381
g2
S'LEU'
p382
sg4
I43742
sg5
F26.4
sg6
F55.546
sg7
F1.846
sg8
S'CB'
p383
sg10
F42.272
sa(dp384
g2
S'LEU'
p385
sg4
I30536
sg5
F10.945
sg6
F36.85
sg7
F1.584
sg8
S'CD1'
p386
sg10
F24.675
sa(dp387
g2
S'LEU'
p388
sg4
I29089
sg5
F11.706
sg6
F30.4
sg7
F1.682
sg8
S'CD2'
p389
sg10
F24.067
sa(dp390
g2
S'LEU'
p391
sg4
I27627
sg5
F15.3
sg6
F37.7
sg7
F1.086
sg8
S'CG'
p392
sg10
F26.787
sa(dp393
g2
S'LEU'
p394
sg4
I53601
sg5
F2.15
sg6
F13.22
sg7
F0.635
sg8
g19
sg20
g21
sg10
F8.217
sa(dp395
g2
S'LEU'
p396
sg4
I40287
sg5
F1.58
sg6
F6.42
sg7
F0.459
sg8
S'HA'
p397
sg20
g21
sg10
F4.3
sa(dp398
g2
S'LEU'
p399
sg4
I36965
sg5
F-1.292
sg6
F3.226
sg7
F0.344
sg8
S'HB2'
p400
sg20
g61
sg10
F1.612
sa(dp401
g2
S'LEU'
p402
sg4
I35384
sg5
F-1.51
sg6
F3.226
sg7
F0.364
sg8
S'HB3'
p403
sg20
g61
sg10
F1.521
sa(dp404
g2
S'LEU'
p405
sg4
I32796
sg5
F-1.06
sg6
F3.9
sg7
F0.329
sg8
S'HG'
p406
sg20
g21
sg10
F1.511
sa(dp407
g2
S'LEU'
p408
sg4
I36597
sg5
F-1.76
sg6
F2.364
sg7
F0.278
sg8
S'HD11'
p409
sg20
g28
sg10
F0.754
sa(dp410
g2
g408
sg4
I36597
sg5
F-1.76
sg6
F2.364
sg7
F0.278
sg8
S'HD12'
p411
sg20
g28
sg10
F0.754
sa(dp412
g2
g408
sg4
I36597
sg5
F-1.76
sg6
F2.364
sg7
F0.278
sg8
S'HD13'
p413
sg20
g28
sg10
F0.754
sa(dp414
g2
S'LEU'
p415
sg4
I35181
sg5
F-1.652
sg6
F2.67
sg7
F0.282
sg8
S'HD21'
p416
sg20
g28
sg10
F0.733
sa(dp417
g2
g415
sg4
I35181
sg5
F-1.652
sg6
F2.67
sg7
F0.282
sg8
S'HD22'
p418
sg20
g28
sg10
F0.733
sa(dp419
g2
g415
sg4
I35181
sg5
F-1.652
sg6
F2.67
sg7
F0.282
sg8
S'HD23'
p420
sg20
g28
sg10
F0.733
sa(dp421
g2
S'LEU'
p422
sg4
I49738
sg5
F98.56
sg6
F177.623
sg7
F3.863
sg8
g35
sg10
F121.816
sa(dp423
g2
S'LYS'
p424
sg4
I28042
sg5
F166.633
sg6
F185.0
sg7
F1.912
sg8
g9
sg10
F176.722
sa(dp425
g2
S'LYS'
p426
sg4
I38456
sg5
F40.726
sg6
F65.866
sg7
F2.178
sg8
S'CA'
p427
sg10
F56.973
sa(dp428
g2
S'LYS'
p429
sg4
I35838
sg5
F21.192
sg6
F46.6
sg7
F1.77
sg8
S'CB'
p430
sg10
F32.784
sa(dp431
g2
S'LYS'
p432
sg4
I21952
sg5
F20.1
sg6
F40.1
sg7
F1.081
sg8
S'CD'
p433
sg10
F28.951
sa(dp434
g2
S'LYS'
p435
sg4
I21237
sg5
F30.477
sg6
F52.196
sg7
F0.829
sg8
S'CE'
p436
sg10
F41.89
sa(dp437
g2
S'LYS'
p438
sg4
I23201
sg5
F16.845
sg6
F36.22
sg7
F1.121
sg8
S'CG'
p439
sg10
F24.897
sa(dp440
g2
S'LYS'
p441
sg4
I45148
sg5
F4.108
sg6
F12.031
sg7
F0.594
sg8
g19
sg20
g21
sg10
F8.18
sa(dp442
g2
S'LYS'
p443
sg4
I34522
sg5
F0.68
sg6
F7.96
sg7
F0.432
sg8
S'HA'
p444
sg20
g21
sg10
F4.259
sa(dp445
g2
S'LYS'
p446
sg4
I30886
sg5
F-0.75
sg6
F4.05
sg7
F0.248
sg8
S'HB2'
p447
sg20
g61
sg10
F1.776
sa(dp448
g2
S'LYS'
p449
sg4
I29064
sg5
F-0.899
sg6
F3.95
sg7
F0.268
sg8
S'HB3'
p450
sg20
g61
sg10
F1.747
sa(dp451
g2
S'LYS'
p452
sg4
I24934
sg5
F-1.68
sg6
F3.19
sg7
F0.213
sg8
S'HD2'
p453
sg20
g61
sg10
F1.605
sa(dp454
g2
S'LYS'
p455
sg4
I22397
sg5
F-1.016
sg6
F3.193
sg7
F0.218
sg8
S'HD3'
p456
sg20
g61
sg10
F1.596
sa(dp457
g2
S'LYS'
p458
sg4
I24686
sg5
F1.178
sg6
F4.43
sg7
F0.192
sg8
S'HE2'
p459
sg20
g61
sg10
F2.913
sa(dp460
g2
S'LYS'
p461
sg4
I21674
sg5
F1.12
sg6
F4.55
sg7
F0.2
sg8
S'HE3'
p462
sg20
g61
sg10
F2.907
sa(dp463
g2
S'LYS'
p464
sg4
I27999
sg5
F-1.114
sg6
F3.613
sg7
F0.256
sg8
S'HG2'
p465
sg20
g61
sg10
F1.368
sa(dp466
g2
S'LYS'
p467
sg4
I25768
sg5
F-1.164
sg6
F3.613
sg7
F0.273
sg8
S'HG3'
p468
sg20
g61
sg10
F1.35
sa(dp469
g2
S'LYS'
p470
sg4
I41276
sg5
F101.1
sg6
F140.3
sg7
F3.722
sg8
g35
sg10
F121.044
sa(dp471
g2
S'LYS'
p472
sg4
I38
sg5
F29.48
sg6
F43.687
sg7
F2.217
sg8
S'NZ'
p473
sg10
F33.254
sa(dp474
g2
S'LYS'
p475
sg4
I1052
sg5
F1.949
sg6
F9.9
sg7
F0.63
sg8
S'HZ1'
p476
sg20
g61
sg10
F7.422
sa(dp477
g2
g475
sg4
I1052
sg5
F1.949
sg6
F9.9
sg7
F0.63
sg8
S'HZ2'
p478
sg20
g61
sg10
F7.422
sa(dp479
g2
S'MET'
p480
sg4
I8230
sg5
F167.4
sg6
F183.159
sg7
F2.075
sg8
g9
sg10
F176.234
sa(dp481
g2
S'MET'
p482
sg4
I11562
sg5
F43.281
sg6
F66.86
sg7
F2.224
sg8
S'CA'
p483
sg10
F56.139
sa(dp484
g2
S'MET'
p485
sg4
I10685
sg5
F20.361
sg6
F46.46
sg7
F2.2
sg8
S'CB'
p486
sg10
F32.938
sa(dp487
g2
S'MET'
p488
sg4
I5160
sg5
F10.69
sg6
F38.441
sg7
F1.533
sg8
S'CE'
p489
sg10
F17.075
sa(dp490
g2
S'MET'
p491
sg4
I6683
sg5
F19.056
sg6
F38.581
sg7
F1.23
sg8
S'CG'
p492
sg10
F32.026
sa(dp493
g2
S'MET'
p494
sg4
I12567
sg5
F4.865
sg6
F12.456
sg7
F0.59
sg8
g19
sg20
g21
sg10
F8.259
sa(dp495
g2
S'MET'
p496
sg4
I9850
sg5
F1.127
sg6
F6.35
sg7
F0.463
sg8
S'HA'
p497
sg20
g21
sg10
F4.396
sa(dp498
g2
S'MET'
p499
sg4
I8811
sg5
F-1.05
sg6
F4.07
sg7
F0.33
sg8
S'HB2'
p500
sg20
g61
sg10
F2.025
sa(dp501
g2
S'MET'
p502
sg4
I8296
sg5
F-0.99
sg6
F3.47
sg7
F0.343
sg8
S'HB3'
p503
sg20
g61
sg10
F1.988
sa(dp504
g2
S'MET'
p505
sg4
I8121
sg5
F-0.42
sg6
F4.4
sg7
F0.349
sg8
S'HG2'
p506
sg20
g61
sg10
F2.423
sa(dp507
g2
S'MET'
p508
sg4
I7675
sg5
F-0.302
sg6
F4.24
sg7
F0.374
sg8
S'HG3'
p509
sg20
g61
sg10
F2.394
sa(dp510
g2
S'MET'
p511
sg4
I5839
sg5
F-0.713
sg6
F8.381
sg7
F0.413
sg8
S'HE1'
p512
sg20
g28
sg10
F1.885
sa(dp513
g2
g511
sg4
I5839
sg5
F-0.713
sg6
F8.381
sg7
F0.413
sg8
S'HE2'
p514
sg20
g28
sg10
F1.885
sa(dp515
g2
g511
sg4
I5839
sg5
F-0.713
sg6
F8.381
sg7
F0.413
sg8
S'HE3'
p516
sg20
g28
sg10
F1.885
sa(dp517
g2
S'MET'
p518
sg4
I11838
sg5
F102.876
sg6
F138.547
sg7
F3.511
sg8
g35
sg10
F120.09
sa(dp519
g2
S'PHE'
p520
sg4
I14359
sg5
F167.2
sg6
F184.929
sg7
F1.972
sg8
g9
sg10
F175.5
sa(dp521
g2
S'PHE'
p522
sg4
I19668
sg5
F45.52
sg6
F69.821
sg7
F2.581
sg8
S'CA'
p523
sg10
F58.148
sa(dp524
g2
S'PHE'
p525
sg4
I18480
sg5
F25.52
sg6
F50.225
sg7
F2.068
sg8
S'CB'
p526
sg10
F39.947
sa(dp527
g2
S'PHE'
p528
sg4
I7720
sg5
F116.948
sg6
F136.728
sg7
F1.192
sg8
S'CD1'
p529
sg10
F131.571
sa(dp530
g2
S'PHE'
p531
sg4
I5746
sg5
F118.128
sg6
F138.249
sg7
F1.173
sg8
S'CD2'
p532
sg10
F131.58
sa(dp533
g2
S'PHE'
p534
sg4
I6751
sg5
F114.754
sg6
F139.56
sg7
F1.292
sg8
S'CE1'
p535
sg10
F130.723
sa(dp536
g2
S'PHE'
p537
sg4
I5043
sg5
F114.7
sg6
F139.7
sg7
F1.169
sg8
S'CE2'
p538
sg10
F130.752
sa(dp539
g2
S'PHE'
p540
sg4
I170
sg5
F127.24
sg6
F152.844
sg7
F3.262
sg8
S'CG'
p541
sg10
F138.067
sa(dp542
g2
S'PHE'
p543
sg4
I5246
sg5
F116.458
sg6
F138.6
sg7
F1.446
sg8
S'CZ'
p544
sg10
F129.22
sa(dp545
g2
S'PHE'
p546
sg4
I22869
sg5
F3.549
sg6
F12.1759
sg7
F0.716
sg8
g19
sg20
g21
sg10
F8.341
sa(dp547
g2
S'PHE'
p548
sg4
I17066
sg5
F1.78
sg6
F6.868
sg7
F0.563
sg8
S'HA'
p549
sg20
g21
sg10
F4.614
sa(dp550
g2
S'PHE'
p551
sg4
I15907
sg5
F0.159
sg6
F4.461
sg7
F0.367
sg8
S'HB2'
p552
sg20
g61
sg10
F2.998
sa(dp553
g2
S'PHE'
p554
sg4
I15526
sg5
F-0.212
sg6
F4.69
sg7
F0.39
sg8
S'HB3'
p555
sg20
g61
sg10
F2.938
sa(dp556
g2
S'PHE'
p557
sg4
I13457
sg5
F4.669
sg6
F8.152
sg7
F0.309
sg8
S'HD1'
p558
sg20
g83
sg10
F7.058
sa(dp559
g2
S'PHE'
p560
sg4
I11531
sg5
F4.669
sg6
F8.152
sg7
F0.314
sg8
S'HD2'
p561
sg20
g83
sg10
F7.057
sa(dp562
g2
S'PHE'
p563
sg4
I11762
sg5
F4.378
sg6
F8.19
sg7
F0.316
sg8
S'HE1'
p564
sg20
g83
sg10
F7.079
sa(dp565
g2
S'PHE'
p566
sg4
I10262
sg5
F4.378
sg6
F8.19
sg7
F0.319
sg8
S'HE2'
p567
sg20
g83
sg10
F7.075
sa(dp568
g2
S'PHE'
p569
sg4
I8398
sg5
F4.324
sg6
F8.919
sg7
F0.424
sg8
S'HZ'
p570
sg20
g21
sg10
F6.991
sa(dp571
g2
S'PHE'
p572
sg4
I21110
sg5
F102.2
sg6
F139.02
sg7
F4.141
sg8
g35
sg10
F120.37
sa(dp573
g2
S'PRO'
p574
sg4
I15309
sg5
F168.381
sg6
F182.836
sg7
F1.493
sg8
g9
sg10
F176.765
sa(dp575
g2
S'PRO'
p576
sg4
I22006
sg5
F50.12
sg6
F70.88
sg7
F1.513
sg8
S'CA'
p577
sg10
F63.357
sa(dp578
g2
S'PRO'
p579
sg4
I20614
sg5
F20.914
sg6
F45.16
sg7
F1.174
sg8
S'CB'
p580
sg10
F31.853
sa(dp581
g2
S'PRO'
p582
sg4
I14284
sg5
F37.0759
sg6
F58.812
sg7
F0.999
sg8
S'CD'
p583
sg10
F50.344
sa(dp584
g2
S'PRO'
p585
sg4
I14265
sg5
F18.28
sg6
F33.9
sg7
F1.073
sg8
S'CG'
p586
sg10
F27.195
sa(dp587
g2
S'PRO'
p588
sg4
I19630
sg5
F1.044
sg6
F8.08
sg7
F0.331
sg8
S'HA'
p589
sg20
g21
sg10
F4.389
sa(dp590
g2
S'PRO'
p591
sg4
I18222
sg5
F-0.472
sg6
F4.351
sg7
F0.346
sg8
S'HB2'
p592
sg20
g61
sg10
F2.077
sa(dp593
g2
S'PRO'
p594
sg4
I17622
sg5
F-1.074
sg6
F3.79
sg7
F0.357
sg8
S'HB3'
p595
sg20
g61
sg10
F2.0
sa(dp596
g2
S'PRO'
p597
sg4
I16954
sg5
F-0.043
sg6
F7.077
sg7
F0.35
sg8
S'HD2'
p598
sg20
g61
sg10
F3.648
sa(dp599
g2
S'PRO'
p600
sg4
I16337
sg5
F-0.257
sg6
F5.357
sg7
F0.383
sg8
S'HD3'
p601
sg20
g61
sg10
F3.612
sa(dp602
g2
S'PRO'
p603
sg4
I16557
sg5
F-0.801
sg6
F4.418
sg7
F0.313
sg8
S'HG2'
p604
sg20
g61
sg10
F1.925
sa(dp605
g2
S'PRO'
p606
sg4
I15319
sg5
F-0.9
sg6
F4.418
sg7
F0.327
sg8
S'HG3'
p607
sg20
g61
sg10
F1.9
sa(dp608
g2
S'PRO'
p609
sg4
I604
sg5
F110.908
sg6
F145.257
sg7
F6.39
sg8
g35
sg10
F134.559
sa(dp610
g2
S'SER'
p611
sg4
I25087
sg5
F164.47
sg6
F184.875
sg7
F1.728
sg8
g9
sg10
F174.654
sa(dp612
g2
S'SER'
p613
sg4
I34948
sg5
F45.13
sg6
F73.678
sg7
F2.085
sg8
S'CA'
p614
sg10
F58.753
sa(dp615
g2
S'SER'
p616
sg4
I32435
sg5
F31.4
sg6
F78.834
sg7
F1.52
sg8
S'CB'
p617
sg10
F63.794
sa(dp618
g2
S'SER'
p619
sg4
I39313
sg5
F3.76
sg6
F13.13
sg7
F0.579
sg8
g19
sg20
g21
sg10
F8.277
sa(dp620
g2
S'SER'
p621
sg4
I30398
sg5
F1.43
sg6
F6.853
sg7
F0.401
sg8
S'HA'
p622
sg20
g21
sg10
F4.474
sa(dp623
g2
S'SER'
p624
sg4
I27874
sg5
F1.66
sg6
F5.453
sg7
F0.253
sg8
S'HB2'
p625
sg20
g61
sg10
F3.873
sa(dp626
g2
S'SER'
p627
sg4
I25778
sg5
F1.49
sg6
F5.453
sg7
F0.272
sg8
S'HB3'
p628
sg20
g61
sg10
F3.847
sa(dp629
g2
S'SER'
p630
sg4
I421
sg5
F0.13
sg6
F8.97
sg7
F1.026
sg8
S'HG'
p631
sg20
g21
sg10
F5.418
sa(dp632
g2
S'SER'
p633
sg4
I36161
sg5
F95.97
sg6
F133.684
sg7
F3.509
sg8
g35
sg10
F116.269
sa(dp634
g2
S'THR'
p635
sg4
I21212
sg5
F165.5
sg6
F184.431
sg7
F1.717
sg8
g9
sg10
F174.584
sa(dp636
g2
S'THR'
p637
sg4
I29484
sg5
F48.009
sg6
F72.797
sg7
F2.59
sg8
S'CA'
p638
sg10
F62.261
sa(dp639
g2
S'THR'
p640
sg4
I27329
sg5
F29.97
sg6
F81.526
sg7
F1.737
sg8
S'CB'
p641
sg10
F69.708
sa(dp642
g2
S'THR'
p643
sg4
I18723
sg5
F11.7
sg6
F36.725
sg7
F1.094
sg8
S'CG2'
p644
sg10
F21.556
sa(dp645
g2
S'THR'
p646
sg4
I34217
sg5
F5.32
sg6
F11.727
sg7
F0.616
sg8
g19
sg20
g21
sg10
F8.237
sa(dp647
g2
S'THR'
p648
sg4
I25778
sg5
F1.65
sg6
F7.468
sg7
F0.475
sg8
S'HA'
p649
sg20
g21
sg10
F4.452
sa(dp650
g2
S'THR'
p651
sg4
I23456
sg5
F0.92
sg6
F8.346
sg7
F0.323
sg8
S'HB'
p652
sg20
g21
sg10
F4.164
sa(dp653
g2
S'THR'
p654
sg4
I740
sg5
F0.32
sg6
F8.903
sg7
F1.161
sg8
S'HG1'
p655
sg20
g21
sg10
F5.168
sa(dp656
g2
S'THR'
p657
sg4
I23249
sg5
F-1.186
sg6
F3.4
sg7
F0.219
sg8
S'HG21'
p658
sg20
g28
sg10
F1.137
sa(dp659
g2
g657
sg4
I23249
sg5
F-1.186
sg6
F3.4
sg7
F0.219
sg8
S'HG22'
p660
sg20
g28
sg10
F1.137
sa(dp661
g2
g657
sg4
I23249
sg5
F-1.186
sg6
F3.4
sg7
F0.219
sg8
S'HG23'
p662
sg20
g28
sg10
F1.137
sa(dp663
g2
S'THR'
p664
sg4
I31648
sg5
F95.77
sg6
F138.274
sg7
F4.72
sg8
g35
sg10
F115.373
sa(dp665
g2
S'TRP'
p666
sg4
I4384
sg5
F168.169
sg6
F182.604
sg7
F1.994
sg8
g9
sg10
F176.239
sa(dp667
g2
S'TRP'
p668
sg4
I6064
sg5
F44.685
sg6
F81.0
sg7
F2.575
sg8
S'CA'
p669
sg10
F57.753
sa(dp670
g2
S'TRP'
p671
sg4
I5726
sg5
F18.633
sg6
F52.3
sg7
F1.996
sg8
S'CB'
p672
sg10
F29.958
sa(dp673
g2
S'TRP'
p674
sg4
I2858
sg5
F108.45
sg6
F133.49
sg7
F1.812
sg8
S'CD1'
p675
sg10
F126.554
sa(dp676
g2
S'TRP'
p677
sg4
I100
sg5
F120.2
sg6
F139.1
sg7
F1.969
sg8
S'CD2'
p678
sg10
F127.971
sa(dp679
g2
S'TRP'
p680
sg4
I99
sg5
F113.888
sg6
F177.71
sg7
F7.635
sg8
S'CE2'
p681
sg10
F138.611
sa(dp682
g2
S'TRP'
p683
sg4
I2424
sg5
F93.343
sg6
F137.6
sg7
F1.705
sg8
S'CE3'
p684
sg10
F120.448
sa(dp685
g2
S'TRP'
p686
sg4
I133
sg5
F102.53
sg6
F116.526
sg7
F2.034
sg8
S'CG'
p687
sg10
F110.921
sa(dp688
g2
S'TRP'
p689
sg4
I2556
sg5
F91.616
sg6
F131.54
sg7
F1.527
sg8
S'CH2'
p690
sg10
F123.831
sa(dp691
g2
S'TRP'
p692
sg4
I2734
sg5
F81.812
sg6
F132.031
sg7
F1.354
sg8
S'CZ2'
p693
sg10
F114.248
sa(dp694
g2
S'TRP'
p695
sg4
I2460
sg5
F98.613
sg6
F138.39
sg7
F1.567
sg8
S'CZ3'
p696
sg10
F121.361
sa(dp697
g2
S'TRP'
p698
sg4
I7513
sg5
F5.16
sg6
F11.75862
sg7
F0.762
sg8
g19
sg20
g21
sg10
F8.267
sa(dp699
g2
S'TRP'
p700
sg4
I5627
sg5
F2.243
sg6
F6.55
sg7
F0.515
sg8
S'HA'
p701
sg20
g21
sg10
F4.66
sa(dp702
g2
S'TRP'
p703
sg4
I5304
sg5
F0.42
sg6
F4.54
sg7
F0.347
sg8
S'HB2'
p704
sg20
g61
sg10
F3.186
sa(dp705
g2
S'TRP'
p706
sg4
I5153
sg5
F0.257
sg6
F4.44
sg7
F0.369
sg8
S'HB3'
p707
sg20
g61
sg10
F3.119
sa(dp708
g2
S'TRP'
p709
sg4
I4760
sg5
F4.9
sg6
F8.93
sg7
F0.344
sg8
S'HD1'
p710
sg20
g21
sg10
F7.137
sa(dp711
g2
S'TRP'
p712
sg4
I5167
sg5
F5.1154
sg6
F13.49
sg7
F0.639
sg8
S'HE1'
p713
sg20
g21
sg10
F10.082
sa(dp714
g2
S'TRP'
p715
sg4
I4211
sg5
F4.89
sg6
F9.949
sg7
F0.411
sg8
S'HE3'
p716
sg20
g21
sg10
F7.316
sa(dp717
g2
S'TRP'
p718
sg4
I4143
sg5
F4.372
sg6
F8.797
sg7
F0.362
sg8
S'HH2'
p719
sg20
g21
sg10
F6.975
sa(dp720
g2
S'TRP'
p721
sg4
I4482
sg5
F4.655
sg6
F8.558
sg7
F0.324
sg8
S'HZ2'
p722
sg20
g61
sg10
F7.282
sa(dp723
g2
S'TRP'
p724
sg4
I4066
sg5
F3.877
sg6
F8.898
sg7
F0.379
sg8
S'HZ3'
p725
sg20
g61
sg10
F6.868
sa(dp726
g2
S'TRP'
p727
sg4
I6572
sg5
F101.97
sg6
F138.113
sg7
F4.083
sg8
g35
sg10
F121.574
sa(dp728
g2
S'TRP'
p729
sg4
I3992
sg5
F106.0
sg6
F139.2
sg7
F2.226
sg8
S'NE1'
p730
sg10
F129.231
sa(dp731
g2
S'TYR'
p732
sg4
I11609
sg5
F168.368
sg6
F184.78
sg7
F1.965
sg8
g9
sg10
F175.467
sa(dp733
g2
S'TYR'
p734
sg4
I16238
sg5
F44.635
sg6
F69.56
sg7
F2.519
sg8
S'CA'
p735
sg10
F58.181
sa(dp736
g2
S'TYR'
p737
sg4
I15096
sg5
F25.321
sg6
F47.3
sg7
F2.135
sg8
S'CB'
p738
sg10
F39.271
sa(dp739
g2
S'TYR'
p740
sg4
I6907
sg5
F54.99
sg6
F141.572
sg7
F1.604
sg8
S'CD1'
p741
sg10
F132.737
sa(dp742
g2
S'TYR'
p743
sg4
I4946
sg5
F113.003
sg6
F138.289
sg7
F1.444
sg8
S'CD2'
p744
sg10
F132.713
sa(dp745
g2
S'TYR'
p746
sg4
I6878
sg5
F110.7
sg6
F137.42
sg7
F1.215
sg8
S'CE1'
p747
sg10
F117.926
sa(dp748
g2
S'TYR'
p749
sg4
I4908
sg5
F106.548
sg6
F135.823
sg7
F1.235
sg8
S'CE2'
p750
sg10
F117.896
sa(dp751
g2
S'TYR'
p752
sg4
I164
sg5
F117.7
sg6
F174.59
sg7
F4.542
sg8
S'CG'
p753
sg10
F129.48
sa(dp754
g2
S'TYR'
p755
sg4
I118
sg5
F105.248
sg6
F160.45
sg7
F4.981
sg8
S'CZ'
p756
sg10
F156.428
sa(dp757
g2
S'TYR'
p758
sg4
I19456
sg5
F4.156
sg6
F11.988
sg7
F0.724
sg8
g19
sg20
g21
sg10
F8.298
sa(dp759
g2
S'TYR'
p760
sg4
I14806
sg5
F1.188
sg6
F6.765
sg7
F0.554
sg8
S'HA'
p761
sg20
g21
sg10
F4.606
sa(dp762
g2
S'TYR'
p763
sg4
I13727
sg5
F-0.494
sg6
F4.7
sg7
F0.372
sg8
S'HB2'
p764
sg20
g61
sg10
F2.904
sa(dp765
g2
S'TYR'
p766
sg4
I13414
sg5
F-0.192
sg6
F4.7
sg7
F0.392
sg8
S'HB3'
p767
sg20
g61
sg10
F2.843
sa(dp768
g2
S'TYR'
p769
sg4
I12038
sg5
F3.931
sg6
F8.527
sg7
F0.296
sg8
S'HD1'
p770
sg20
g83
sg10
F6.935
sa(dp771
g2
S'TYR'
p772
sg4
I10473
sg5
F4.027
sg6
F8.5
sg7
F0.297
sg8
S'HD2'
p773
sg20
g83
sg10
F6.932
sa(dp774
g2
S'TYR'
p775
sg4
I11464
sg5
F4.58
sg6
F7.829
sg7
F0.225
sg8
S'HE1'
p776
sg20
g83
sg10
F6.702
sa(dp777
g2
S'TYR'
p778
sg4
I10082
sg5
F4.58
sg6
F8.5
sg7
F0.231
sg8
S'HE2'
p779
sg20
g83
sg10
F6.703
sa(dp780
g2
S'TYR'
p781
sg4
I204
sg5
F-0.788
sg6
F13.748
sg7
F1.595
sg8
S'HH'
p782
sg20
g21
sg10
F9.237
sa(dp783
g2
S'TYR'
p784
sg4
I17368
sg5
F39.2
sg6
F144.96
sg7
F4.263
sg8
g35
sg10
F120.458
sa(dp785
g2
S'VAL'
p786
sg4
I27340
sg5
F165.654
sg6
F183.949
sg7
F1.867
sg8
g9
sg10
F175.71
sa(dp787
g2
S'VAL'
p788
sg4
I37219
sg5
F49.184
sg6
F70.39
sg7
F2.853
sg8
S'CA'
p789
sg10
F62.572
sa(dp790
g2
S'VAL'
p791
sg4
I34440
sg5
F20.292
sg6
F45.331
sg7
F1.779
sg8
S'CB'
p792
sg10
F32.713
sa(dp793
g2
S'VAL'
p794
sg4
I24612
sg5
F13.53
sg6
F32.27
sg7
F1.364
sg8
S'CG1'
p795
sg10
F21.504
sa(dp796
g2
S'VAL'
p797
sg4
I23700
sg5
F13.257
sg6
F30.463
sg7
F1.55
sg8
S'CG2'
p798
sg10
F21.289
sa(dp799
g2
S'VAL'
p800
sg4
I42494
sg5
F3.98
sg6
F12.585
sg7
F0.663
sg8
g19
sg20
g21
sg10
F8.279
sa(dp801
g2
S'VAL'
p802
sg4
I32038
sg5
F0.972
sg6
F6.298
sg7
F0.572
sg8
S'HA'
p803
sg20
g21
sg10
F4.163
sa(dp804
g2
S'VAL'
p805
sg4
I29707
sg5
F-1.219
sg6
F3.319
sg7
F0.312
sg8
S'HB'
p806
sg20
g21
sg10
F1.985
sa(dp807
g2
S'VAL'
p808
sg4
I29260
sg5
F-1.55
sg6
F2.573
sg7
F0.259
sg8
S'HG11'
p809
sg20
g28
sg10
F0.827
sa(dp810
g2
g808
sg4
I29260
sg5
F-1.55
sg6
F2.573
sg7
F0.259
sg8
S'HG12'
p811
sg20
g28
sg10
F0.827
sa(dp812
g2
g808
sg4
I29260
sg5
F-1.55
sg6
F2.573
sg7
F0.259
sg8
S'HG13'
p813
sg20
g28
sg10
F0.827
sa(dp814
g2
S'VAL'
p815
sg4
I28643
sg5
F-2.32
sg6
F2.88
sg7
F0.279
sg8
S'HG21'
p816
sg20
g28
sg10
F0.805
sa(dp817
g2
g815
sg4
I28643
sg5
F-2.32
sg6
F2.88
sg7
F0.279
sg8
S'HG22'
p818
sg20
g28
sg10
F0.805
sa(dp819
g2
g815
sg4
I28643
sg5
F-2.32
sg6
F2.88
sg7
F0.279
sg8
S'HG23'
p820
sg20
g28
sg10
F0.805
sa(dp821
g2
S'VAL'
p822
sg4
I39867
sg5
F97.22
sg6
F143.29
sg7
F4.47
sg8
g35
sg10
F121.081
sa.