(lp0
(dp1
S'comp_id'
p2
S'ALA'
p3
sS'count'
p4
I38367
sS'min'
p5
F0.037
sS'max'
p6
F187.2
sS'primary'
p7
I01
sS'std'
p8
F3.627
sS'atom_id'
p9
S'C'
p10
sS'avg'
p11
F177.73
sS'norm_freq'
p12
F0.636
sS'desc'
p13
S'isolated'
p14
sa(dp15
g2
S'ALA'
p16
sg4
I52586
sg5
F17.007
sg6
F123.9
sg7
I01
sg8
F2.087
sg9
S'CA'
p17
sg11
F53.163
sg12
F0.872
sg13
g14
sa(dp18
g2
S'ALA'
p19
sg4
I49713
sg5
F-40.993
sg6
F99.0
sg7
I01
sg8
F2.412
sg9
S'CB'
p20
sg11
F19.06
sg12
F0.824
sg13
S'methyl'
p21
sa(dp22
g2
S'ALA'
p23
sg4
I60330
sg5
F0.004
sg6
F69.229
sg7
I01
sg8
F0.658
sg9
S'H'
p24
sg11
F8.193
sg12
F1.0
sg13
g14
sa(dp25
g2
S'ALA'
p26
sg4
I45753
sg5
F-2.52
sg6
F17.87
sg7
I01
sg8
F0.448
sg9
S'HA'
p27
sg11
F4.25
sg12
F0.758
sg13
g14
sa(dp28
g2
S'ALA'
p29
sg4
I43360
sg5
F-14.04
sg6
F5.48
sg7
I01
sg8
F0.285
sg9
S'HB1'
p30
sg11
F1.352
sg12
F0.719
sg13
g21
sa(dp31
g2
g29
sg4
I43360
sg5
F-14.04
sg6
F5.48
sg7
I01
sg8
F0.285
sg9
S'HB2'
p32
sg11
F1.352
sg12
F0.719
sg13
g21
sa(dp33
g2
g29
sg4
I43360
sg5
F-14.04
sg6
F5.48
sg7
I01
sg8
F0.285
sg9
S'HB3'
p34
sg11
F1.352
sg12
F0.719
sg13
g21
sa(dp35
g2
S'ALA'
p36
sg4
I56493
sg5
F0.049
sg6
F766.0
sg7
I01
sg8
F6.449
sg9
S'N'
p37
sg11
F123.318
sg12
F0.936
sg13
g14
sa(dp38
g2
S'ARG'
p39
sg4
I24360
sg5
F0.174
sg6
F184.96
sg7
I01
sg8
F3.391
sg9
g10
sg11
F176.39
sg12
F0.607
sg13
g14
sa(dp40
g2
S'ARG'
p41
sg4
I34263
sg5
F8.369
sg6
F103.6
sg7
I01
sg8
F2.442
sg9
S'CA'
p42
sg11
F56.77
sg12
F0.854
sg13
g14
sa(dp43
g2
S'ARG'
p44
sg4
I32008
sg5
F17.736
sg6
F123.5
sg7
I01
sg8
F2.161
sg9
S'CB'
p45
sg11
F30.72
sg12
F0.798
sg13
g14
sa(dp46
g2
S'ARG'
p47
sg4
I21197
sg5
F18.935
sg6
F135.8
sg7
I01
sg8
F1.54
sg9
S'CD'
p48
sg11
F43.169
sg12
F0.528
sg13
g14
sa(dp49
g2
S'ARG'
p50
sg4
I20933
sg5
F12.17
sg6
F119.4
sg7
I01
sg8
F1.678
sg9
S'CG'
p51
sg11
F27.23
sg12
F0.522
sg13
g14
sa(dp52
g2
S'ARG'
p53
sg4
I566
sg5
F43.199
sg6
F181.474
sg7
I00
sg8
F6.468
sg9
S'CZ'
p54
sg11
F160.246
sg12
F0.014
sg13
g14
sa(dp55
g2
S'ARG'
p56
sg4
I40130
sg5
F0.011
sg6
F12.73
sg7
I01
sg8
F0.627
sg9
g24
sg11
F8.24
sg12
F1.0
sg13
g14
sa(dp57
g2
S'ARG'
p58
sg4
I31190
sg5
F1.212
sg6
F12.57
sg7
I01
sg8
F0.476
sg9
S'HA'
p59
sg11
F4.293
sg12
F0.777
sg13
g14
sa(dp60
g2
S'ARG'
p61
sg4
I28470
sg5
F-4.78
sg6
F27.53
sg7
I01
sg8
F0.323
sg9
S'HB2'
p62
sg11
F1.789
sg12
F0.709
sg13
S'geminal'
p63
sa(dp64
g2
S'ARG'
p65
sg4
I26878
sg5
F-1.126
sg6
F27.53
sg7
I01
sg8
F0.336
sg9
S'HB3'
p66
sg11
F1.756
sg12
F0.67
sg13
g63
sa(dp67
g2
S'ARG'
p68
sg4
I25181
sg5
F-6.44
sg6
F4.692
sg7
I01
sg8
F0.274
sg9
S'HD2'
p69
sg11
F3.106
sg12
F0.627
sg13
g63
sa(dp70
g2
S'ARG'
p71
sg4
I22830
sg5
F-0.69
sg6
F4.788
sg7
I01
sg8
F0.295
sg9
S'HD3'
p72
sg11
F3.089
sg12
F0.569
sg13
g63
sa(dp73
g2
S'ARG'
p74
sg4
I8731
sg5
F1.15
sg6
F116.661
sg7
I01
sg8
F3.158
sg9
S'HE'
p75
sg11
F7.469
sg12
F0.218
sg13
g14
sa(dp76
g2
S'ARG'
p77
sg4
I25624
sg5
F-1.45
sg6
F4.2
sg7
I01
sg8
F0.287
sg9
S'HG2'
p78
sg11
F1.558
sg12
F0.639
sg13
g63
sa(dp79
g2
S'ARG'
p80
sg4
I23633
sg5
F-1.298
sg6
F5.47
sg7
I01
sg8
F0.302
sg9
S'HG3'
p81
sg11
F1.537
sg12
F0.589
sg13
g63
sa(dp82
g2
S'ARG'
p83
sg4
I821
sg5
F4.41
sg6
F10.675
sg7
I00
sg8
F0.56
sg9
S'HH11'
p84
sg11
F6.915
sg12
F0.02
sg13
g63
sa(dp85
g2
S'ARG'
p86
sg4
I625
sg5
F4.41
sg6
F10.727
sg7
I00
sg8
F0.5
sg9
S'HH12'
p87
sg11
F6.846
sg12
F0.016
sg13
g63
sa(dp88
g2
S'ARG'
p89
sg4
I701
sg5
F1.233
sg6
F11.352
sg7
I00
sg8
F0.676
sg9
S'HH21'
p90
sg11
F6.801
sg12
F0.017
sg13
g63
sa(dp91
g2
S'ARG'
p92
sg4
I579
sg5
F1.233
sg6
F60.141
sg7
I00
sg8
F2.3
sg9
S'HH22'
p93
sg11
F6.877
sg12
F0.014
sg13
g63
sa(dp94
g2
S'ARG'
p95
sg4
I36557
sg5
F0.125
sg6
F177.669
sg7
I01
sg8
F4.197
sg9
g37
sg11
F120.758
sg12
F0.911
sg13
g14
sa(dp96
g2
S'ARG'
p97
sg4
I5550
sg5
F7.218
sg6
F149.108
sg7
I01
sg8
F13.498
sg9
S'NE'
p98
sg11
F90.604
sg12
F0.138
sg13
g14
sa(dp99
g2
S'ARG'
p100
sg4
I214
sg5
F67.6
sg6
F124.789
sg7
I00
sg8
F13.909
sg9
S'NH1'
p101
sg11
F79.911
sg12
F0.005
sg13
g63
sa(dp102
g2
S'ARG'
p103
sg4
I188
sg5
F66.2
sg6
F128.47
sg7
I00
sg8
F15.263
sg9
S'NH2'
p104
sg11
F79.555
sg12
F0.005
sg13
g63
sa(dp105
g2
S'ASN'
p106
sg4
I20665
sg5
F0.114
sg6
F185.3
sg7
I01
sg8
F3.259
sg9
g10
sg11
F175.235
sg12
F0.62
sg13
g14
sa(dp107
g2
S'ASN'
p108
sg4
I28933
sg5
F2.2
sg6
F99.0
sg7
I01
sg8
F1.989
sg9
S'CA'
p109
sg11
F53.538
sg12
F0.868
sg13
g14
sa(dp110
g2
S'ASN'
p111
sg4
I27479
sg5
F1.962
sg6
F99.0
sg7
I01
sg8
F2.026
sg9
S'CB'
p112
sg11
F38.702
sg12
F0.824
sg13
g14
sa(dp113
g2
S'ASN'
p114
sg4
I2125
sg5
F0.0
sg6
F183.8
sg7
I00
sg8
F7.175
sg9
S'CG'
p115
sg11
F176.396
sg12
F0.064
sg13
g14
sa(dp116
g2
S'ASN'
p117
sg4
I33343
sg5
F0.008
sg6
F448.0
sg7
I01
sg8
F2.572
sg9
g24
sg11
F8.349
sg12
F1.0
sg13
g14
sa(dp118
g2
S'ASN'
p119
sg4
I26049
sg5
F1.752
sg6
F7.11
sg7
I01
sg8
F0.367
sg9
S'HA'
p120
sg11
F4.663
sg12
F0.781
sg13
g14
sa(dp121
g2
S'ASN'
p122
sg4
I24527
sg5
F-0.773
sg6
F8.883
sg7
I01
sg8
F0.335
sg9
S'HB2'
p123
sg11
F2.801
sg12
F0.736
sg13
g63
sa(dp124
g2
S'ASN'
p125
sg4
I23670
sg5
F-0.948
sg6
F5.137
sg7
I01
sg8
F0.365
sg9
S'HB3'
p126
sg11
F2.744
sg12
F0.71
sg13
g63
sa(dp127
g2
S'ASN'
p128
sg4
I18777
sg5
F1.093
sg6
F111.32
sg7
I01
sg8
F0.916
sg9
S'HD21'
p129
sg11
F7.341
sg12
F0.563
sg13
g63
sa(dp130
g2
S'ASN'
p131
sg4
I18559
sg5
F1.467
sg6
F111.32
sg7
I01
sg8
F0.933
sg9
S'HD22'
p132
sg11
F7.148
sg12
F0.557
sg13
g63
sa(dp133
g2
S'ASN'
p134
sg4
I30667
sg5
F0.041
sg6
F208.9
sg7
I01
sg8
F4.415
sg9
g37
sg11
F118.896
sg12
F0.92
sg13
g14
sa(dp135
g2
S'ASN'
p136
sg4
I16081
sg5
F21.038
sg6
F1114.29
sg7
I01
sg8
F11.509
sg9
S'ND2'
p137
sg11
F112.891
sg12
F0.482
sg13
g14
sa(dp138
g2
S'ASP'
p139
sg4
I30364
sg5
F0.106
sg6
F184.14
sg7
I01
sg8
F3.83
sg9
g10
sg11
F176.355
sg12
F0.633
sg13
g14
sa(dp140
g2
S'ASP'
p141
sg4
I41897
sg5
F5.63
sg6
F118.9
sg7
I01
sg8
F2.157
sg9
S'CA'
p142
sg11
F54.681
sg12
F0.874
sg13
g14
sa(dp143
g2
S'ASP'
p144
sg4
I39754
sg5
F9.7
sg6
F180.89
sg7
I01
sg8
F2.032
sg9
S'CB'
p145
sg11
F40.891
sg12
F0.829
sg13
g14
sa(dp146
g2
S'ASP'
p147
sg4
I727
sg5
F2.637
sg6
F186.5
sg7
I00
sg8
F16.577
sg9
S'CG'
p148
sg11
F177.607
sg12
F0.015
sg13
g14
sa(dp149
g2
S'ASP'
p150
sg4
I47956
sg5
F-0.35
sg6
F17.5
sg7
I01
sg8
F0.6
sg9
g24
sg11
F8.304
sg12
F1.0
sg13
g14
sa(dp151
g2
S'ASP'
p152
sg4
I36349
sg5
F-3.75
sg6
F8.66
sg7
I01
sg8
F0.33
sg9
S'HA'
p153
sg11
F4.589
sg12
F0.758
sg13
g14
sa(dp154
g2
S'ASP'
p155
sg4
I34073
sg5
F-5.2
sg6
F37.4
sg7
I01
sg8
F0.561
sg9
S'HB2'
p156
sg11
F2.721
sg12
F0.711
sg13
g63
sa(dp157
g2
S'ASP'
p158
sg4
I32689
sg5
F-1.46
sg6
F37.2
sg7
I01
sg8
F0.568
sg9
S'HB3'
p159
sg11
F2.67
sg12
F0.682
sg13
g63
sa(dp160
g2
S'ASP'
p161
sg4
I9
sg5
F1.16
sg6
F12.3
sg7
I00
sg8
F3.631
sg9
S'HD2'
p162
sg11
F5.308
sg12
F0.0
sg13
g14
sa(dp163
g2
S'ASP'
p164
sg4
I45266
sg5
F0.061
sg6
F223.7
sg7
I01
sg8
F4.464
sg9
g37
sg11
F120.648
sg12
F0.944
sg13
g14
sa(dp165
g2
S'CYS'
p166
sg4
I8181
sg5
F1.0
sg6
F187.591
sg7
I01
sg8
F3.529
sg9
g10
sg11
F174.843
sg12
F0.472
sg13
g14
sa(dp167
g2
S'CYS'
p168
sg4
I11954
sg5
F30.6688
sg6
F82.3
sg7
I01
sg8
F3.403
sg9
S'CA'
p169
sg11
F58.107
sg12
F0.69
sg13
g14
sa(dp170
g2
S'CYS'
p171
sg4
I11347
sg5
F17.99
sg6
F73.92
sg7
I01
sg8
F6.348
sg9
S'CB'
p172
sg11
F33.117
sg12
F0.655
sg13
g14
sa(dp173
g2
S'CYS'
p174
sg4
I17331
sg5
F3.723
sg6
F12.395
sg7
I01
sg8
F0.7
sg9
g24
sg11
F8.378
sg12
F1.0
sg13
g14
sa(dp175
g2
S'CYS'
p176
sg4
I15042
sg5
F-9.858
sg6
F43.5
sg7
I01
sg8
F1.068
sg9
S'HA'
p177
sg11
F4.685
sg12
F0.868
sg13
g14
sa(dp178
g2
S'CYS'
p179
sg4
I14553
sg5
F-39.82
sg6
F363.58
sg7
I01
sg8
F7.196
sg9
S'HB2'
p180
sg11
F3.188
sg12
F0.84
sg13
g63
sa(dp181
g2
S'CYS'
p182
sg4
I14186
sg5
F-44.2
sg6
F363.58
sg7
I01
sg8
F6.522
sg9
S'HB3'
p183
sg11
F3.104
sg12
F0.819
sg13
g63
sa(dp184
g2
S'CYS'
p185
sg4
I166
sg5
F0.1
sg6
F10.7
sg7
I00
sg8
F1.47
sg9
S'HG'
p186
sg11
F2.099
sg12
F0.01
sg13
g14
sa(dp187
g2
S'CYS'
p188
sg4
I13164
sg5
F-147.0
sg6
F628.0
sg7
I01
sg8
F21.65
sg9
g37
sg11
F120.563
sg12
F0.76
sg13
g14
sa(dp189
g2
S'GLN'
p190
sg4
I21300
sg5
F0.069
sg6
F1755.998
sg7
I01
sg8
F11.294
sg9
g10
sg11
F176.381
sg12
F0.64
sg13
g14
sa(dp191
g2
S'GLN'
p192
sg4
I29520
sg5
F4.1
sg6
F69.63
sg7
I01
sg8
F2.184
sg9
S'CA'
p193
sg11
F56.593
sg12
F0.887
sg13
g14
sa(dp194
g2
S'GLN'
p195
sg4
I27695
sg5
F17.41
sg6
F79.68
sg7
I01
sg8
F2.091
sg9
S'CB'
p196
sg11
F29.211
sg12
F0.832
sg13
g14
sa(dp197
g2
S'GLN'
p198
sg4
I2022
sg5
F6.789
sg6
F183.54
sg7
I00
sg8
F7.944
sg9
S'CD'
p199
sg11
F179.252
sg12
F0.061
sg13
g14
sa(dp200
g2
S'GLN'
p201
sg4
I19117
sg5
F2.285
sg6
F178.318
sg7
I01
sg8
F1.829
sg9
S'CG'
p202
sg11
F33.783
sg12
F0.574
sg13
g14
sa(dp203
g2
S'GLN'
p204
sg4
I33299
sg5
F0.006
sg6
F66.542
sg7
I01
sg8
F0.684
sg9
g24
sg11
F8.218
sg12
F1.0
sg13
g14
sa(dp205
g2
S'GLN'
p206
sg4
I25740
sg5
F1.567
sg6
F7.43
sg7
I01
sg8
F0.439
sg9
S'HA'
p207
sg11
F4.268
sg12
F0.773
sg13
g14
sa(dp208
g2
S'GLN'
p209
sg4
I23494
sg5
F-1.34
sg6
F5.18
sg7
I01
sg8
F0.273
sg9
S'HB2'
p210
sg11
F2.042
sg12
F0.706
sg13
g63
sa(dp211
g2
S'GLN'
p212
sg4
I22302
sg5
F-1.42
sg6
F20.9
sg7
I01
sg8
F0.317
sg9
S'HB3'
p213
sg11
F2.012
sg12
F0.67
sg13
g63
sa(dp214
g2
S'GLN'
p215
sg4
I16963
sg5
F-3.41
sg6
F23.893
sg7
I01
sg8
F0.508
sg9
S'HE21'
p216
sg11
F7.212
sg12
F0.509
sg13
g63
sa(dp217
g2
S'GLN'
p218
sg4
I16868
sg5
F2.1
sg6
F113.695
sg7
I01
sg8
F0.96
sg9
S'HE22'
p219
sg11
F7.04
sg12
F0.507
sg13
g63
sa(dp220
g2
S'GLN'
p221
sg4
I22128
sg5
F-1.76
sg6
F33.599
sg7
I01
sg8
F0.351
sg9
S'HG2'
p222
sg11
F2.312
sg12
F0.665
sg13
g63
sa(dp223
g2
S'GLN'
p224
sg4
I20418
sg5
F-1.395
sg6
F34.946
sg7
I01
sg8
F0.38
sg9
S'HG3'
p225
sg11
F2.29
sg12
F0.613
sg13
g63
sa(dp226
g2
S'GLN'
p227
sg4
I31370
sg5
F0.079
sg6
F216.5
sg7
I01
sg8
F3.968
sg9
g37
sg11
F119.871
sg12
F0.942
sg13
g14
sa(dp228
g2
S'GLN'
p229
sg4
I15151
sg5
F33.9
sg6
F155.0
sg7
I01
sg8
F2.146
sg9
S'NE2'
p230
sg11
F111.86
sg12
F0.455
sg13
g14
sa(dp231
g2
S'GLU'
p232
sg4
I40322
sg5
F0.074
sg6
F184.71
sg7
I01
sg8
F3.992
sg9
g10
sg11
F176.817
sg12
F0.649
sg13
g14
sa(dp233
g2
S'GLU'
p234
sg4
I54861
sg5
F3.77
sg6
F87.152
sg7
I01
sg8
F2.175
sg9
S'CA'
p235
sg11
F57.322
sg12
F0.883
sg13
g14
sa(dp236
g2
S'GLU'
p237
sg4
I51286
sg5
F9.08
sg6
F181.95
sg7
I01
sg8
F2.138
sg9
S'CB'
p238
sg11
F30.027
sg12
F0.825
sg13
g14
sa(dp239
g2
S'GLU'
p240
sg4
I751
sg5
F0.0
sg6
F198.609
sg7
I00
sg8
F11.754
sg9
S'CD'
p241
sg11
F181.333
sg12
F0.012
sg13
g14
sa(dp242
g2
S'GLU'
p243
sg4
I35173
sg5
F6.16
sg6
F181.2
sg7
I01
sg8
F1.784
sg9
S'CG'
p244
sg11
F36.116
sg12
F0.566
sg13
g14
sa(dp245
g2
S'GLU'
p246
sg4
I62155
sg5
F0.008
sg6
F64.682
sg7
I01
sg8
F0.687
sg9
g24
sg11
F8.332
sg12
F1.0
sg13
g14
sa(dp247
g2
S'GLU'
p248
sg4
I47447
sg5
F0.433
sg6
F31.32
sg7
I01
sg8
F0.437
sg9
S'HA'
p249
sg11
F4.247
sg12
F0.763
sg13
g14
sa(dp250
g2
S'GLU'
p251
sg4
I43261
sg5
F-1.47
sg6
F4.82
sg7
I01
sg8
F0.224
sg9
S'HB2'
p252
sg11
F2.019
sg12
F0.696
sg13
g63
sa(dp253
g2
S'GLU'
p254
sg4
I40587
sg5
F-1.633
sg6
F4.08
sg7
I01
sg8
F0.232
sg9
S'HB3'
p255
sg11
F1.994
sg12
F0.653
sg13
g63
sa(dp256
g2
S'GLU'
p257
sg4
I5
sg5
F2.727
sg6
F11.96
sg7
I00
sg8
F3.299
sg9
S'HE2'
p258
sg11
F7.171
sg12
F0.0
sg13
g14
sa(dp259
g2
S'GLU'
p260
sg4
I40309
sg5
F-0.674
sg6
F4.69
sg7
I01
sg8
F0.224
sg9
S'HG2'
p261
sg11
F2.265
sg12
F0.649
sg13
g63
sa(dp262
g2
S'GLU'
p263
sg4
I37364
sg5
F-0.1
sg6
F4.69
sg7
I01
sg8
F0.228
sg9
S'HG3'
p264
sg11
F2.244
sg12
F0.601
sg13
g63
sa(dp265
g2
S'GLU'
p266
sg4
I59032
sg5
F0.044
sg6
F429.0
sg7
I01
sg8
F4.382
sg9
g37
sg11
F120.672
sg12
F0.95
sg13
g14
sa(dp267
g2
S'GLY'
p268
sg4
I37674
sg5
F1.0
sg6
F189.533
sg7
I01
sg8
F3.967
sg9
g10
sg11
F173.825
sg12
F0.629
sg13
g14
sa(dp269
g2
S'GLY'
p270
sg4
I52443
sg5
F2.2
sg6
F108.3
sg7
I01
sg8
F1.624
sg9
S'CA'
p271
sg11
F45.377
sg12
F0.876
sg13
g14
sa(dp272
g2
S'GLY'
p273
sg4
I59854
sg5
F-15.3
sg6
F112.83
sg7
I01
sg8
F0.929
sg9
g24
sg11
F8.332
sg12
F1.0
sg13
g14
sa(dp274
g2
S'GLY'
p275
sg4
I45419
sg5
F-3.4
sg6
F8.64
sg7
I01
sg8
F0.4
sg9
S'HA2'
p276
sg11
F3.963
sg12
F0.759
sg13
g63
sa(dp277
g2
S'GLY'
p278
sg4
I43279
sg5
F-3.4
sg6
F7.69
sg7
I01
sg8
F0.414
sg9
S'HA3'
p279
sg11
F3.891
sg12
F0.723
sg13
g63
sa(dp280
g2
S'GLY'
p281
sg4
I55256
sg5
F0.2
sg6
F791.0
sg7
I01
sg8
F7.858
sg9
g37
sg11
F109.762
sg12
F0.923
sg13
g14
sa(dp282
g2
S'HIS'
p283
sg4
I10830
sg5
F1.0
sg6
F184.204
sg7
I01
sg8
F4.876
sg9
g10
sg11
F175.11
sg12
F0.618
sg13
g14
sa(dp284
g2
S'HIS'
p285
sg4
I15550
sg5
F11.4
sg6
F176.9
sg7
I01
sg8
F2.8
sg9
S'CA'
p286
sg11
F56.521
sg12
F0.888
sg13
g14
sa(dp287
g2
S'HIS'
p288
sg4
I14662
sg5
F17.8
sg6
F80.78
sg7
I01
sg8
F2.418
sg9
S'CB'
p289
sg11
F30.294
sg12
F0.837
sg13
g14
sa(dp290
g2
S'HIS'
p291
sg4
I5908
sg5
F7.19
sg6
F159.946
sg7
I01
sg8
F5.929
sg9
S'CD2'
p292
sg11
F119.917
sg12
F0.337
sg13
S'aroma'
p293
sa(dp294
g2
S'HIS'
p295
sg4
I4641
sg5
F8.27
sg6
F166.282
sg7
I01
sg8
F5.448
sg9
S'CE1'
p296
sg11
F137.278
sg12
F0.265
sg13
g293
sa(dp297
g2
S'HIS'
p298
sg4
I169
sg5
F60.973
sg6
F139.83
sg7
I00
sg8
F8.018
sg9
S'CG'
p299
sg11
F131.214
sg12
F0.01
sg13
g293
sa(dp300
g2
S'HIS'
p301
sg4
I17517
sg5
F-0.3
sg6
F13.34
sg7
I01
sg8
F0.746
sg9
g24
sg11
F8.261
sg12
F1.0
sg13
g14
sa(dp302
g2
S'HIS'
p303
sg4
I13920
sg5
F0.676
sg6
F30.68
sg7
I01
sg8
F0.614
sg9
S'HA'
p304
sg11
F4.62
sg12
F0.795
sg13
g14
sa(dp305
g2
S'HIS'
p306
sg4
I13026
sg5
F-0.049
sg6
F45.897
sg7
I01
sg8
F1.199
sg9
S'HB2'
p307
sg11
F3.175
sg12
F0.744
sg13
g63
sa(dp308
g2
S'HIS'
p309
sg4
I12659
sg5
F-6.2
sg6
F38.5
sg7
I01
sg8
F1.141
sg9
S'HB3'
p310
sg11
F3.107
sg12
F0.723
sg13
g63
sa(dp311
g2
S'HIS'
p312
sg4
I841
sg5
F-15.0
sg6
F86.5
sg7
I00
sg8
F9.354
sg9
S'HD1'
p313
sg11
F10.356
sg12
F0.048
sg13
g293
sa(dp314
g2
S'HIS'
p315
sg4
I9406
sg5
F-25.85
sg6
F67.8
sg7
I01
sg8
F3.606
sg9
S'HD2'
p316
sg11
F7.201
sg12
F0.537
sg13
g293
sa(dp317
g2
S'HIS'
p318
sg4
I7460
sg5
F-26.6
sg6
F43.8
sg7
I01
sg8
F2.35
sg9
S'HE1'
p319
sg11
F7.809
sg12
F0.426
sg13
g293
sa(dp320
g2
S'HIS'
p321
sg4
I325
sg5
F-15.0
sg6
F76.4
sg7
I00
sg8
F8.532
sg9
S'HE2'
p322
sg11
F11.407
sg12
F0.019
sg13
g293
sa(dp323
g2
S'HIS'
p324
sg4
I16062
sg5
F0.2
sg6
F159.135
sg7
I01
sg8
F4.8
sg9
g37
sg11
F119.637
sg12
F0.917
sg13
g14
sa(dp325
g2
S'HIS'
p326
sg4
I642
sg5
F64.9
sg6
F261.013
sg7
I00
sg8
F33.59
sg9
S'ND1'
p327
sg11
F193.065
sg12
F0.037
sg13
g293
sa(dp328
g2
S'HIS'
p329
sg4
I601
sg5
F17.0
sg6
F257.572
sg7
I00
sg8
F21.09
sg9
S'NE2'
p330
sg11
F180.661
sg12
F0.034
sg13
g293
sa(dp331
g2
S'ILE'
p332
sg4
I26908
sg5
F0.087
sg6
F187.551
sg7
I01
sg8
F4.584
sg9
g10
sg11
F175.791
sg12
F0.642
sg13
g14
sa(dp333
g2
S'ILE'
p334
sg4
I37083
sg5
F30.9
sg6
F77.93
sg7
I01
sg8
F2.747
sg9
S'CA'
p335
sg11
F61.61
sg12
F0.884
sg13
g14
sa(dp336
g2
S'ILE'
p337
sg4
I34833
sg5
F18.1
sg6
F87.68
sg7
I01
sg8
F2.206
sg9
S'CB'
p338
sg11
F38.605
sg12
F0.831
sg13
g14
sa(dp339
g2
S'ILE'
p340
sg4
I25751
sg5
F2.7
sg6
F79.337
sg7
I01
sg8
F2.418
sg9
S'CD1'
p341
sg11
F13.476
sg12
F0.614
sg13
g21
sa(dp342
g2
S'ILE'
p343
sg4
I23803
sg5
F8.0
sg6
F74.78
sg7
I01
sg8
F2.033
sg9
S'CG1'
p344
sg11
F27.705
sg12
F0.568
sg13
g14
sa(dp345
g2
S'ILE'
p346
sg4
I25321
sg5
F0.79
sg6
F114.15
sg7
I01
sg8
F1.981
sg9
S'CG2'
p347
sg11
F17.56
sg12
F0.604
sg13
g21
sa(dp348
g2
S'ILE'
p349
sg4
I41937
sg5
F0.008
sg6
F174.747
sg7
I01
sg8
F1.073
sg9
g24
sg11
F8.271
sg12
F1.0
sg13
g14
sa(dp350
g2
S'ILE'
p351
sg4
I32043
sg5
F-9.0
sg6
F173.538
sg7
I01
sg8
F1.105
sg9
S'HA'
p352
sg11
F4.178
sg12
F0.764
sg13
g14
sa(dp353
g2
S'ILE'
p354
sg4
I30277
sg5
F-2.442
sg6
F38.7
sg7
I01
sg8
F0.426
sg9
S'HB'
p355
sg11
F1.781
sg12
F0.722
sg13
g14
sa(dp356
g2
S'ILE'
p357
sg4
I27626
sg5
F-10.1
sg6
F5.56
sg7
I01
sg8
F0.468
sg9
S'HG12'
p358
sg11
F1.261
sg12
F0.659
sg13
g63
sa(dp359
g2
S'ILE'
p360
sg4
I26587
sg5
F-10.1
sg6
F9.71
sg7
I01
sg8
F0.503
sg9
S'HG13'
p361
sg11
F1.188
sg12
F0.634
sg13
g63
sa(dp362
g2
S'ILE'
p363
sg4
I29445
sg5
F-4.15
sg6
F13.891
sg7
I01
sg8
F0.347
sg9
S'HD11'
p364
sg11
F0.668
sg12
F0.702
sg13
g21
sa(dp365
g2
g363
sg4
I29445
sg5
F-4.15
sg6
F13.891
sg7
I01
sg8
F0.347
sg9
S'HD12'
p366
sg11
F0.668
sg12
F0.702
sg13
g21
sa(dp367
g2
g363
sg4
I29445
sg5
F-4.15
sg6
F13.891
sg7
I01
sg8
F0.347
sg9
S'HD13'
p368
sg11
F0.668
sg12
F0.702
sg13
g21
sa(dp369
g2
S'ILE'
p370
sg4
I28924
sg5
F-3.62
sg6
F6.23
sg7
I01
sg8
F0.313
sg9
S'HG21'
p371
sg11
F0.767
sg12
F0.69
sg13
g21
sa(dp372
g2
g370
sg4
I28924
sg5
F-3.62
sg6
F6.23
sg7
I01
sg8
F0.313
sg9
S'HG22'
p373
sg11
F0.767
sg12
F0.69
sg13
g21
sa(dp374
g2
g370
sg4
I28924
sg5
F-3.62
sg6
F6.23
sg7
I01
sg8
F0.313
sg9
S'HG23'
p375
sg11
F0.767
sg12
F0.69
sg13
g21
sa(dp376
g2
S'ILE'
p377
sg4
I39554
sg5
F0.0
sg6
F531.0
sg7
I01
sg8
F6.201
sg9
g37
sg11
F121.435
sg12
F0.943
sg13
g14
sa(dp378
g2
S'LEU'
p379
sg4
I44207
sg5
F0.071
sg6
F189.78
sg7
I01
sg8
F3.65
sg9
g10
sg11
F176.977
sg12
F0.639
sg13
g14
sa(dp380
g2
S'LEU'
p381
sg4
I60917
sg5
F14.371
sg6
F158.32
sg7
I01
sg8
F2.255
sg9
S'CA'
p382
sg11
F55.646
sg12
F0.88
sg13
g14
sa(dp383
g2
S'LEU'
p384
sg4
I57258
sg5
F16.38
sg6
F93.18
sg7
I01
sg8
F2.039
sg9
S'CB'
p385
sg11
F42.289
sg12
F0.827
sg13
g14
sa(dp386
g2
S'LEU'
p387
sg4
I40990
sg5
F0.683
sg6
F120.7
sg7
I01
sg8
F2.028
sg9
S'CD1'
p388
sg11
F24.704
sg12
F0.592
sg13
S'methyl-geminal'
p389
sa(dp390
g2
S'LEU'
p391
sg4
I39113
sg5
F0.28
sg6
F116.3
sg7
I01
sg8
F2.109
sg9
S'CD2'
p392
sg11
F24.103
sg12
F0.565
sg13
g389
sa(dp393
g2
S'LEU'
p394
sg4
I36918
sg5
F15.3
sg6
F75.28
sg7
I01
sg8
F1.521
sg9
S'CG'
p395
sg11
F26.809
sg12
F0.534
sg13
g14
sa(dp396
g2
S'LEU'
p397
sg4
I69195
sg5
F-0.3
sg6
F125.18
sg7
I01
sg8
F0.795
sg9
g24
sg11
F8.225
sg12
F1.0
sg13
g14
sa(dp398
g2
S'LEU'
p399
sg4
I52733
sg5
F0.507
sg6
F119.411
sg7
I01
sg8
F0.691
sg9
S'HA'
p400
sg11
F4.31
sg12
F0.762
sg13
g14
sa(dp401
g2
S'LEU'
p402
sg4
I48651
sg5
F-1.522
sg6
F8.02
sg7
I01
sg8
F0.366
sg9
S'HB2'
p403
sg11
F1.607
sg12
F0.703
sg13
g63
sa(dp404
g2
S'LEU'
p405
sg4
I46600
sg5
F-1.79
sg6
F8.39
sg7
I01
sg8
F0.382
sg9
S'HB3'
p406
sg11
F1.518
sg12
F0.673
sg13
g63
sa(dp407
g2
S'LEU'
p408
sg4
I43475
sg5
F-2.08
sg6
F5.7
sg7
I01
sg8
F0.346
sg9
S'HG'
p409
sg11
F1.503
sg12
F0.628
sg13
g14
sa(dp410
g2
S'LEU'
p411
sg4
I48387
sg5
F-3.42
sg6
F30.176
sg7
I01
sg8
F0.345
sg9
S'HD11'
p412
sg11
F0.747
sg12
F0.699
sg13
g389
sa(dp413
g2
g411
sg4
I48387
sg5
F-3.42
sg6
F30.176
sg7
I01
sg8
F0.345
sg9
S'HD12'
p414
sg11
F0.747
sg12
F0.699
sg13
g389
sa(dp415
g2
g411
sg4
I48387
sg5
F-3.42
sg6
F30.176
sg7
I01
sg8
F0.345
sg9
S'HD13'
p416
sg11
F0.747
sg12
F0.699
sg13
g389
sa(dp417
g2
S'LEU'
p418
sg4
I46555
sg5
F-3.42
sg6
F24.504
sg7
I01
sg8
F0.374
sg9
S'HD21'
p419
sg11
F0.725
sg12
F0.673
sg13
g389
sa(dp420
g2
g418
sg4
I46555
sg5
F-3.42
sg6
F24.504
sg7
I01
sg8
F0.374
sg9
S'HD22'
p421
sg11
F0.725
sg12
F0.673
sg13
g389
sa(dp422
g2
g418
sg4
I46555
sg5
F-3.42
sg6
F24.504
sg7
I01
sg8
F0.374
sg9
S'HD23'
p423
sg11
F0.725
sg12
F0.673
sg13
g389
sa(dp424
g2
S'LEU'
p425
sg4
I64938
sg5
F0.044
sg6
F627.0
sg7
I01
sg8
F8.978
sg9
g37
sg11
F122.003
sg12
F0.938
sg13
g14
sa(dp426
g2
S'LYS'
p427
sg4
I36173
sg5
F0.112
sg6
F996.253
sg7
I01
sg8
F6.358
sg9
g10
sg11
F176.591
sg12
F0.614
sg13
g14
sa(dp428
g2
S'LYS'
p429
sg4
I50111
sg5
F22.02
sg6
F86.716
sg7
I01
sg8
F2.272
sg9
S'CA'
p430
sg11
F56.935
sg12
F0.851
sg13
g14
sa(dp431
g2
S'LYS'
p432
sg4
I46864
sg5
F-26.686
sg6
F229.2
sg7
I01
sg8
F2.227
sg9
S'CB'
p433
sg11
F32.81
sg12
F0.796
sg13
g14
sa(dp434
g2
S'LYS'
p435
sg4
I29403
sg5
F15.366
sg6
F77.48
sg7
I01
sg8
F1.507
sg9
S'CD'
p436
sg11
F28.969
sg12
F0.499
sg13
g14
sa(dp437
g2
S'LYS'
p438
sg4
I28495
sg5
F12.027
sg6
F89.98
sg7
I01
sg8
F1.451
sg9
S'CE'
p439
sg11
F41.896
sg12
F0.484
sg13
g14
sa(dp440
g2
S'LYS'
p441
sg4
I31094
sg5
F2.9
sg6
F77.38
sg7
I01
sg8
F1.615
sg9
S'CG'
p442
sg11
F24.918
sg12
F0.528
sg13
g14
sa(dp443
g2
S'LYS'
p444
sg4
I58906
sg5
F0.002
sg6
F64.423
sg7
I01
sg8
F0.664
sg9
g24
sg11
F8.178
sg12
F1.0
sg13
g14
sa(dp445
g2
S'LYS'
p446
sg4
I45467
sg5
F0.265
sg6
F32.65
sg7
I01
sg8
F0.466
sg9
S'HA'
p447
sg11
F4.264
sg12
F0.772
sg13
g14
sa(dp448
g2
S'LYS'
p449
sg4
I41062
sg5
F-1.416
sg6
F35.97
sg7
I01
sg8
F0.319
sg9
S'HB2'
p450
sg11
F1.774
sg12
F0.697
sg13
g63
sa(dp451
g2
S'LYS'
p452
sg4
I38519
sg5
F-1.404
sg6
F35.97
sg7
I01
sg8
F0.334
sg9
S'HB3'
p453
sg11
F1.744
sg12
F0.654
sg13
g63
sa(dp454
g2
S'LYS'
p455
sg4
I33176
sg5
F-1.68
sg6
F119.62
sg7
I01
sg8
F0.751
sg9
S'HD2'
p456
sg11
F1.609
sg12
F0.563
sg13
g63
sa(dp457
g2
S'LYS'
p458
sg4
I29506
sg5
F-2.02
sg6
F41.68
sg7
I01
sg8
F0.369
sg9
S'HD3'
p459
sg11
F1.595
sg12
F0.501
sg13
g63
sa(dp460
g2
S'LYS'
p461
sg4
I32694
sg5
F-0.493
sg6
F8.371
sg7
I01
sg8
F0.217
sg9
S'HE2'
p462
sg11
F2.91
sg12
F0.555
sg13
g63
sa(dp463
g2
S'LYS'
p464
sg4
I28496
sg5
F-0.046
sg6
F6.83
sg7
I01
sg8
F0.223
sg9
S'HE3'
p465
sg11
F2.903
sg12
F0.484
sg13
g63
sa(dp466
g2
S'LYS'
p467
sg4
I37233
sg5
F-1.447
sg6
F29.88
sg7
I01
sg8
F0.312
sg9
S'HG2'
p468
sg11
F1.364
sg12
F0.632
sg13
g63
sa(dp469
g2
S'LYS'
p470
sg4
I34123
sg5
F-1.83
sg6
F29.88
sg7
I01
sg8
F0.326
sg9
S'HG3'
p471
sg11
F1.348
sg12
F0.579
sg13
g63
sa(dp472
g2
S'LYS'
p473
sg4
I54081
sg5
F0.041
sg6
F217.0
sg7
I01
sg8
F4.225
sg9
g37
sg11
F121.023
sg12
F0.918
sg13
g14
sa(dp474
g2
S'LYS'
p475
sg4
I208
sg5
F1.95
sg6
F177.2
sg7
I00
sg8
F30.664
sg9
S'NZ'
p476
sg11
F48.135
sg12
F0.004
sg13
g14
sa(dp477
g2
S'LYS'
p478
sg4
I1284
sg5
F-10.9
sg6
F10.506
sg7
I00
sg8
F1.147
sg9
S'HZ1'
p479
sg11
F7.313
sg12
F0.022
sg13
g63
sa(dp480
g2
g478
sg4
I1284
sg5
F-10.9
sg6
F10.506
sg7
I00
sg8
F1.147
sg9
S'HZ2'
p481
sg11
F7.313
sg12
F0.022
sg13
g63
sa(dp482
g2
S'MET'
p483
sg4
I10752
sg5
F2.2
sg6
F183.25
sg7
I01
sg8
F3.854
sg9
g10
sg11
F176.138
sg12
F0.657
sg13
g14
sa(dp484
g2
S'MET'
p485
sg4
I15138
sg5
F4.37
sg6
F85.327
sg7
I01
sg8
F2.338
sg9
S'CA'
p486
sg11
F56.129
sg12
F0.925
sg13
g14
sa(dp487
g2
S'MET'
p488
sg4
I14032
sg5
F0.2
sg6
F83.38
sg7
I01
sg8
F2.508
sg9
S'CB'
p489
sg11
F32.988
sg12
F0.857
sg13
g14
sa(dp490
g2
S'MET'
p491
sg4
I7031
sg5
F8.9
sg6
F88.2
sg7
I01
sg8
F2.736
sg9
S'CE'
p492
sg11
F17.206
sg12
F0.429
sg13
g21
sa(dp493
g2
S'MET'
p494
sg4
I9038
sg5
F2.3
sg6
F81.18
sg7
I01
sg8
F1.706
sg9
S'CG'
p495
sg11
F32.046
sg12
F0.552
sg13
g14
sa(dp496
g2
S'MET'
p497
sg4
I16373
sg5
F-0.21
sg6
F19.9722
sg7
I01
sg8
F0.625
sg9
g24
sg11
F8.26
sg12
F1.0
sg13
g14
sa(dp498
g2
S'MET'
p499
sg4
I12988
sg5
F-0.93
sg6
F313.565
sg7
I01
sg8
F2.756
sg9
S'HA'
p500
sg11
F4.423
sg12
F0.793
sg13
g14
sa(dp501
g2
S'MET'
p502
sg4
I11698
sg5
F-27.312
sg6
F33.75
sg7
I01
sg8
F0.632
sg9
S'HB2'
p503
sg11
F2.021
sg12
F0.714
sg13
g63
sa(dp504
g2
S'MET'
p505
sg4
I11022
sg5
F-27.312
sg6
F12.94
sg7
I01
sg8
F0.563
sg9
S'HB3'
p506
sg11
F1.99
sg12
F0.673
sg13
g63
sa(dp507
g2
S'MET'
p508
sg4
I10823
sg5
F-33.86
sg6
F32.7
sg7
I01
sg8
F1.633
sg9
S'HG2'
p509
sg11
F2.368
sg12
F0.661
sg13
g63
sa(dp510
g2
S'MET'
p511
sg4
I10200
sg5
F-33.86
sg6
F31.7
sg7
I01
sg8
F1.763
sg9
S'HG3'
p512
sg11
F2.338
sg12
F0.623
sg13
g63
sa(dp513
g2
S'MET'
p514
sg4
I7978
sg5
F-24.86
sg6
F10.2
sg7
I01
sg8
F1.786
sg9
S'HE1'
p515
sg11
F1.733
sg12
F0.487
sg13
g21
sa(dp516
g2
g514
sg4
I7978
sg5
F-24.86
sg6
F10.2
sg7
I01
sg8
F1.786
sg9
S'HE2'
p517
sg11
F1.733
sg12
F0.487
sg13
g21
sa(dp518
g2
g514
sg4
I7978
sg5
F-24.86
sg6
F10.2
sg7
I01
sg8
F1.786
sg9
S'HE3'
p519
sg11
F1.733
sg12
F0.487
sg13
g21
sa(dp520
g2
S'MET'
p521
sg4
I15555
sg5
F0.2
sg6
F222.5
sg7
I01
sg8
F4.873
sg9
g37
sg11
F120.064
sg12
F0.95
sg13
g14
sa(dp522
g2
S'PHE'
p523
sg4
I18932
sg5
F0.088
sg6
F184.929
sg7
I01
sg8
F3.422
sg9
g10
sg11
F175.439
sg12
F0.631
sg13
g14
sa(dp524
g2
S'PHE'
p525
sg4
I26056
sg5
F4.917
sg6
F73.43
sg7
I01
sg8
F2.653
sg9
S'CA'
p526
sg11
F58.109
sg12
F0.868
sg13
g14
sa(dp527
g2
S'PHE'
p528
sg4
I24594
sg5
F21.4
sg6
F137.0
sg7
I01
sg8
F2.348
sg9
S'CB'
p529
sg11
F39.978
sg12
F0.819
sg13
g14
sa(dp530
g2
S'PHE'
p531
sg4
I10505
sg5
F7.16
sg6
F731.37
sg7
I01
sg8
F7.418
sg9
S'CD1'
p532
sg11
F131.374
sg12
F0.35
sg13
S'aroma-opposite'
p533
sa(dp534
g2
S'PHE'
p535
sg4
I7641
sg5
F7.16
sg6
F731.37
sg7
I01
sg8
F8.32
sg9
S'CD2'
p536
sg11
F131.393
sg12
F0.255
sg13
g533
sa(dp537
g2
S'PHE'
p538
sg4
I9190
sg5
F0.0
sg6
F144.992
sg7
I01
sg8
F4.353
sg9
S'CE1'
p539
sg11
F130.467
sg12
F0.306
sg13
g533
sa(dp540
g2
S'PHE'
p541
sg4
I6691
sg5
F7.472
sg6
F139.7
sg7
I01
sg8
F3.899
sg9
S'CE2'
p542
sg11
F130.538
sg12
F0.223
sg13
g533
sa(dp543
g2
S'PHE'
p544
sg4
I286
sg5
F7.229
sg6
F152.844
sg7
I00
sg8
F12.244
sg9
S'CG'
p545
sg11
F137.226
sg12
F0.01
sg13
g293
sa(dp546
g2
S'PHE'
p547
sg4
I7065
sg5
F7.351
sg6
F138.6
sg7
I01
sg8
F3.754
sg9
S'CZ'
p548
sg11
F129.041
sg12
F0.235
sg13
g293
sa(dp549
g2
S'PHE'
p550
sg4
I30015
sg5
F-0.5
sg6
F175.066
sg7
I01
sg8
F1.212
sg9
g24
sg11
F8.349
sg12
F1.0
sg13
g14
sa(dp551
g2
S'PHE'
p552
sg4
I22810
sg5
F1.45
sg6
F59.7
sg7
I01
sg8
F0.684
sg9
S'HA'
p553
sg11
F4.621
sg12
F0.76
sg13
g14
sa(dp554
g2
S'PHE'
p555
sg4
I21407
sg5
F0.159
sg6
F7.979
sg7
I01
sg8
F0.385
sg9
S'HB2'
p556
sg11
F2.99
sg12
F0.713
sg13
g63
sa(dp557
g2
S'PHE'
p558
sg4
I20858
sg5
F-0.212
sg6
F12.72
sg7
I01
sg8
F0.408
sg9
S'HB3'
p559
sg11
F2.931
sg12
F0.695
sg13
g63
sa(dp560
g2
S'PHE'
p561
sg4
I18211
sg5
F0.603
sg6
F12.154
sg7
I01
sg8
F0.417
sg9
S'HD1'
p562
sg11
F7.034
sg12
F0.607
sg13
g533
sa(dp563
g2
S'PHE'
p564
sg4
I15323
sg5
F0.603
sg6
F12.154
sg7
I01
sg8
F0.435
sg9
S'HD2'
p565
sg11
F7.031
sg12
F0.511
sg13
g533
sa(dp566
g2
S'PHE'
p567
sg4
I16002
sg5
F-2.838
sg6
F14.08
sg7
I01
sg8
F0.48
sg9
S'HE1'
p568
sg11
F7.054
sg12
F0.533
sg13
g533
sa(dp569
g2
S'PHE'
p570
sg4
I13675
sg5
F0.136
sg6
F12.9
sg7
I01
sg8
F0.473
sg9
S'HE2'
p571
sg11
F7.052
sg12
F0.456
sg13
g533
sa(dp572
g2
S'PHE'
p573
sg4
I11439
sg5
F-7.14
sg6
F43.623
sg7
I01
sg8
F0.768
sg9
S'HZ'
p574
sg11
F6.992
sg12
F0.381
sg13
g293
sa(dp575
g2
S'PHE'
p576
sg4
I28025
sg5
F0.067
sg6
F229.0
sg7
I01
sg8
F4.868
sg9
g37
sg11
F120.382
sg12
F0.934
sg13
g14
sa(dp577
g2
S'PRO'
p578
sg4
I19825
sg5
F0.047
sg6
F183.517
sg7
I01
sg8
F3.653
sg9
g10
sg11
F176.671
sg12
F0.689
sg13
g14
sa(dp579
g2
S'PRO'
p580
sg4
I28773
sg5
F4.186
sg6
F177.787
sg7
I01
sg8
F2.908
sg9
S'CA'
p581
sg11
F63.353
sg12
F1.0
sg13
g14
sa(dp582
g2
S'PRO'
p583
sg4
I27061
sg5
F6.11
sg6
F81.08
sg7
I01
sg8
F1.739
sg9
S'CB'
p584
sg11
F31.875
sg12
F0.94
sg13
g14
sa(dp585
g2
S'PRO'
p586
sg4
I19240
sg5
F4.987
sg6
F98.58
sg7
I01
sg8
F1.888
sg9
S'CD'
p587
sg11
F50.31
sg12
F0.669
sg13
g14
sa(dp588
g2
S'PRO'
p589
sg4
I19115
sg5
F18.28
sg6
F76.28
sg7
I01
sg8
F1.766
sg9
S'CG'
p590
sg11
F27.239
sg12
F0.664
sg13
g14
sa(dp591
g2
S'PRO'
p592
sg4
I25927
sg5
F0.741
sg6
F135.8
sg7
I01
sg8
F0.89
sg9
S'HA'
p593
sg11
F4.389
sg12
F0.901
sg13
g14
sa(dp594
g2
S'PRO'
p595
sg4
I24211
sg5
F-1.501
sg6
F5.63
sg7
I01
sg8
F0.374
sg9
S'HB2'
p596
sg11
F2.068
sg12
F0.841
sg13
g63
sa(dp597
g2
S'PRO'
p598
sg4
I23405
sg5
F-3.48
sg6
F6.1
sg7
I01
sg8
F0.387
sg9
S'HB3'
p599
sg11
F1.994
sg12
F0.813
sg13
g63
sa(dp600
g2
S'PRO'
p601
sg4
I22618
sg5
F-6.56
sg6
F7.67
sg7
I01
sg8
F0.463
sg9
S'HD2'
p602
sg11
F3.632
sg12
F0.786
sg13
g63
sa(dp603
g2
S'PRO'
p604
sg4
I21790
sg5
F-6.56
sg6
F6.3
sg7
I01
sg8
F0.485
sg9
S'HD3'
p605
sg11
F3.595
sg12
F0.757
sg13
g63
sa(dp606
g2
S'PRO'
p607
sg4
I21989
sg5
F-2.35
sg6
F4.92
sg7
I01
sg8
F0.346
sg9
S'HG2'
p608
sg11
F1.917
sg12
F0.764
sg13
g63
sa(dp609
g2
S'PRO'
p610
sg4
I20352
sg5
F-1.52
sg6
F4.92
sg7
I01
sg8
F0.36
sg9
S'HG3'
p611
sg11
F1.891
sg12
F0.707
sg13
g63
sa(dp612
g2
S'PRO'
p613
sg4
I946
sg5
F31.27
sg6
F430.0
sg7
I00
sg8
F35.824
sg9
g37
sg11
F135.994
sg12
F0.033
sg13
g14
sa(dp614
g2
S'SER'
p615
sg4
I32500
sg5
F0.0
sg6
F197.1
sg7
I01
sg8
F3.204
sg9
g10
sg11
F174.601
sg12
F0.644
sg13
g14
sa(dp616
g2
S'SER'
p617
sg4
I45339
sg5
F24.402
sg6
F175.2
sg7
I01
sg8
F2.219
sg9
S'CA'
p618
sg11
F58.716
sg12
F0.899
sg13
g14
sa(dp619
g2
S'SER'
p620
sg4
I42234
sg5
F-939.28
sg6
F171.73
sg7
I01
sg8
F5.383
sg9
S'CB'
p621
sg11
F63.713
sg12
F0.837
sg13
g14
sa(dp622
g2
S'SER'
p623
sg4
I50449
sg5
F-15.3
sg6
F13.13
sg7
I01
sg8
F0.615
sg9
g24
sg11
F8.279
sg12
F1.0
sg13
g14
sa(dp624
g2
S'SER'
p625
sg4
I39760
sg5
F1.43
sg6
F58.739
sg7
I01
sg8
F0.497
sg9
S'HA'
p626
sg11
F4.483
sg12
F0.788
sg13
g14
sa(dp627
g2
S'SER'
p628
sg4
I36618
sg5
F0.61
sg6
F8.198
sg7
I01
sg8
F0.279
sg9
S'HB2'
p629
sg11
F3.868
sg12
F0.726
sg13
g63
sa(dp630
g2
S'SER'
p631
sg4
I33894
sg5
F0.61
sg6
F7.77
sg7
I01
sg8
F0.296
sg9
S'HB3'
p632
sg11
F3.841
sg12
F0.672
sg13
g63
sa(dp633
g2
S'SER'
p634
sg4
I678
sg5
F0.13
sg6
F11.36
sg7
I00
sg8
F1.205
sg9
S'HG'
p635
sg11
F5.518
sg12
F0.013
sg13
g14
sa(dp636
g2
S'SER'
p637
sg4
I46855
sg5
F0.0
sg6
F227.5
sg7
I01
sg8
F3.939
sg9
g37
sg11
F116.287
sg12
F0.929
sg13
g14
sa(dp638
g2
S'THR'
p639
sg4
I27922
sg5
F11.847
sg6
F185.918
sg7
I01
sg8
F4.246
sg9
g10
sg11
F174.464
sg12
F0.623
sg13
g14
sa(dp640
g2
S'THR'
p641
sg4
I38914
sg5
F34.443
sg6
F92.659
sg7
I01
sg8
F2.658
sg9
S'CA'
p642
sg11
F62.245
sg12
F0.868
sg13
g14
sa(dp643
g2
S'THR'
p644
sg4
I36242
sg5
F-939.28
sg6
F629.206
sg7
I01
sg8
F6.601
sg9
S'CB'
p645
sg11
F69.599
sg12
F0.808
sg13
g14
sa(dp646
g2
S'THR'
p647
sg4
I25736
sg5
F10.907
sg6
F175.6
sg7
I01
sg8
F1.984
sg9
S'CG2'
p648
sg11
F21.591
sg12
F0.574
sg13
g21
sa(dp649
g2
S'THR'
p650
sg4
I44831
sg5
F0.02
sg6
F175.5
sg7
I01
sg8
F1.139
sg9
g24
sg11
F8.244
sg12
F1.0
sg13
g14
sa(dp651
g2
S'THR'
p652
sg4
I34443
sg5
F0.87
sg6
F54.9
sg7
I01
sg8
F0.556
sg9
S'HA'
p653
sg11
F4.458
sg12
F0.768
sg13
g14
sa(dp654
g2
S'THR'
p655
sg4
I31798
sg5
F0.087
sg6
F73.47
sg7
I01
sg8
F0.837
sg9
S'HB'
p656
sg11
F4.172
sg12
F0.709
sg13
g14
sa(dp657
g2
S'THR'
p658
sg4
I1227
sg5
F0.265
sg6
F11.01
sg7
I00
sg8
F1.322
sg9
S'HG1'
p659
sg11
F5.311
sg12
F0.027
sg13
g14
sa(dp660
g2
S'THR'
p661
sg4
I31493
sg5
F-12.1
sg6
F22.21
sg7
I01
sg8
F0.331
sg9
S'HG21'
p662
sg11
F1.139
sg12
F0.702
sg13
g21
sa(dp663
g2
g661
sg4
I31493
sg5
F-12.1
sg6
F22.21
sg7
I01
sg8
F0.331
sg9
S'HG22'
p664
sg11
F1.139
sg12
F0.702
sg13
g21
sa(dp665
g2
g661
sg4
I31493
sg5
F-12.1
sg6
F22.21
sg7
I01
sg8
F0.331
sg9
S'HG23'
p666
sg11
F1.139
sg12
F0.702
sg13
g21
sa(dp667
g2
S'THR'
p668
sg4
I41840
sg5
F0.0
sg6
F402.0
sg7
I01
sg8
F6.833
sg9
g37
sg11
F115.489
sg12
F0.933
sg13
g14
sa(dp669
g2
S'TRP'
p670
sg4
I6074
sg5
F10.353
sg6
F184.3
sg7
I01
sg8
F3.89
sg9
g10
sg11
F176.127
sg12
F0.598
sg13
g14
sa(dp671
g2
S'TRP'
p672
sg4
I8367
sg5
F28.7436
sg6
F177.913
sg7
I01
sg8
F2.987
sg9
S'CA'
p673
sg11
F57.707
sg12
F0.824
sg13
g14
sa(dp674
g2
S'TRP'
p675
sg4
I7908
sg5
F1.6
sg6
F123.643
sg7
I01
sg8
F2.941
sg9
S'CB'
p676
sg11
F30.1
sg12
F0.779
sg13
g14
sa(dp677
g2
S'TRP'
p678
sg4
I4114
sg5
F30.236
sg6
F158.329
sg7
I01
sg8
F4.345
sg9
S'CD1'
p679
sg11
F126.283
sg12
F0.405
sg13
g293
sa(dp680
g2
S'TRP'
p681
sg4
I141
sg5
F120.2
sg6
F155.174
sg7
I00
sg8
F2.94
sg9
S'CD2'
p682
sg11
F128.394
sg12
F0.014
sg13
g293
sa(dp683
g2
S'TRP'
p684
sg4
I178
sg5
F113.888
sg6
F177.71
sg7
I00
sg8
F6.987
sg9
S'CE2'
p685
sg11
F138.222
sg12
F0.018
sg13
g293
sa(dp686
g2
S'TRP'
p687
sg4
I3486
sg5
F-10.872
sg6
F174.807
sg7
I01
sg8
F5.224
sg9
S'CE3'
p688
sg11
F120.128
sg12
F0.343
sg13
g293
sa(dp689
g2
S'TRP'
p690
sg4
I205
sg5
F25.208
sg6
F116.526
sg7
I00
sg8
F8.958
sg9
S'CG'
p691
sg11
F109.96
sg12
F0.02
sg13
g293
sa(dp692
g2
S'TRP'
p693
sg4
I3680
sg5
F-6.333
sg6
F160.818
sg7
I01
sg8
F5.066
sg9
S'CH2'
p694
sg11
F123.516
sg12
F0.362
sg13
g293
sa(dp695
g2
S'TRP'
p696
sg4
I3943
sg5
F7.375
sg6
F144.03
sg7
I01
sg8
F4.254
sg9
S'CZ2'
p697
sg11
F114.032
sg12
F0.388
sg13
g293
sa(dp698
g2
S'TRP'
p699
sg4
I3524
sg5
F-8.702
sg6
F161.54
sg7
I01
sg8
F4.868
sg9
S'CZ3'
p700
sg11
F121.095
sg12
F0.347
sg13
g293
sa(dp701
g2
S'TRP'
p702
sg4
I10154
sg5
F5.16
sg6
F59.402
sg7
I01
sg8
F0.93
sg9
g24
sg11
F8.28
sg12
F1.0
sg13
g14
sa(dp703
g2
S'TRP'
p704
sg4
I7779
sg5
F2.243
sg6
F11.414
sg7
I01
sg8
F0.54
sg9
S'HA'
p705
sg11
F4.682
sg12
F0.766
sg13
g14
sa(dp706
g2
S'TRP'
p707
sg4
I7384
sg5
F0.42
sg6
F5.35
sg7
I01
sg8
F0.355
sg9
S'HB2'
p708
sg11
F3.174
sg12
F0.727
sg13
g63
sa(dp709
g2
S'TRP'
p710
sg4
I7181
sg5
F-0.3776
sg6
F4.44
sg7
I01
sg8
F0.374
sg9
S'HB3'
p711
sg11
F3.112
sg12
F0.707
sg13
g63
sa(dp712
g2
S'TRP'
p713
sg4
I6628
sg5
F2.4271
sg6
F10.75
sg7
I01
sg8
F0.365
sg9
S'HD1'
p714
sg11
F7.126
sg12
F0.653
sg13
g293
sa(dp715
g2
S'TRP'
p716
sg4
I7182
sg5
F-1.279
sg6
F18.0
sg7
I01
sg8
F0.718
sg9
S'HE1'
p717
sg11
F10.074
sg12
F0.707
sg13
g293
sa(dp718
g2
S'TRP'
p719
sg4
I5849
sg5
F1.85
sg6
F10.815
sg7
I01
sg8
F0.536
sg9
S'HE3'
p720
sg11
F7.284
sg12
F0.576
sg13
g293
sa(dp721
g2
S'TRP'
p722
sg4
I5797
sg5
F2.84
sg6
F10.9
sg7
I01
sg8
F0.478
sg9
S'HH2'
p723
sg11
F6.943
sg12
F0.571
sg13
g293
sa(dp724
g2
S'TRP'
p725
sg4
I6270
sg5
F2.63
sg6
F10.81
sg7
I01
sg8
F0.43
sg9
S'HZ2'
p726
sg11
F7.26
sg12
F0.617
sg13
g293
sa(dp727
g2
S'TRP'
p728
sg4
I5657
sg5
F0.76
sg6
F8.898
sg7
I01
sg8
F0.497
sg9
S'HZ3'
p729
sg11
F6.836
sg12
F0.557
sg13
g293
sa(dp730
g2
S'TRP'
p731
sg4
I9099
sg5
F25.8
sg6
F224.6
sg7
I01
sg8
F4.846
sg9
g37
sg11
F121.664
sg12
F0.896
sg13
g14
sa(dp732
g2
S'TRP'
p733
sg4
I5795
sg5
F0.53
sg6
F249.5
sg7
I01
sg8
F3.909
sg9
S'NE1'
p734
sg11
F129.214
sg12
F0.571
sg13
g293
sa(dp735
g2
S'TYR'
p736
sg4
I15592
sg5
F2.2
sg6
F184.78
sg7
I01
sg8
F4.705
sg9
g10
sg11
F175.316
sg12
F0.603
sg13
g14
sa(dp737
g2
S'TYR'
p738
sg4
I21816
sg5
F2.2
sg6
F69.56
sg7
I01
sg8
F2.613
sg9
S'CA'
p739
sg11
F58.127
sg12
F0.844
sg13
g14
sa(dp740
g2
S'TYR'
p741
sg4
I20343
sg5
F18.38
sg6
F175.51
sg7
I01
sg8
F2.729
sg9
S'CB'
p742
sg11
F39.324
sg12
F0.787
sg13
g14
sa(dp743
g2
S'TYR'
p744
sg4
I9563
sg5
F19.589
sg6
F733.91
sg7
I01
sg8
F16.948
sg9
S'CD1'
p745
sg11
F132.866
sg12
F0.37
sg13
g533
sa(dp746
g2
S'TYR'
p747
sg4
I6542
sg5
F19.589
sg6
F733.91
sg7
I01
sg8
F20.211
sg9
S'CD2'
p748
sg11
F133.072
sg12
F0.253
sg13
g533
sa(dp749
g2
S'TYR'
p750
sg4
I9490
sg5
F40.435
sg6
F177.717
sg7
I01
sg8
F3.795
sg9
S'CE1'
p751
sg11
F117.734
sg12
F0.367
sg13
g533
sa(dp752
g2
S'TYR'
p753
sg4
I6493
sg5
F34.1221
sg6
F154.1
sg7
I01
sg8
F3.031
sg9
S'CE2'
p754
sg11
F117.779
sg12
F0.251
sg13
g533
sa(dp755
g2
S'TYR'
p756
sg4
I266
sg5
F7.113
sg6
F175.115
sg7
I00
sg8
F12.173
sg9
S'CG'
p757
sg11
F128.403
sg12
F0.01
sg13
g293
sa(dp758
g2
S'TYR'
p759
sg4
I216
sg5
F6.839
sg6
F165.718
sg7
I00
sg8
F16.034
sg9
S'CZ'
p760
sg11
F154.991
sg12
F0.008
sg13
g293
sa(dp761
g2
S'TYR'
p762
sg4
I25862
sg5
F0.02
sg6
F12.009
sg7
I01
sg8
F0.739
sg9
g24
sg11
F8.304
sg12
F1.0
sg13
g14
sa(dp763
g2
S'TYR'
p764
sg4
I19854
sg5
F0.442
sg6
F7.16
sg7
I01
sg8
F0.569
sg9
S'HA'
p765
sg11
F4.615
sg12
F0.768
sg13
g14
sa(dp766
g2
S'TYR'
p767
sg4
I18588
sg5
F-21.23
sg6
F23.28
sg7
I01
sg8
F0.487
sg9
S'HB2'
p768
sg11
F2.893
sg12
F0.719
sg13
g63
sa(dp769
g2
S'TYR'
p770
sg4
I18171
sg5
F-21.23
sg6
F23.28
sg7
I01
sg8
F0.505
sg9
S'HB3'
p771
sg11
F2.831
sg12
F0.703
sg13
g63
sa(dp772
g2
S'TYR'
p773
sg4
I16267
sg5
F0.19
sg6
F9.39
sg7
I01
sg8
F0.387
sg9
S'HD1'
p774
sg11
F6.913
sg12
F0.629
sg13
g533
sa(dp775
g2
S'TYR'
p776
sg4
I13742
sg5
F0.5522
sg6
F10.499
sg7
I01
sg8
F0.394
sg9
S'HD2'
p777
sg11
F6.911
sg12
F0.531
sg13
g533
sa(dp778
g2
S'TYR'
p779
sg4
I15485
sg5
F0.08
sg6
F11.8
sg7
I01
sg8
F0.319
sg9
S'HE1'
p780
sg11
F6.69
sg12
F0.599
sg13
g533
sa(dp781
g2
S'TYR'
p782
sg4
I13214
sg5
F0.43
sg6
F11.7
sg7
I01
sg8
F0.33
sg9
S'HE2'
p783
sg11
F6.689
sg12
F0.511
sg13
g533
sa(dp784
g2
S'TYR'
p785
sg4
I363
sg5
F-0.788
sg6
F31.0
sg7
I00
sg8
F2.201
sg9
S'HH'
p786
sg11
F9.162
sg12
F0.014
sg13
g14
sa(dp787
g2
S'TYR'
p788
sg4
I23572
sg5
F0.2
sg6
F818.0
sg7
I01
sg8
F14.047
sg9
g37
sg11
F120.877
sg12
F0.911
sg13
g14
sa(dp789
g2
S'VAL'
p790
sg4
I35667
sg5
F1.0
sg6
F205.699
sg7
I01
sg8
F3.242
sg9
g10
sg11
F175.638
sg12
F0.644
sg13
g14
sa(dp791
g2
S'VAL'
p792
sg4
I48856
sg5
F29.564
sg6
F91.707
sg7
I01
sg8
F2.903
sg9
S'CA'
p793
sg11
F62.529
sg12
F0.882
sg13
g14
sa(dp794
g2
S'VAL'
p795
sg4
I45470
sg5
F17.099
sg6
F175.751
sg7
I01
sg8
F2.103
sg9
S'CB'
p796
sg11
F32.746
sg12
F0.821
sg13
g14
sa(dp797
g2
S'VAL'
p798
sg4
I33534
sg5
F-7.4
sg6
F117.16
sg7
I01
sg8
F1.897
sg9
S'CG1'
p799
sg11
F21.527
sg12
F0.606
sg13
g389
sa(dp800
g2
S'VAL'
p801
sg4
I32334
sg5
F-5.648
sg6
F121.47
sg7
I01
sg8
F2.043
sg9
S'CG2'
p802
sg11
F21.324
sg12
F0.584
sg13
g389
sa(dp803
g2
S'VAL'
p804
sg4
I55381
sg5
F-0.41
sg6
F15.05
sg7
I01
sg8
F0.687
sg9
g24
sg11
F8.28
sg12
F1.0
sg13
g14
sa(dp805
g2
S'VAL'
p806
sg4
I42441
sg5
F-2.83
sg6
F54.971
sg7
I01
sg8
F0.646
sg9
S'HA'
p807
sg11
F4.172
sg12
F0.766
sg13
g14
sa(dp808
g2
S'VAL'
p809
sg4
I39770
sg5
F-27.48
sg6
F31.75
sg7
I01
sg8
F0.474
sg9
S'HB'
p810
sg11
F1.976
sg12
F0.718
sg13
g14
sa(dp811
g2
S'VAL'
p812
sg4
I39325
sg5
F-27.2
sg6
F24.2
sg7
I01
sg8
F0.35
sg9
S'HG11'
p813
sg11
F0.82
sg12
F0.71
sg13
g389
sa(dp814
g2
g812
sg4
I39325
sg5
F-27.2
sg6
F24.2
sg7
I01
sg8
F0.35
sg9
S'HG12'
p815
sg11
F0.82
sg12
F0.71
sg13
g389
sa(dp816
g2
g812
sg4
I39325
sg5
F-27.2
sg6
F24.2
sg7
I01
sg8
F0.35
sg9
S'HG13'
p817
sg11
F0.82
sg12
F0.71
sg13
g389
sa(dp818
g2
S'VAL'
p819
sg4
I38582
sg5
F-27.2
sg6
F56.56
sg7
I01
sg8
F0.462
sg9
S'HG21'
p820
sg11
F0.8
sg12
F0.697
sg13
g389
sa(dp821
g2
g819
sg4
I38582
sg5
F-27.2
sg6
F56.56
sg7
I01
sg8
F0.462
sg9
S'HG22'
p822
sg11
F0.8
sg12
F0.697
sg13
g389
sa(dp823
g2
g819
sg4
I38582
sg5
F-27.2
sg6
F56.56
sg7
I01
sg8
F0.462
sg9
S'HG23'
p824
sg11
F0.8
sg12
F0.697
sg13
g389
sa(dp825
g2
S'VAL'
p826
sg4
I52437
sg5
F0.2
sg6
F529.0
sg7
I01
sg8
F8.171
sg9
g37
sg11
F121.205
sg12
F0.947
sg13
g14
sa.