(lp0
(dp1
S'comp_id'
p2
S'ALA'
p3
sS'count'
p4
I29402
sS'major'
p5
I01
sS'min'
p6
F164.477
sS'max'
p7
F187.2
sS'std'
p8
F2.078
sS'atom_id'
p9
S'C'
p10
sS'avg'
p11
F177.817
sS'norm_freq'
p12
F0.638
sS'desc'
p13
S'isolated'
p14
sa(dp15
g2
S'ALA'
p16
sg4
I40106
sg5
I01
sg6
F39.922
sg7
F65.516
sg8
F1.946
sg9
S'CA'
p17
sg11
F53.181
sg12
F0.871
sg13
g14
sa(dp18
g2
S'ALA'
p19
sg4
I37648
sg5
I01
sg6
F0.0
sg7
F37.817
sg8
F1.776
sg9
S'CB'
p20
sg11
F18.97
sg12
F0.817
sg13
S'methyl'
p21
sa(dp22
g2
S'ALA'
p23
sg4
I46070
sg5
I01
sg6
F3.53
sg7
F12.11
sg8
F0.585
sg9
S'H'
p24
sg11
F8.193
sg12
F1.0
sg13
g14
sa(dp25
g2
S'ALA'
p26
sg4
I34476
sg5
I01
sg6
F0.87
sg7
F6.514
sg8
F0.425
sg9
S'HA'
p27
sg11
F4.243
sg12
F0.748
sg13
g14
sa(dp28
g2
S'ALA'
p29
sg4
I32381
sg5
I01
sg6
F-0.88
sg7
F3.3376
sg8
F0.247
sg9
S'HB1'
p30
sg11
F1.357
sg12
F0.703
sg13
g21
sa(dp31
g2
g29
sg4
I32381
sg5
I01
sg6
F-0.88
sg7
F3.3376
sg8
F0.247
sg9
S'HB2'
p32
sg11
F1.357
sg12
F0.703
sg13
g21
sa(dp33
g2
g29
sg4
I32381
sg5
I01
sg6
F-0.88
sg7
F3.3376
sg8
F0.247
sg9
S'HB3'
p34
sg11
F1.357
sg12
F0.703
sg13
g21
sa(dp35
g2
S'ALA'
p36
sg4
I42783
sg5
I01
sg6
F98.053
sg7
F142.81
sg8
F3.475
sg9
S'N'
p37
sg11
F123.27
sg12
F0.929
sg13
g14
sa(dp38
g2
S'ARG'
p39
sg4
I18487
sg5
I01
sg6
F167.44
sg7
F184.51
sg8
F2.003
sg9
g10
sg11
F176.472
sg12
F0.6
sg13
g14
sa(dp40
g2
S'ARG'
p41
sg4
I25987
sg5
I01
sg6
F43.271
sg7
F67.98
sg8
F2.303
sg9
S'CA'
p42
sg11
F56.8
sg12
F0.843
sg13
g14
sa(dp43
g2
S'ARG'
p44
sg4
I24241
sg5
I01
sg6
F20.705
sg7
F42.504
sg8
F1.817
sg9
S'CB'
p45
sg11
F30.656
sg12
F0.786
sg13
g14
sa(dp46
g2
S'ARG'
p47
sg4
I15644
sg5
I01
sg6
F32.499
sg7
F50.882
sg8
F0.894
sg9
S'CD'
p48
sg11
F43.157
sg12
F0.507
sg13
g14
sa(dp49
g2
S'ARG'
p50
sg4
I15443
sg5
I01
sg6
F18.22
sg7
F39.975
sg8
F1.179
sg9
S'CG'
p51
sg11
F27.213
sg12
F0.501
sg13
g14
sa(dp52
g2
S'ARG'
p53
sg4
I405
sg5
I00
sg6
F145.032
sg7
F179.69
sg8
F2.975
sg9
S'CZ'
p54
sg11
F160.031
sg12
F0.013
sg13
S'aroma'
p55
sa(dp56
g2
S'ARG'
p57
sg4
I30832
sg5
I01
sg6
F3.566
sg7
F12.69
sg8
F0.607
sg9
g24
sg11
F8.237
sg12
F1.0
sg13
g14
sa(dp58
g2
S'ARG'
p59
sg4
I23653
sg5
I01
sg6
F1.34
sg7
F6.515
sg8
F0.455
sg9
S'HA'
p60
sg11
F4.289
sg12
F0.767
sg13
g14
sa(dp61
g2
S'ARG'
p62
sg4
I21490
sg5
I01
sg6
F-0.773
sg7
F3.493
sg8
F0.267
sg9
S'HB2'
p63
sg11
F1.793
sg12
F0.697
sg13
S'geminal'
p64
sa(dp65
g2
S'ARG'
p66
sg4
I20316
sg5
I01
sg6
F-0.857
sg7
F3.32
sg8
F0.278
sg9
S'HB3'
p67
sg11
F1.762
sg12
F0.659
sg13
g64
sa(dp68
g2
S'ARG'
p69
sg4
I18994
sg5
I01
sg6
F0.961
sg7
F4.692
sg8
F0.234
sg9
S'HD2'
p70
sg11
F3.117
sg12
F0.616
sg13
g64
sa(dp71
g2
S'ARG'
p72
sg4
I17202
sg5
I01
sg6
F0.733
sg7
F4.564
sg8
F0.255
sg9
S'HD3'
p73
sg11
F3.102
sg12
F0.558
sg13
g64
sa(dp74
g2
S'ARG'
p75
sg4
I6091
sg5
I01
sg6
F2.201
sg7
F11.88
sg8
F0.572
sg9
S'HE'
p76
sg11
F7.352
sg12
F0.198
sg13
g14
sa(dp77
g2
S'ARG'
p78
sg4
I19333
sg5
I01
sg6
F-0.72
sg7
F3.51
sg8
F0.27
sg9
S'HG2'
p79
sg11
F1.565
sg12
F0.627
sg13
g64
sa(dp80
g2
S'ARG'
p81
sg4
I17811
sg5
I01
sg6
F-0.742
sg7
F3.51
sg8
F0.286
sg9
S'HG3'
p82
sg11
F1.543
sg12
F0.578
sg13
g64
sa(dp83
g2
S'ARG'
p84
sg4
I560
sg5
I00
sg6
F5.642
sg7
F9.82
sg8
F0.425
sg9
S'HH11'
p85
sg11
F6.886
sg12
F0.018
sg13
g64
sa(dp86
g2
S'ARG'
p87
sg4
I428
sg5
I00
sg6
F5.92
sg7
F8.76
sg8
F0.345
sg9
S'HH12'
p88
sg11
F6.812
sg12
F0.014
sg13
g64
sa(dp89
g2
S'ARG'
p90
sg4
I477
sg5
I00
sg6
F4.845
sg7
F8.66
sg8
F0.354
sg9
S'HH21'
p91
sg11
F6.779
sg12
F0.015
sg13
g64
sa(dp92
g2
S'ARG'
p93
sg4
I394
sg5
I00
sg6
F5.92
sg7
F8.389
sg8
F0.314
sg9
S'HH22'
p94
sg11
F6.768
sg12
F0.013
sg13
g64
sa(dp95
g2
S'ARG'
p96
sg4
I27680
sg5
I01
sg6
F102.782
sg7
F137.6
sg8
F3.646
sg9
g37
sg11
F120.789
sg12
F0.898
sg13
g14
sa(dp97
g2
S'ARG'
p98
sg4
I3407
sg5
I01
sg6
F67.0
sg7
F99.808
sg8
F1.598
sg9
S'NE'
p99
sg11
F84.587
sg12
F0.111
sg13
g14
sa(dp100
g2
S'ARG'
p101
sg4
I96
sg5
I00
sg6
F67.6
sg7
F87.786
sg8
F4.898
sg9
S'NH1'
p102
sg11
F73.907
sg12
F0.003
sg13
g64
sa(dp103
g2
S'ARG'
p104
sg4
I89
sg5
I00
sg6
F69.9
sg7
F85.28
sg8
F2.727
sg9
S'NH2'
p105
sg11
F72.648
sg12
F0.003
sg13
g64
sa(dp106
g2
S'ASN'
p107
sg4
I15886
sg5
I01
sg6
F167.039
sg7
F185.3
sg8
F1.779
sg9
g10
sg11
F175.302
sg12
F0.618
sg13
g14
sa(dp108
g2
S'ASN'
p109
sg4
I22112
sg5
I01
sg6
F41.58
sg7
F66.211
sg8
F1.882
sg9
S'CA'
p110
sg11
F53.562
sg12
F0.86
sg13
g14
sa(dp111
g2
S'ASN'
p112
sg4
I20922
sg5
I01
sg6
F26.448
sg7
F53.678
sg8
F1.671
sg9
S'CB'
p113
sg11
F38.69
sg12
F0.814
sg13
g14
sa(dp114
g2
S'ASN'
p115
sg4
I1525
sg5
I00
sg6
F166.399
sg7
F183.8
sg8
F1.404
sg9
S'CG'
p116
sg11
F176.759
sg12
F0.059
sg13
g14
sa(dp117
g2
S'ASN'
p118
sg4
I25706
sg5
I01
sg6
F2.61
sg7
F12.4
sg8
F0.62
sg9
g24
sg11
F8.328
sg12
F1.0
sg13
g14
sa(dp119
g2
S'ASN'
p120
sg4
I19739
sg5
I01
sg6
F1.752
sg7
F6.6
sg8
F0.357
sg9
S'HA'
p121
sg11
F4.661
sg12
F0.768
sg13
g14
sa(dp122
g2
S'ASN'
p123
sg4
I18457
sg5
I01
sg6
F0.18
sg7
F4.47
sg8
F0.315
sg9
S'HB2'
p124
sg11
F2.804
sg12
F0.718
sg13
g64
sa(dp125
g2
S'ASN'
p126
sg4
I17798
sg5
I01
sg6
F-0.172
sg7
F4.47
sg8
F0.338
sg9
S'HB3'
p127
sg11
F2.75
sg12
F0.692
sg13
g64
sa(dp128
g2
S'ASN'
p129
sg4
I13888
sg5
I01
sg6
F2.06
sg7
F9.603
sg8
F0.489
sg9
S'HD21'
p130
sg11
F7.327
sg12
F0.54
sg13
g64
sa(dp131
g2
S'ASN'
p132
sg4
I13694
sg5
I01
sg6
F2.578
sg7
F9.986
sg8
F0.5
sg9
S'HD22'
p133
sg11
F7.15
sg12
F0.533
sg13
g64
sa(dp134
g2
S'ASN'
p135
sg4
I23379
sg5
I01
sg6
F101.712
sg7
F137.49
sg8
F3.956
sg9
g37
sg11
F118.902
sg12
F0.909
sg13
g14
sa(dp136
g2
S'ASN'
p137
sg4
I11588
sg5
I01
sg6
F99.4
sg7
F134.5
sg8
F2.303
sg9
S'ND2'
p138
sg11
F112.77
sg12
F0.451
sg13
g14
sa(dp139
g2
S'ASP'
p140
sg4
I22866
sg5
I01
sg6
F166.8
sg7
F182.7
sg8
F1.718
sg9
g10
sg11
F176.445
sg12
F0.632
sg13
g14
sa(dp141
g2
S'ASP'
p142
sg4
I31500
sg5
I01
sg6
F41.113
sg7
F67.166
sg8
F2.039
sg9
S'CA'
p143
sg11
F54.701
sg12
F0.87
sg13
g14
sa(dp144
g2
S'ASP'
p145
sg4
I29731
sg5
I01
sg6
F27.48
sg7
F54.947
sg8
F1.609
sg9
S'CB'
p146
sg11
F40.87
sg12
F0.821
sg13
g14
sa(dp147
g2
S'ASP'
p148
sg4
I428
sg5
I00
sg6
F170.72
sg7
F186.5
sg8
F1.761
sg9
S'CG'
p149
sg11
F179.263
sg12
F0.012
sg13
g14
sa(dp150
g2
S'ASP'
p151
sg4
I36209
sg5
I01
sg6
F3.56
sg7
F12.68
sg8
F0.569
sg9
g24
sg11
F8.303
sg12
F1.0
sg13
g14
sa(dp152
g2
S'ASP'
p153
sg4
I26924
sg5
I01
sg6
F2.171
sg7
F6.33
sg8
F0.314
sg9
S'HA'
p154
sg11
F4.587
sg12
F0.744
sg13
g14
sa(dp155
g2
S'ASP'
p156
sg4
I25040
sg5
I01
sg6
F-0.39
sg7
F6.6
sg8
F0.263
sg9
S'HB2'
p157
sg11
F2.716
sg12
F0.692
sg13
g64
sa(dp158
g2
S'ASP'
p159
sg4
I24054
sg5
I01
sg6
F-0.362
sg7
F4.58
sg8
F0.273
sg9
S'HB3'
p160
sg11
F2.664
sg12
F0.664
sg13
g64
sa(dp161
g2
S'ASP'
p162
sg4
I5
sg5
I00
sg6
F4.65139
sg7
F9.29
sg8
F1.874
sg9
S'HD2'
p163
sg11
F6.059
sg12
F0.0
sg13
g14
sa(dp164
g2
S'ASP'
p165
sg4
I34021
sg5
I01
sg6
F101.9
sg7
F143.52
sg8
F3.802
sg9
g37
sg11
F120.643
sg12
F0.94
sg13
g14
sa(dp166
g2
S'CYS'
p167
sg4
I6356
sg5
I01
sg6
F166.733
sg7
F187.591
sg8
F2.039
sg9
g10
sg11
F174.955
sg12
F0.456
sg13
g14
sa(dp168
g2
S'CYS'
p169
sg4
I9298
sg5
I01
sg6
F42.452
sg7
F67.641
sg8
F3.375
sg9
S'CA'
p170
sg11
F58.163
sg12
F0.666
sg13
g14
sa(dp171
g2
S'CYS'
p172
sg4
I8803
sg5
I01
sg6
F17.99
sg7
F62.07
sg8
F6.303
sg9
S'CB'
p173
sg11
F33.091
sg12
F0.631
sg13
g14
sa(dp174
g2
S'CYS'
p175
sg4
I13952
sg5
I01
sg6
F4.379
sg7
F12.12
sg8
F0.674
sg9
g24
sg11
F8.384
sg12
F1.0
sg13
g14
sa(dp176
g2
S'CYS'
p177
sg4
I12104
sg5
I01
sg6
F1.64
sg7
F6.448
sg8
F0.549
sg9
S'HA'
p178
sg11
F4.655
sg12
F0.868
sg13
g14
sa(dp179
g2
S'CYS'
p180
sg4
I11673
sg5
I01
sg6
F-0.488
sg7
F4.715
sg8
F0.44
sg9
S'HB2'
p181
sg11
F2.957
sg12
F0.837
sg13
g64
sa(dp182
g2
S'CYS'
p183
sg4
I11404
sg5
I01
sg6
F-0.83
sg7
F4.77
sg8
F0.456
sg9
S'HB3'
p184
sg11
F2.889
sg12
F0.817
sg13
g64
sa(dp185
g2
S'CYS'
p186
sg4
I104
sg5
I00
sg6
F0.1
sg7
F7.392
sg8
F1.25
sg9
S'HG'
p187
sg11
F2.08
sg12
F0.007
sg13
g14
sa(dp188
g2
S'CYS'
p189
sg4
I10047
sg5
I01
sg6
F4.465484
sg7
F135.89
sg8
F4.652
sg9
g37
sg11
F120.082
sg12
F0.72
sg13
g14
sa(dp190
g2
S'GLN'
p191
sg4
I16569
sg5
I01
sg6
F168.085
sg7
F183.366
sg8
F1.92
sg9
g10
sg11
F176.371
sg12
F0.64
sg13
g14
sa(dp192
g2
S'GLN'
p193
sg4
I22845
sg5
I01
sg6
F43.453
sg7
F66.6
sg8
F2.114
sg9
S'CA'
p194
sg11
F56.615
sg12
F0.882
sg13
g14
sa(dp195
g2
S'GLN'
p196
sg4
I21327
sg5
I01
sg6
F18.425
sg7
F42.196
sg8
F1.809
sg9
S'CB'
p197
sg11
F29.172
sg12
F0.823
sg13
g14
sa(dp198
g2
S'GLN'
p199
sg4
I1446
sg5
I00
sg6
F171.365
sg7
F183.5
sg8
F1.236
sg9
S'CD'
p200
sg11
F179.707
sg12
F0.056
sg13
g14
sa(dp201
g2
S'GLN'
p202
sg4
I14439
sg5
I01
sg6
F21.64
sg7
F42.8
sg8
F1.103
sg9
S'CG'
p203
sg11
F33.771
sg12
F0.557
sg13
g14
sa(dp204
g2
S'GLN'
p205
sg4
I25909
sg5
I01
sg6
F3.505
sg7
F12.04
sg8
F0.578
sg9
g24
sg11
F8.216
sg12
F1.0
sg13
g14
sa(dp206
g2
S'GLN'
p207
sg4
I19726
sg5
I01
sg6
F1.567
sg7
F6.34
sg8
F0.426
sg9
S'HA'
p208
sg11
F4.258
sg12
F0.761
sg13
g14
sa(dp209
g2
S'GLN'
p210
sg4
I17894
sg5
I01
sg6
F-0.14
sg7
F4.0
sg8
F0.254
sg9
S'HB2'
p211
sg11
F2.046
sg12
F0.691
sg13
g64
sa(dp212
g2
S'GLN'
p213
sg4
I17011
sg5
I01
sg6
F-0.52
sg7
F4.04
sg8
F0.268
sg9
S'HB3'
p214
sg11
F2.015
sg12
F0.657
sg13
g64
sa(dp215
g2
S'GLN'
p216
sg4
I12651
sg5
I01
sg6
F3.39
sg7
F9.922
sg8
F0.446
sg9
S'HE21'
p217
sg11
F7.216
sg12
F0.488
sg13
g64
sa(dp218
g2
S'GLN'
p219
sg4
I12579
sg5
I01
sg6
F3.59
sg7
F9.79
sg8
F0.435
sg9
S'HE22'
p220
sg11
F7.038
sg12
F0.486
sg13
g64
sa(dp221
g2
S'GLN'
p222
sg4
I16852
sg5
I01
sg6
F-0.111
sg7
F3.899
sg8
F0.268
sg9
S'HG2'
p223
sg11
F2.313
sg12
F0.65
sg13
g64
sa(dp224
g2
S'GLN'
p225
sg4
I15537
sg5
I01
sg6
F-0.406
sg7
F3.899
sg8
F0.287
sg9
S'HG3'
p226
sg11
F2.291
sg12
F0.6
sg13
g64
sa(dp227
g2
S'GLN'
p228
sg4
I24185
sg5
I01
sg6
F103.877
sg7
F139.55
sg8
F3.554
sg9
g37
sg11
F119.89
sg12
F0.933
sg13
g14
sa(dp229
g2
S'GLN'
p230
sg4
I11080
sg5
I01
sg6
F97.9
sg7
F125.331
sg8
F1.679
sg9
S'NE2'
p231
sg11
F111.868
sg12
F0.428
sg13
g14
sa(dp232
g2
S'GLU'
p233
sg4
I31062
sg5
I01
sg6
F166.8
sg7
F182.988
sg8
F1.914
sg9
g10
sg11
F176.92
sg12
F0.65
sg13
g14
sa(dp234
g2
S'GLU'
p235
sg4
I41987
sg5
I01
sg6
F44.348
sg7
F66.94
sg8
F2.074
sg9
S'CA'
p236
sg11
F57.335
sg12
F0.879
sg13
g14
sa(dp237
g2
S'GLU'
p238
sg4
I39060
sg5
I01
sg6
F18.356
sg7
F46.749
sg8
F1.706
sg9
S'CB'
p239
sg11
F29.975
sg12
F0.818
sg13
g14
sa(dp240
g2
S'GLU'
p241
sg4
I465
sg5
I00
sg6
F129.753
sg7
F188.007
sg8
F2.992
sg9
S'CD'
p242
sg11
F182.393
sg12
F0.01
sg13
g14
sa(dp243
g2
S'GLU'
p244
sg4
I25964
sg5
I01
sg6
F25.074
sg7
F50.278
sg8
F1.189
sg9
S'CG'
p245
sg11
F36.098
sg12
F0.544
sg13
g14
sa(dp246
g2
S'GLU'
p247
sg4
I47762
sg5
I01
sg6
F4.244
sg7
F12.692
sg8
F0.587
sg9
g24
sg11
F8.331
sg12
F1.0
sg13
g14
sa(dp248
g2
S'GLU'
p249
sg4
I35732
sg5
I01
sg6
F1.393
sg7
F6.29
sg8
F0.405
sg9
S'HA'
p250
sg11
F4.243
sg12
F0.748
sg13
g14
sa(dp251
g2
S'GLU'
p252
sg4
I32331
sg5
I01
sg6
F0.23
sg7
F3.44
sg8
F0.209
sg9
S'HB2'
p253
sg11
F2.022
sg12
F0.677
sg13
g64
sa(dp254
g2
S'GLU'
p255
sg4
I30351
sg5
I01
sg6
F0.163
sg7
F3.467
sg8
F0.217
sg9
S'HB3'
p256
sg11
F1.997
sg12
F0.635
sg13
g64
sa(dp257
g2
S'GLU'
p258
sg4
I3
sg5
I00
sg6
F2.727
sg7
F6.69
sg8
F2.288
sg9
S'HE2'
p259
sg11
F5.369
sg12
F0.0
sg13
g14
sa(dp260
g2
S'GLU'
p261
sg4
I30087
sg5
I01
sg6
F0.528
sg7
F3.77
sg8
F0.211
sg9
S'HG2'
p262
sg11
F2.269
sg12
F0.63
sg13
g64
sa(dp263
g2
S'GLU'
p264
sg4
I27946
sg5
I01
sg6
F0.438
sg7
F3.832
sg8
F0.214
sg9
S'HG3'
p265
sg11
F2.248
sg12
F0.585
sg13
g64
sa(dp266
g2
S'GLU'
p267
sg4
I45175
sg5
I01
sg6
F102.942
sg7
F138.6
sg8
F3.46
sg9
g37
sg11
F120.702
sg12
F0.946
sg13
g14
sa(dp268
g2
S'GLY'
p269
sg4
I28767
sg5
I01
sg6
F163.272
sg7
F187.394
sg8
F1.851
sg9
g10
sg11
F173.892
sg12
F0.628
sg13
g14
sa(dp270
g2
S'GLY'
p271
sg4
I40012
sg5
I01
sg6
F33.148
sg7
F57.879
sg8
F1.269
sg9
S'CA'
p272
sg11
F45.357
sg12
F0.873
sg13
g14
sa(dp273
g2
S'GLY'
p274
sg4
I45808
sg5
I01
sg6
F3.01
sg7
F12.22
sg8
F0.629
sg9
g24
sg11
F8.334
sg12
F1.0
sg13
g14
sa(dp275
g2
S'GLY'
p276
sg4
I34286
sg5
I01
sg6
F0.844
sg7
F6.428
sg8
F0.368
sg9
S'HA2'
p277
sg11
F3.963
sg12
F0.748
sg13
g64
sa(dp278
g2
S'GLY'
p279
sg4
I32570
sg5
I01
sg6
F0.645
sg7
F6.385
sg8
F0.369
sg9
S'HA3'
p280
sg11
F3.898
sg12
F0.711
sg13
g64
sa(dp281
g2
S'GLY'
p282
sg4
I41800
sg5
I01
sg6
F93.604
sg7
F162.194
sg8
F3.705
sg9
g37
sg11
F109.595
sg12
F0.913
sg13
g14
sa(dp283
g2
S'HIS'
p284
sg4
I8230
sg5
I01
sg6
F166.9
sg7
F183.12
sg8
F1.95
sg9
g10
sg11
F175.262
sg12
F0.627
sg13
g14
sa(dp285
g2
S'HIS'
p286
sg4
I11745
sg5
I01
sg6
F43.308
sg7
F66.98
sg8
F2.312
sg9
S'CA'
p287
sg11
F56.523
sg12
F0.895
sg13
g14
sa(dp288
g2
S'HIS'
p289
sg4
I11048
sg5
I01
sg6
F18.745
sg7
F43.382
sg8
F2.091
sg9
S'CB'
p290
sg11
F30.226
sg12
F0.842
sg13
g14
sa(dp291
g2
S'HIS'
p292
sg4
I4330
sg5
I01
sg6
F110.516
sg7
F159.946
sg8
F3.382
sg9
S'CD2'
p293
sg11
F120.428
sg12
F0.33
sg13
g55
sa(dp294
g2
S'HIS'
p295
sg4
I3334
sg5
I01
sg6
F104.667
sg7
F144.756
sg8
F2.272
sg9
S'CE1'
p296
sg11
F137.649
sg12
F0.254
sg13
g55
sa(dp297
g2
S'HIS'
p298
sg4
I92
sg5
I00
sg6
F117.54
sg7
F139.557
sg8
F3.213
sg9
S'CG'
p299
sg11
F131.971
sg12
F0.007
sg13
g55
sa(dp300
g2
S'HIS'
p301
sg4
I13120
sg5
I01
sg6
F3.97
sg7
F12.392
sg8
F0.674
sg9
g24
sg11
F8.248
sg12
F1.0
sg13
g14
sa(dp302
g2
S'HIS'
p303
sg4
I10294
sg5
I01
sg6
F1.929
sg7
F8.9
sg8
F0.43
sg9
S'HA'
p304
sg11
F4.603
sg12
F0.785
sg13
g14
sa(dp305
g2
S'HIS'
p306
sg4
I9582
sg5
I01
sg6
F-0.038
sg7
F8.7
sg8
F0.353
sg9
S'HB2'
p307
sg11
F3.108
sg12
F0.73
sg13
g64
sa(dp308
g2
S'HIS'
p309
sg4
I9292
sg5
I01
sg6
F-0.387
sg7
F8.7
sg8
F0.382
sg9
S'HB3'
p310
sg11
F3.046
sg12
F0.708
sg13
g64
sa(dp311
g2
S'HIS'
p312
sg4
I447
sg5
I00
sg6
F2.73
sg7
F77.1
sg8
F7.964
sg9
S'HD1'
p313
sg11
F9.504
sg12
F0.034
sg13
g14
sa(dp314
g2
S'HIS'
p315
sg4
I6835
sg5
I01
sg6
F0.47
sg7
F9.415
sg8
F0.491
sg9
S'HD2'
p316
sg11
F6.999
sg12
F0.521
sg13
g55
sa(dp317
g2
S'HIS'
p318
sg4
I5404
sg5
I01
sg6
F0.075
sg7
F10.881
sg8
F0.593
sg9
S'HE1'
p319
sg11
F7.94
sg12
F0.412
sg13
g55
sa(dp320
g2
S'HIS'
p321
sg4
I193
sg5
I00
sg6
F6.573
sg7
F16.53
sg8
F2.388
sg9
S'HE2'
p322
sg11
F9.578
sg12
F0.015
sg13
g14
sa(dp323
g2
S'HIS'
p324
sg4
I11968
sg5
I01
sg6
F103.986
sg7
F136.48
sg8
F4.037
sg9
g37
sg11
F119.686
sg12
F0.912
sg13
g14
sa(dp325
g2
S'HIS'
p326
sg4
I220
sg5
I00
sg6
F162.04
sg7
F229.14
sg8
F18.456
sg9
S'ND1'
p327
sg11
F192.368
sg12
F0.017
sg13
g55
sa(dp328
g2
S'HIS'
p329
sg4
I238
sg5
I00
sg6
F161.376
sg7
F226.759
sg8
F16.905
sg9
S'NE2'
p330
sg11
F184.533
sg12
F0.018
sg13
g55
sa(dp331
g2
S'ILE'
p332
sg4
I20717
sg5
I01
sg6
F166.403
sg7
F187.551
sg8
F1.892
sg9
g10
sg11
F175.936
sg12
F0.641
sg13
g14
sa(dp333
g2
S'ILE'
p334
sg4
I28363
sg5
I01
sg6
F49.045
sg7
F71.856
sg8
F2.681
sg9
S'CA'
p335
sg11
F61.675
sg12
F0.877
sg13
g14
sa(dp336
g2
S'ILE'
p337
sg4
I26540
sg5
I01
sg6
F22.113
sg7
F51.876
sg8
F1.993
sg9
S'CB'
p338
sg11
F38.577
sg12
F0.821
sg13
g14
sa(dp339
g2
S'ILE'
p340
sg4
I18980
sg5
I01
sg6
F2.905
sg7
F29.595
sg8
F1.652
sg9
S'CD1'
p341
sg11
F13.402
sg12
F0.587
sg13
g21
sa(dp342
g2
S'ILE'
p343
sg4
I17622
sg5
I01
sg6
F12.05
sg7
F39.05
sg8
F1.686
sg9
S'CG1'
p344
sg11
F27.735
sg12
F0.545
sg13
g14
sa(dp345
g2
S'ILE'
p346
sg4
I18720
sg5
I01
sg6
F3.448
sg7
F29.8
sg8
F1.325
sg9
S'CG2'
p347
sg11
F17.53
sg12
F0.579
sg13
g21
sa(dp348
g2
S'ILE'
p349
sg4
I32337
sg5
I01
sg6
F3.428
sg7
F11.871
sg8
F0.681
sg9
g24
sg11
F8.265
sg12
F1.0
sg13
g14
sa(dp350
g2
S'ILE'
p351
sg4
I24256
sg5
I01
sg6
F1.32
sg7
F6.362
sg8
F0.553
sg9
S'HA'
p352
sg11
F4.165
sg12
F0.75
sg13
g14
sa(dp353
g2
S'ILE'
p354
sg4
I22794
sg5
I01
sg6
F-1.28
sg7
F3.87
sg8
F0.294
sg9
S'HB'
p355
sg11
F1.783
sg12
F0.705
sg13
g14
sa(dp356
g2
S'ILE'
p357
sg4
I20691
sg5
I01
sg6
F-2.12
sg7
F2.691
sg8
F0.399
sg9
S'HG12'
p358
sg11
F1.274
sg12
F0.64
sg13
g64
sa(dp359
g2
S'ILE'
p360
sg4
I19937
sg5
I01
sg6
F-2.074
sg7
F2.99
sg8
F0.407
sg9
S'HG13'
p361
sg11
F1.194
sg12
F0.617
sg13
g64
sa(dp362
g2
S'ILE'
p363
sg4
I22024
sg5
I01
sg6
F-1.468
sg7
F2.82
sg8
F0.288
sg9
S'HD11'
p364
sg11
F0.679
sg12
F0.681
sg13
g21
sa(dp365
g2
g363
sg4
I22024
sg5
I01
sg6
F-1.468
sg7
F2.82
sg8
F0.288
sg9
S'HD12'
p366
sg11
F0.679
sg12
F0.681
sg13
g21
sa(dp367
g2
g363
sg4
I22024
sg5
I01
sg6
F-1.468
sg7
F2.82
sg8
F0.288
sg9
S'HD13'
p368
sg11
F0.679
sg12
F0.681
sg13
g21
sa(dp369
g2
S'ILE'
p370
sg4
I21671
sg5
I01
sg6
F-1.468
sg7
F2.198
sg8
F0.271
sg9
S'HG21'
p371
sg11
F0.776
sg12
F0.67
sg13
g21
sa(dp372
g2
g370
sg4
I21671
sg5
I01
sg6
F-1.468
sg7
F2.198
sg8
F0.271
sg9
S'HG22'
p373
sg11
F0.776
sg12
F0.67
sg13
g21
sa(dp374
g2
g370
sg4
I21671
sg5
I01
sg6
F-1.468
sg7
F2.198
sg8
F0.271
sg9
S'HG23'
p375
sg11
F0.776
sg12
F0.67
sg13
g21
sa(dp376
g2
S'ILE'
p377
sg4
I30189
sg5
I01
sg6
F99.0
sg7
F138.12
sg8
F4.267
sg9
g37
sg11
F121.399
sg12
F0.934
sg13
g14
sa(dp378
g2
S'LEU'
p379
sg4
I34089
sg5
I01
sg6
F167.49
sg7
F189.78
sg8
F1.933
sg9
g10
sg11
F177.083
sg12
F0.636
sg13
g14
sa(dp380
g2
S'LEU'
p381
sg4
I46695
sg5
I01
sg6
F37.916
sg7
F67.88
sg8
F2.124
sg9
S'CA'
p382
sg11
F55.694
sg12
F0.871
sg13
g14
sa(dp383
g2
S'LEU'
p384
sg4
I43742
sg5
I01
sg6
F26.4
sg7
F55.546
sg8
F1.846
sg9
S'CB'
p385
sg11
F42.272
sg12
F0.816
sg13
g14
sa(dp386
g2
S'LEU'
p387
sg4
I30536
sg5
I01
sg6
F10.945
sg7
F36.85
sg8
F1.584
sg9
S'CD1'
p388
sg11
F24.675
sg12
F0.57
sg13
S'methyl-geminal'
p389
sa(dp390
g2
S'LEU'
p391
sg4
I29089
sg5
I01
sg6
F11.706
sg7
F30.4
sg8
F1.682
sg9
S'CD2'
p392
sg11
F24.067
sg12
F0.543
sg13
g389
sa(dp393
g2
S'LEU'
p394
sg4
I27627
sg5
I01
sg6
F15.3
sg7
F37.7
sg8
F1.086
sg9
S'CG'
p395
sg11
F26.787
sg12
F0.515
sg13
g14
sa(dp396
g2
S'LEU'
p397
sg4
I53601
sg5
I01
sg6
F2.15
sg7
F13.22
sg8
F0.635
sg9
g24
sg11
F8.217
sg12
F1.0
sg13
g14
sa(dp398
g2
S'LEU'
p399
sg4
I40287
sg5
I01
sg6
F1.58
sg7
F6.42
sg8
F0.459
sg9
S'HA'
p400
sg11
F4.3
sg12
F0.752
sg13
g14
sa(dp401
g2
S'LEU'
p402
sg4
I36965
sg5
I01
sg6
F-1.292
sg7
F3.226
sg8
F0.344
sg9
S'HB2'
p403
sg11
F1.612
sg12
F0.69
sg13
g64
sa(dp404
g2
S'LEU'
p405
sg4
I35384
sg5
I01
sg6
F-1.51
sg7
F3.226
sg8
F0.364
sg9
S'HB3'
p406
sg11
F1.521
sg12
F0.66
sg13
g64
sa(dp407
g2
S'LEU'
p408
sg4
I32796
sg5
I01
sg6
F-1.06
sg7
F3.9
sg8
F0.329
sg9
S'HG'
p409
sg11
F1.511
sg12
F0.612
sg13
g14
sa(dp410
g2
S'LEU'
p411
sg4
I36597
sg5
I01
sg6
F-1.76
sg7
F2.364
sg8
F0.278
sg9
S'HD11'
p412
sg11
F0.754
sg12
F0.683
sg13
g389
sa(dp413
g2
g411
sg4
I36597
sg5
I01
sg6
F-1.76
sg7
F2.364
sg8
F0.278
sg9
S'HD12'
p414
sg11
F0.754
sg12
F0.683
sg13
g389
sa(dp415
g2
g411
sg4
I36597
sg5
I01
sg6
F-1.76
sg7
F2.364
sg8
F0.278
sg9
S'HD13'
p416
sg11
F0.754
sg12
F0.683
sg13
g389
sa(dp417
g2
S'LEU'
p418
sg4
I35181
sg5
I01
sg6
F-1.652
sg7
F2.67
sg8
F0.282
sg9
S'HD21'
p419
sg11
F0.733
sg12
F0.656
sg13
g389
sa(dp420
g2
g418
sg4
I35181
sg5
I01
sg6
F-1.652
sg7
F2.67
sg8
F0.282
sg9
S'HD22'
p421
sg11
F0.733
sg12
F0.656
sg13
g389
sa(dp422
g2
g418
sg4
I35181
sg5
I01
sg6
F-1.652
sg7
F2.67
sg8
F0.282
sg9
S'HD23'
p423
sg11
F0.733
sg12
F0.656
sg13
g389
sa(dp424
g2
S'LEU'
p425
sg4
I49738
sg5
I01
sg6
F98.56
sg7
F177.623
sg8
F3.863
sg9
g37
sg11
F121.816
sg12
F0.928
sg13
g14
sa(dp426
g2
S'LYS'
p427
sg4
I28042
sg5
I01
sg6
F166.633
sg7
F185.0
sg8
F1.912
sg9
g10
sg11
F176.722
sg12
F0.621
sg13
g14
sa(dp428
g2
S'LYS'
p429
sg4
I38456
sg5
I01
sg6
F40.726
sg7
F65.866
sg8
F2.178
sg9
S'CA'
p430
sg11
F56.973
sg12
F0.852
sg13
g14
sa(dp431
g2
S'LYS'
p432
sg4
I35838
sg5
I01
sg6
F21.192
sg7
F46.6
sg8
F1.77
sg9
S'CB'
p433
sg11
F32.784
sg12
F0.794
sg13
g14
sa(dp434
g2
S'LYS'
p435
sg4
I21952
sg5
I01
sg6
F20.1
sg7
F40.1
sg8
F1.081
sg9
S'CD'
p436
sg11
F28.951
sg12
F0.486
sg13
g14
sa(dp437
g2
S'LYS'
p438
sg4
I21237
sg5
I01
sg6
F30.477
sg7
F52.196
sg8
F0.829
sg9
S'CE'
p439
sg11
F41.89
sg12
F0.47
sg13
g14
sa(dp440
g2
S'LYS'
p441
sg4
I23201
sg5
I01
sg6
F16.845
sg7
F36.22
sg8
F1.121
sg9
S'CG'
p442
sg11
F24.897
sg12
F0.514
sg13
g14
sa(dp443
g2
S'LYS'
p444
sg4
I45148
sg5
I01
sg6
F4.108
sg7
F12.031
sg8
F0.594
sg9
g24
sg11
F8.18
sg12
F1.0
sg13
g14
sa(dp445
g2
S'LYS'
p446
sg4
I34522
sg5
I01
sg6
F0.68
sg7
F7.96
sg8
F0.432
sg9
S'HA'
p447
sg11
F4.259
sg12
F0.765
sg13
g14
sa(dp448
g2
S'LYS'
p449
sg4
I30886
sg5
I01
sg6
F-0.75
sg7
F4.05
sg8
F0.248
sg9
S'HB2'
p450
sg11
F1.776
sg12
F0.684
sg13
g64
sa(dp451
g2
S'LYS'
p452
sg4
I29064
sg5
I01
sg6
F-0.899
sg7
F3.95
sg8
F0.268
sg9
S'HB3'
p453
sg11
F1.747
sg12
F0.644
sg13
g64
sa(dp454
g2
S'LYS'
p455
sg4
I24934
sg5
I01
sg6
F-1.68
sg7
F3.19
sg8
F0.213
sg9
S'HD2'
p456
sg11
F1.605
sg12
F0.552
sg13
g64
sa(dp457
g2
S'LYS'
p458
sg4
I22397
sg5
I01
sg6
F-1.016
sg7
F3.193
sg8
F0.218
sg9
S'HD3'
p459
sg11
F1.596
sg12
F0.496
sg13
g64
sa(dp460
g2
S'LYS'
p461
sg4
I24686
sg5
I01
sg6
F1.178
sg7
F4.43
sg8
F0.192
sg9
S'HE2'
p462
sg11
F2.913
sg12
F0.547
sg13
g64
sa(dp463
g2
S'LYS'
p464
sg4
I21674
sg5
I01
sg6
F1.12
sg7
F4.55
sg8
F0.2
sg9
S'HE3'
p465
sg11
F2.907
sg12
F0.48
sg13
g64
sa(dp466
g2
S'LYS'
p467
sg4
I27999
sg5
I01
sg6
F-1.114
sg7
F3.613
sg8
F0.256
sg9
S'HG2'
p468
sg11
F1.368
sg12
F0.62
sg13
g64
sa(dp469
g2
S'LYS'
p470
sg4
I25768
sg5
I01
sg6
F-1.164
sg7
F3.613
sg8
F0.273
sg9
S'HG3'
p471
sg11
F1.35
sg12
F0.571
sg13
g64
sa(dp472
g2
S'LYS'
p473
sg4
I41276
sg5
I01
sg6
F101.1
sg7
F140.3
sg8
F3.722
sg9
g37
sg11
F121.044
sg12
F0.914
sg13
g14
sa(dp474
g2
S'LYS'
p475
sg4
I38
sg5
I00
sg6
F29.48
sg7
F43.687
sg8
F2.217
sg9
S'NZ'
p476
sg11
F33.254
sg12
F0.001
sg13
g14
sa(dp477
g2
S'LYS'
p478
sg4
I1052
sg5
I00
sg6
F1.949
sg7
F9.9
sg8
F0.63
sg9
S'HZ1'
p479
sg11
F7.422
sg12
F0.023
sg13
g64
sa(dp480
g2
g478
sg4
I1052
sg5
I00
sg6
F1.949
sg7
F9.9
sg8
F0.63
sg9
S'HZ2'
p481
sg11
F7.422
sg12
F0.023
sg13
g64
sa(dp482
g2
S'MET'
p483
sg4
I8230
sg5
I01
sg6
F167.4
sg7
F183.159
sg8
F2.075
sg9
g10
sg11
F176.234
sg12
F0.655
sg13
g14
sa(dp484
g2
S'MET'
p485
sg4
I11562
sg5
I01
sg6
F43.281
sg7
F66.86
sg8
F2.224
sg9
S'CA'
p486
sg11
F56.139
sg12
F0.92
sg13
g14
sa(dp487
g2
S'MET'
p488
sg4
I10685
sg5
I01
sg6
F20.361
sg7
F46.46
sg8
F2.2
sg9
S'CB'
p489
sg11
F32.938
sg12
F0.85
sg13
g14
sa(dp490
g2
S'MET'
p491
sg4
I5160
sg5
I01
sg6
F10.69
sg7
F38.441
sg8
F1.533
sg9
S'CE'
p492
sg11
F17.075
sg12
F0.411
sg13
g21
sa(dp493
g2
S'MET'
p494
sg4
I6683
sg5
I01
sg6
F19.056
sg7
F38.581
sg8
F1.23
sg9
S'CG'
p495
sg11
F32.026
sg12
F0.532
sg13
g14
sa(dp496
g2
S'MET'
p497
sg4
I12567
sg5
I01
sg6
F4.865
sg7
F12.456
sg8
F0.59
sg9
g24
sg11
F8.259
sg12
F1.0
sg13
g14
sa(dp498
g2
S'MET'
p499
sg4
I9850
sg5
I01
sg6
F1.127
sg7
F6.35
sg8
F0.463
sg9
S'HA'
p500
sg11
F4.396
sg12
F0.784
sg13
g14
sa(dp501
g2
S'MET'
p502
sg4
I8811
sg5
I01
sg6
F-1.05
sg7
F4.07
sg8
F0.33
sg9
S'HB2'
p503
sg11
F2.025
sg12
F0.701
sg13
g64
sa(dp504
g2
S'MET'
p505
sg4
I8296
sg5
I01
sg6
F-0.99
sg7
F3.47
sg8
F0.343
sg9
S'HB3'
p506
sg11
F1.988
sg12
F0.66
sg13
g64
sa(dp507
g2
S'MET'
p508
sg4
I8121
sg5
I01
sg6
F-0.42
sg7
F4.4
sg8
F0.349
sg9
S'HG2'
p509
sg11
F2.423
sg12
F0.646
sg13
g64
sa(dp510
g2
S'MET'
p511
sg4
I7675
sg5
I01
sg6
F-0.302
sg7
F4.24
sg8
F0.374
sg9
S'HG3'
p512
sg11
F2.394
sg12
F0.611
sg13
g64
sa(dp513
g2
S'MET'
p514
sg4
I5839
sg5
I01
sg6
F-0.713
sg7
F8.381
sg8
F0.413
sg9
S'HE1'
p515
sg11
F1.885
sg12
F0.465
sg13
g21
sa(dp516
g2
g514
sg4
I5839
sg5
I01
sg6
F-0.713
sg7
F8.381
sg8
F0.413
sg9
S'HE2'
p517
sg11
F1.885
sg12
F0.465
sg13
g21
sa(dp518
g2
g514
sg4
I5839
sg5
I01
sg6
F-0.713
sg7
F8.381
sg8
F0.413
sg9
S'HE3'
p519
sg11
F1.885
sg12
F0.465
sg13
g21
sa(dp520
g2
S'MET'
p521
sg4
I11838
sg5
I01
sg6
F102.876
sg7
F138.547
sg8
F3.511
sg9
g37
sg11
F120.09
sg12
F0.942
sg13
g14
sa(dp522
g2
S'PHE'
p523
sg4
I14359
sg5
I01
sg6
F167.2
sg7
F184.929
sg8
F1.972
sg9
g10
sg11
F175.5
sg12
F0.628
sg13
g14
sa(dp524
g2
S'PHE'
p525
sg4
I19668
sg5
I01
sg6
F45.52
sg7
F69.821
sg8
F2.581
sg9
S'CA'
p526
sg11
F58.148
sg12
F0.86
sg13
g14
sa(dp527
g2
S'PHE'
p528
sg4
I18480
sg5
I01
sg6
F25.52
sg7
F50.225
sg8
F2.068
sg9
S'CB'
p529
sg11
F39.947
sg12
F0.808
sg13
g14
sa(dp530
g2
S'PHE'
p531
sg4
I7720
sg5
I01
sg6
F116.948
sg7
F136.728
sg8
F1.192
sg9
S'CD1'
p532
sg11
F131.571
sg12
F0.338
sg13
S'aroma-opposite'
p533
sa(dp534
g2
S'PHE'
p535
sg4
I5746
sg5
I01
sg6
F118.128
sg7
F138.249
sg8
F1.173
sg9
S'CD2'
p536
sg11
F131.58
sg12
F0.251
sg13
g533
sa(dp537
g2
S'PHE'
p538
sg4
I6751
sg5
I01
sg6
F114.754
sg7
F139.56
sg8
F1.292
sg9
S'CE1'
p539
sg11
F130.723
sg12
F0.295
sg13
g533
sa(dp540
g2
S'PHE'
p541
sg4
I5043
sg5
I01
sg6
F114.7
sg7
F139.7
sg8
F1.169
sg9
S'CE2'
p542
sg11
F130.752
sg12
F0.221
sg13
g533
sa(dp543
g2
S'PHE'
p544
sg4
I170
sg5
I00
sg6
F127.24
sg7
F152.844
sg8
F3.262
sg9
S'CG'
p545
sg11
F138.067
sg12
F0.007
sg13
g55
sa(dp546
g2
S'PHE'
p547
sg4
I5246
sg5
I01
sg6
F116.458
sg7
F138.6
sg8
F1.446
sg9
S'CZ'
p548
sg11
F129.22
sg12
F0.229
sg13
g55
sa(dp549
g2
S'PHE'
p550
sg4
I22869
sg5
I01
sg6
F3.549
sg7
F12.1759
sg8
F0.716
sg9
g24
sg11
F8.341
sg12
F1.0
sg13
g14
sa(dp551
g2
S'PHE'
p552
sg4
I17066
sg5
I01
sg6
F1.78
sg7
F6.868
sg8
F0.563
sg9
S'HA'
p553
sg11
F4.614
sg12
F0.746
sg13
g14
sa(dp554
g2
S'PHE'
p555
sg4
I15907
sg5
I01
sg6
F0.159
sg7
F4.461
sg8
F0.367
sg9
S'HB2'
p556
sg11
F2.998
sg12
F0.696
sg13
g64
sa(dp557
g2
S'PHE'
p558
sg4
I15526
sg5
I01
sg6
F-0.212
sg7
F4.69
sg8
F0.39
sg9
S'HB3'
p559
sg11
F2.938
sg12
F0.679
sg13
g64
sa(dp560
g2
S'PHE'
p561
sg4
I13457
sg5
I01
sg6
F4.669
sg7
F8.152
sg8
F0.309
sg9
S'HD1'
p562
sg11
F7.058
sg12
F0.588
sg13
S'aroma-opposite'
p563
sa(dp564
g2
S'PHE'
p565
sg4
I11531
sg5
I01
sg6
F4.669
sg7
F8.152
sg8
F0.314
sg9
S'HD2'
p566
sg11
F7.057
sg12
F0.504
sg13
g563
sa(dp567
g2
S'PHE'
p568
sg4
I11762
sg5
I01
sg6
F4.378
sg7
F8.19
sg8
F0.316
sg9
S'HE1'
p569
sg11
F7.079
sg12
F0.514
sg13
g563
sa(dp570
g2
S'PHE'
p571
sg4
I10262
sg5
I01
sg6
F4.378
sg7
F8.19
sg8
F0.319
sg9
S'HE2'
p572
sg11
F7.075
sg12
F0.449
sg13
g563
sa(dp573
g2
S'PHE'
p574
sg4
I8398
sg5
I01
sg6
F4.324
sg7
F8.919
sg8
F0.424
sg9
S'HZ'
p575
sg11
F6.991
sg12
F0.367
sg13
g55
sa(dp576
g2
S'PHE'
p577
sg4
I21110
sg5
I01
sg6
F102.2
sg7
F139.02
sg8
F4.141
sg9
g37
sg11
F120.37
sg12
F0.923
sg13
g14
sa(dp578
g2
S'PRO'
p579
sg4
I15309
sg5
I01
sg6
F168.381
sg7
F182.836
sg8
F1.493
sg9
g10
sg11
F176.765
sg12
F0.696
sg13
g14
sa(dp580
g2
S'PRO'
p581
sg4
I22006
sg5
I01
sg6
F50.12
sg7
F70.88
sg8
F1.513
sg9
S'CA'
p582
sg11
F63.357
sg12
F1.0
sg13
g14
sa(dp583
g2
S'PRO'
p584
sg4
I20614
sg5
I01
sg6
F20.914
sg7
F45.16
sg8
F1.174
sg9
S'CB'
p585
sg11
F31.853
sg12
F0.937
sg13
g14
sa(dp586
g2
S'PRO'
p587
sg4
I14284
sg5
I01
sg6
F37.0759
sg7
F58.812
sg8
F0.999
sg9
S'CD'
p588
sg11
F50.344
sg12
F0.649
sg13
g14
sa(dp589
g2
S'PRO'
p590
sg4
I14265
sg5
I01
sg6
F18.28
sg7
F33.9
sg8
F1.073
sg9
S'CG'
p591
sg11
F27.195
sg12
F0.648
sg13
g14
sa(dp592
g2
S'PRO'
p593
sg4
I19630
sg5
I01
sg6
F1.044
sg7
F8.08
sg8
F0.331
sg9
S'HA'
p594
sg11
F4.389
sg12
F0.892
sg13
g14
sa(dp595
g2
S'PRO'
p596
sg4
I18222
sg5
I01
sg6
F-0.472
sg7
F4.351
sg8
F0.346
sg9
S'HB2'
p597
sg11
F2.077
sg12
F0.828
sg13
g64
sa(dp598
g2
S'PRO'
p599
sg4
I17622
sg5
I01
sg6
F-1.074
sg7
F3.79
sg8
F0.357
sg9
S'HB3'
p600
sg11
F2.0
sg12
F0.801
sg13
g64
sa(dp601
g2
S'PRO'
p602
sg4
I16954
sg5
I01
sg6
F-0.043
sg7
F7.077
sg8
F0.35
sg9
S'HD2'
p603
sg11
F3.648
sg12
F0.77
sg13
g64
sa(dp604
g2
S'PRO'
p605
sg4
I16337
sg5
I01
sg6
F-0.257
sg7
F5.357
sg8
F0.383
sg9
S'HD3'
p606
sg11
F3.612
sg12
F0.742
sg13
g64
sa(dp607
g2
S'PRO'
p608
sg4
I16557
sg5
I01
sg6
F-0.801
sg7
F4.418
sg8
F0.313
sg9
S'HG2'
p609
sg11
F1.925
sg12
F0.752
sg13
g64
sa(dp610
g2
S'PRO'
p611
sg4
I15319
sg5
I01
sg6
F-0.9
sg7
F4.418
sg8
F0.327
sg9
S'HG3'
p612
sg11
F1.9
sg12
F0.696
sg13
g64
sa(dp613
g2
S'PRO'
p614
sg4
I604
sg5
I00
sg6
F110.908
sg7
F145.257
sg8
F6.39
sg9
g37
sg11
F134.559
sg12
F0.027
sg13
g55
sa(dp615
g2
S'SER'
p616
sg4
I25087
sg5
I01
sg6
F164.47
sg7
F184.875
sg8
F1.728
sg9
g10
sg11
F174.654
sg12
F0.638
sg13
g14
sa(dp617
g2
S'SER'
p618
sg4
I34948
sg5
I01
sg6
F45.13
sg7
F73.678
sg8
F2.085
sg9
S'CA'
p619
sg11
F58.753
sg12
F0.889
sg13
g14
sa(dp620
g2
S'SER'
p621
sg4
I32435
sg5
I01
sg6
F31.4
sg7
F78.834
sg8
F1.52
sg9
S'CB'
p622
sg11
F63.794
sg12
F0.825
sg13
g14
sa(dp623
g2
S'SER'
p624
sg4
I39313
sg5
I01
sg6
F3.76
sg7
F13.13
sg8
F0.579
sg9
g24
sg11
F8.277
sg12
F1.0
sg13
g14
sa(dp625
g2
S'SER'
p626
sg4
I30398
sg5
I01
sg6
F1.43
sg7
F6.853
sg8
F0.401
sg9
S'HA'
p627
sg11
F4.474
sg12
F0.773
sg13
g14
sa(dp628
g2
S'SER'
p629
sg4
I27874
sg5
I01
sg6
F1.66
sg7
F5.453
sg8
F0.253
sg9
S'HB2'
p630
sg11
F3.873
sg12
F0.709
sg13
g64
sa(dp631
g2
S'SER'
p632
sg4
I25778
sg5
I01
sg6
F1.49
sg7
F5.453
sg8
F0.272
sg9
S'HB3'
p633
sg11
F3.847
sg12
F0.656
sg13
g64
sa(dp634
g2
S'SER'
p635
sg4
I421
sg5
I00
sg6
F0.13
sg7
F8.97
sg8
F1.026
sg9
S'HG'
p636
sg11
F5.418
sg12
F0.011
sg13
g14
sa(dp637
g2
S'SER'
p638
sg4
I36161
sg5
I01
sg6
F95.97
sg7
F133.684
sg8
F3.509
sg9
g37
sg11
F116.269
sg12
F0.92
sg13
g14
sa(dp639
g2
S'THR'
p640
sg4
I21212
sg5
I01
sg6
F165.5
sg7
F184.431
sg8
F1.717
sg9
g10
sg11
F174.584
sg12
F0.62
sg13
g14
sa(dp641
g2
S'THR'
p642
sg4
I29484
sg5
I01
sg6
F48.009
sg7
F72.797
sg8
F2.59
sg9
S'CA'
p643
sg11
F62.261
sg12
F0.862
sg13
g14
sa(dp644
g2
S'THR'
p645
sg4
I27329
sg5
I01
sg6
F29.97
sg7
F81.526
sg8
F1.737
sg9
S'CB'
p646
sg11
F69.708
sg12
F0.799
sg13
g14
sa(dp647
g2
S'THR'
p648
sg4
I18723
sg5
I01
sg6
F11.7
sg7
F36.725
sg8
F1.094
sg9
S'CG2'
p649
sg11
F21.556
sg12
F0.547
sg13
g21
sa(dp650
g2
S'THR'
p651
sg4
I34217
sg5
I01
sg6
F5.32
sg7
F11.727
sg8
F0.616
sg9
g24
sg11
F8.237
sg12
F1.0
sg13
g14
sa(dp652
g2
S'THR'
p653
sg4
I25778
sg5
I01
sg6
F1.65
sg7
F7.468
sg8
F0.475
sg9
S'HA'
p654
sg11
F4.452
sg12
F0.753
sg13
g14
sa(dp655
g2
S'THR'
p656
sg4
I23456
sg5
I01
sg6
F0.92
sg7
F8.346
sg8
F0.323
sg9
S'HB'
p657
sg11
F4.164
sg12
F0.686
sg13
g14
sa(dp658
g2
S'THR'
p659
sg4
I740
sg5
I00
sg6
F0.32
sg7
F8.903
sg8
F1.161
sg9
S'HG1'
p660
sg11
F5.168
sg12
F0.022
sg13
g14
sa(dp661
g2
S'THR'
p662
sg4
I23249
sg5
I01
sg6
F-1.186
sg7
F3.4
sg8
F0.219
sg9
S'HG21'
p663
sg11
F1.137
sg12
F0.679
sg13
g21
sa(dp664
g2
g662
sg4
I23249
sg5
I01
sg6
F-1.186
sg7
F3.4
sg8
F0.219
sg9
S'HG22'
p665
sg11
F1.137
sg12
F0.679
sg13
g21
sa(dp666
g2
g662
sg4
I23249
sg5
I01
sg6
F-1.186
sg7
F3.4
sg8
F0.219
sg9
S'HG23'
p667
sg11
F1.137
sg12
F0.679
sg13
g21
sa(dp668
g2
S'THR'
p669
sg4
I31648
sg5
I01
sg6
F95.77
sg7
F138.274
sg8
F4.72
sg9
g37
sg11
F115.373
sg12
F0.925
sg13
g14
sa(dp670
g2
S'TRP'
p671
sg4
I4384
sg5
I01
sg6
F168.169
sg7
F182.604
sg8
F1.994
sg9
g10
sg11
F176.239
sg12
F0.584
sg13
g14
sa(dp672
g2
S'TRP'
p673
sg4
I6064
sg5
I01
sg6
F44.685
sg7
F81.0
sg8
F2.575
sg9
S'CA'
p674
sg11
F57.753
sg12
F0.807
sg13
g14
sa(dp675
g2
S'TRP'
p676
sg4
I5726
sg5
I01
sg6
F18.633
sg7
F52.3
sg8
F1.996
sg9
S'CB'
p677
sg11
F29.958
sg12
F0.762
sg13
g14
sa(dp678
g2
S'TRP'
p679
sg4
I2858
sg5
I01
sg6
F108.45
sg7
F133.49
sg8
F1.812
sg9
S'CD1'
p680
sg11
F126.554
sg12
F0.38
sg13
g55
sa(dp681
g2
S'TRP'
p682
sg4
I100
sg5
I00
sg6
F120.2
sg7
F139.1
sg8
F1.969
sg9
S'CD2'
p683
sg11
F127.971
sg12
F0.013
sg13
g55
sa(dp684
g2
S'TRP'
p685
sg4
I99
sg5
I00
sg6
F113.888
sg7
F177.71
sg8
F7.635
sg9
S'CE2'
p686
sg11
F138.611
sg12
F0.013
sg13
g55
sa(dp687
g2
S'TRP'
p688
sg4
I2424
sg5
I01
sg6
F93.343
sg7
F137.6
sg8
F1.705
sg9
S'CE3'
p689
sg11
F120.448
sg12
F0.323
sg13
g55
sa(dp690
g2
S'TRP'
p691
sg4
I133
sg5
I00
sg6
F102.53
sg7
F116.526
sg8
F2.034
sg9
S'CG'
p692
sg11
F110.921
sg12
F0.018
sg13
g55
sa(dp693
g2
S'TRP'
p694
sg4
I2556
sg5
I01
sg6
F91.616
sg7
F131.54
sg8
F1.527
sg9
S'CH2'
p695
sg11
F123.831
sg12
F0.34
sg13
g55
sa(dp696
g2
S'TRP'
p697
sg4
I2734
sg5
I01
sg6
F81.812
sg7
F132.031
sg8
F1.354
sg9
S'CZ2'
p698
sg11
F114.248
sg12
F0.364
sg13
g55
sa(dp699
g2
S'TRP'
p700
sg4
I2460
sg5
I01
sg6
F98.613
sg7
F138.39
sg8
F1.567
sg9
S'CZ3'
p701
sg11
F121.361
sg12
F0.327
sg13
g55
sa(dp702
g2
S'TRP'
p703
sg4
I7513
sg5
I01
sg6
F5.16
sg7
F11.75862
sg8
F0.762
sg9
g24
sg11
F8.267
sg12
F1.0
sg13
g14
sa(dp704
g2
S'TRP'
p705
sg4
I5627
sg5
I01
sg6
F2.243
sg7
F6.55
sg8
F0.515
sg9
S'HA'
p706
sg11
F4.66
sg12
F0.749
sg13
g14
sa(dp707
g2
S'TRP'
p708
sg4
I5304
sg5
I01
sg6
F0.42
sg7
F4.54
sg8
F0.347
sg9
S'HB2'
p709
sg11
F3.186
sg12
F0.706
sg13
g64
sa(dp710
g2
S'TRP'
p711
sg4
I5153
sg5
I01
sg6
F0.257
sg7
F4.44
sg8
F0.369
sg9
S'HB3'
p712
sg11
F3.119
sg12
F0.686
sg13
g64
sa(dp713
g2
S'TRP'
p714
sg4
I4760
sg5
I01
sg6
F4.9
sg7
F8.93
sg8
F0.344
sg9
S'HD1'
p715
sg11
F7.137
sg12
F0.634
sg13
g55
sa(dp716
g2
S'TRP'
p717
sg4
I5167
sg5
I01
sg6
F5.1154
sg7
F13.49
sg8
F0.639
sg9
S'HE1'
p718
sg11
F10.082
sg12
F0.688
sg13
g14
sa(dp719
g2
S'TRP'
p720
sg4
I4211
sg5
I01
sg6
F4.89
sg7
F9.949
sg8
F0.411
sg9
S'HE3'
p721
sg11
F7.316
sg12
F0.56
sg13
g55
sa(dp722
g2
S'TRP'
p723
sg4
I4143
sg5
I01
sg6
F4.372
sg7
F8.797
sg8
F0.362
sg9
S'HH2'
p724
sg11
F6.975
sg12
F0.551
sg13
g55
sa(dp725
g2
S'TRP'
p726
sg4
I4482
sg5
I01
sg6
F4.655
sg7
F8.558
sg8
F0.324
sg9
S'HZ2'
p727
sg11
F7.282
sg12
F0.597
sg13
g55
sa(dp728
g2
S'TRP'
p729
sg4
I4066
sg5
I01
sg6
F3.877
sg7
F8.898
sg8
F0.379
sg9
S'HZ3'
p730
sg11
F6.868
sg12
F0.541
sg13
g55
sa(dp731
g2
S'TRP'
p732
sg4
I6572
sg5
I01
sg6
F101.97
sg7
F138.113
sg8
F4.083
sg9
g37
sg11
F121.574
sg12
F0.875
sg13
g14
sa(dp733
g2
S'TRP'
p734
sg4
I3992
sg5
I01
sg6
F106.0
sg7
F139.2
sg8
F2.226
sg9
S'NE1'
p735
sg11
F129.231
sg12
F0.531
sg13
g55
sa(dp736
g2
S'TYR'
p737
sg4
I11609
sg5
I01
sg6
F168.368
sg7
F184.78
sg8
F1.965
sg9
g10
sg11
F175.467
sg12
F0.597
sg13
g14
sa(dp738
g2
S'TYR'
p739
sg4
I16238
sg5
I01
sg6
F44.635
sg7
F69.56
sg8
F2.519
sg9
S'CA'
p740
sg11
F58.181
sg12
F0.835
sg13
g14
sa(dp741
g2
S'TYR'
p742
sg4
I15096
sg5
I01
sg6
F25.321
sg7
F47.3
sg8
F2.135
sg9
S'CB'
p743
sg11
F39.271
sg12
F0.776
sg13
g14
sa(dp744
g2
S'TYR'
p745
sg4
I6907
sg5
I01
sg6
F54.99
sg7
F141.572
sg8
F1.604
sg9
S'CD1'
p746
sg11
F132.737
sg12
F0.355
sg13
g533
sa(dp747
g2
S'TYR'
p748
sg4
I4946
sg5
I01
sg6
F113.003
sg7
F138.289
sg8
F1.444
sg9
S'CD2'
p749
sg11
F132.713
sg12
F0.254
sg13
g533
sa(dp750
g2
S'TYR'
p751
sg4
I6878
sg5
I01
sg6
F110.7
sg7
F137.42
sg8
F1.215
sg9
S'CE1'
p752
sg11
F117.926
sg12
F0.354
sg13
g533
sa(dp753
g2
S'TYR'
p754
sg4
I4908
sg5
I01
sg6
F106.548
sg7
F135.823
sg8
F1.235
sg9
S'CE2'
p755
sg11
F117.896
sg12
F0.252
sg13
g533
sa(dp756
g2
S'TYR'
p757
sg4
I164
sg5
I00
sg6
F117.7
sg7
F174.59
sg8
F4.542
sg9
S'CG'
p758
sg11
F129.48
sg12
F0.008
sg13
g55
sa(dp759
g2
S'TYR'
p760
sg4
I118
sg5
I00
sg6
F105.248
sg7
F160.45
sg8
F4.981
sg9
S'CZ'
p761
sg11
F156.428
sg12
F0.006
sg13
g55
sa(dp762
g2
S'TYR'
p763
sg4
I19456
sg5
I01
sg6
F4.156
sg7
F11.988
sg8
F0.724
sg9
g24
sg11
F8.298
sg12
F1.0
sg13
g14
sa(dp764
g2
S'TYR'
p765
sg4
I14806
sg5
I01
sg6
F1.188
sg7
F6.765
sg8
F0.554
sg9
S'HA'
p766
sg11
F4.606
sg12
F0.761
sg13
g14
sa(dp767
g2
S'TYR'
p768
sg4
I13727
sg5
I01
sg6
F-0.494
sg7
F4.7
sg8
F0.372
sg9
S'HB2'
p769
sg11
F2.904
sg12
F0.706
sg13
g64
sa(dp770
g2
S'TYR'
p771
sg4
I13414
sg5
I01
sg6
F-0.192
sg7
F4.7
sg8
F0.392
sg9
S'HB3'
p772
sg11
F2.843
sg12
F0.689
sg13
g64
sa(dp773
g2
S'TYR'
p774
sg4
I12038
sg5
I01
sg6
F3.931
sg7
F8.527
sg8
F0.296
sg9
S'HD1'
p775
sg11
F6.935
sg12
F0.619
sg13
g563
sa(dp776
g2
S'TYR'
p777
sg4
I10473
sg5
I01
sg6
F4.027
sg7
F8.5
sg8
F0.297
sg9
S'HD2'
p778
sg11
F6.932
sg12
F0.538
sg13
g563
sa(dp779
g2
S'TYR'
p780
sg4
I11464
sg5
I01
sg6
F4.58
sg7
F7.829
sg8
F0.225
sg9
S'HE1'
p781
sg11
F6.702
sg12
F0.589
sg13
g563
sa(dp782
g2
S'TYR'
p783
sg4
I10082
sg5
I01
sg6
F4.58
sg7
F8.5
sg8
F0.231
sg9
S'HE2'
p784
sg11
F6.703
sg12
F0.518
sg13
g563
sa(dp785
g2
S'TYR'
p786
sg4
I204
sg5
I00
sg6
F-0.788
sg7
F13.748
sg8
F1.595
sg9
S'HH'
p787
sg11
F9.237
sg12
F0.01
sg13
g14
sa(dp788
g2
S'TYR'
p789
sg4
I17368
sg5
I01
sg6
F39.2
sg7
F144.96
sg8
F4.263
sg9
g37
sg11
F120.458
sg12
F0.893
sg13
g14
sa(dp790
g2
S'VAL'
p791
sg4
I27340
sg5
I01
sg6
F165.654
sg7
F183.949
sg8
F1.867
sg9
g10
sg11
F175.71
sg12
F0.643
sg13
g14
sa(dp792
g2
S'VAL'
p793
sg4
I37219
sg5
I01
sg6
F49.184
sg7
F70.39
sg8
F2.853
sg9
S'CA'
p794
sg11
F62.572
sg12
F0.876
sg13
g14
sa(dp795
g2
S'VAL'
p796
sg4
I34440
sg5
I01
sg6
F20.292
sg7
F45.331
sg8
F1.779
sg9
S'CB'
p797
sg11
F32.713
sg12
F0.81
sg13
g14
sa(dp798
g2
S'VAL'
p799
sg4
I24612
sg5
I01
sg6
F13.53
sg7
F32.27
sg8
F1.364
sg9
S'CG1'
p800
sg11
F21.504
sg12
F0.579
sg13
g389
sa(dp801
g2
S'VAL'
p802
sg4
I23700
sg5
I01
sg6
F13.257
sg7
F30.463
sg8
F1.55
sg9
S'CG2'
p803
sg11
F21.289
sg12
F0.558
sg13
g389
sa(dp804
g2
S'VAL'
p805
sg4
I42494
sg5
I01
sg6
F3.98
sg7
F12.585
sg8
F0.663
sg9
g24
sg11
F8.279
sg12
F1.0
sg13
g14
sa(dp806
g2
S'VAL'
p807
sg4
I32038
sg5
I01
sg6
F0.972
sg7
F6.298
sg8
F0.572
sg9
S'HA'
p808
sg11
F4.163
sg12
F0.754
sg13
g14
sa(dp809
g2
S'VAL'
p810
sg4
I29707
sg5
I01
sg6
F-1.219
sg7
F3.319
sg8
F0.312
sg9
S'HB'
p811
sg11
F1.985
sg12
F0.699
sg13
g14
sa(dp812
g2
S'VAL'
p813
sg4
I29260
sg5
I01
sg6
F-1.55
sg7
F2.573
sg8
F0.259
sg9
S'HG11'
p814
sg11
F0.827
sg12
F0.689
sg13
g389
sa(dp815
g2
g813
sg4
I29260
sg5
I01
sg6
F-1.55
sg7
F2.573
sg8
F0.259
sg9
S'HG12'
p816
sg11
F0.827
sg12
F0.689
sg13
g389
sa(dp817
g2
g813
sg4
I29260
sg5
I01
sg6
F-1.55
sg7
F2.573
sg8
F0.259
sg9
S'HG13'
p818
sg11
F0.827
sg12
F0.689
sg13
g389
sa(dp819
g2
S'VAL'
p820
sg4
I28643
sg5
I01
sg6
F-2.32
sg7
F2.88
sg8
F0.279
sg9
S'HG21'
p821
sg11
F0.805
sg12
F0.674
sg13
g389
sa(dp822
g2
g820
sg4
I28643
sg5
I01
sg6
F-2.32
sg7
F2.88
sg8
F0.279
sg9
S'HG22'
p823
sg11
F0.805
sg12
F0.674
sg13
g389
sa(dp824
g2
g820
sg4
I28643
sg5
I01
sg6
F-2.32
sg7
F2.88
sg8
F0.279
sg9
S'HG23'
p825
sg11
F0.805
sg12
F0.674
sg13
g389
sa(dp826
g2
S'VAL'
p827
sg4
I39867
sg5
I01
sg6
F97.22
sg7
F143.29
sg8
F4.47
sg9
g37
sg11
F121.081
sg12
F0.938
sg13
g14
sa.