(lp0
(dp1
S'comp_id'
p2
S'ALA'
p3
sS'count'
p4
I38367
sS'min'
p5
F0.037
sS'max'
p6
F187.2
sS'std'
p7
F3.627
sS'atom_id'
p8
S'C'
p9
sS'avg'
p10
F177.73
sS'desc'
p11
S'isolated'
p12
sa(dp13
g2
S'ALA'
p14
sg4
I52586
sg5
F17.007
sg6
F123.9
sg7
F2.087
sg8
S'CA'
p15
sg10
F53.163
sg11
g12
sa(dp16
g2
S'ALA'
p17
sg4
I49713
sg5
F-40.993
sg6
F99.0
sg7
F2.412
sg8
S'CB'
p18
sg10
F19.06
sg11
S'methyl'
p19
sa(dp20
g2
S'ALA'
p21
sg4
I60330
sg5
F0.004
sg6
F69.229
sg7
F0.658
sg8
S'H'
p22
sg10
F8.193
sg11
g12
sa(dp23
g2
S'ALA'
p24
sg4
I45753
sg5
F-2.52
sg6
F17.87
sg7
F0.448
sg8
S'HA'
p25
sg10
F4.25
sg11
g12
sa(dp26
g2
S'ALA'
p27
sg4
I43360
sg5
F-14.04
sg6
F5.48
sg7
F0.285
sg8
S'HB1'
p28
sg10
F1.352
sg11
g19
sa(dp29
g2
g27
sg4
I43360
sg5
F-14.04
sg6
F5.48
sg7
F0.285
sg8
S'HB2'
p30
sg10
F1.352
sg11
g19
sa(dp31
g2
g27
sg4
I43360
sg5
F-14.04
sg6
F5.48
sg7
F0.285
sg8
S'HB3'
p32
sg10
F1.352
sg11
g19
sa(dp33
g2
S'ALA'
p34
sg4
I56493
sg5
F0.049
sg6
F766.0
sg7
F6.449
sg8
S'N'
p35
sg10
F123.318
sg11
g12
sa(dp36
g2
S'ARG'
p37
sg4
I24360
sg5
F0.174
sg6
F184.96
sg7
F3.391
sg8
g9
sg10
F176.39
sg11
g12
sa(dp38
g2
S'ARG'
p39
sg4
I34263
sg5
F8.369
sg6
F103.6
sg7
F2.442
sg8
S'CA'
p40
sg10
F56.77
sg11
g12
sa(dp41
g2
S'ARG'
p42
sg4
I32008
sg5
F17.736
sg6
F123.5
sg7
F2.161
sg8
S'CB'
p43
sg10
F30.72
sg11
g12
sa(dp44
g2
S'ARG'
p45
sg4
I21197
sg5
F18.935
sg6
F135.8
sg7
F1.54
sg8
S'CD'
p46
sg10
F43.169
sg11
g12
sa(dp47
g2
S'ARG'
p48
sg4
I20933
sg5
F12.17
sg6
F119.4
sg7
F1.678
sg8
S'CG'
p49
sg10
F27.23
sg11
g12
sa(dp50
g2
S'ARG'
p51
sg4
I566
sg5
F43.199
sg6
F181.474
sg7
F6.468
sg8
S'CZ'
p52
sg10
F160.246
sg11
S'aroma'
p53
sa(dp54
g2
S'ARG'
p55
sg4
I40130
sg5
F0.011
sg6
F12.73
sg7
F0.627
sg8
g22
sg10
F8.24
sg11
g12
sa(dp56
g2
S'ARG'
p57
sg4
I31190
sg5
F1.212
sg6
F12.57
sg7
F0.476
sg8
S'HA'
p58
sg10
F4.293
sg11
g12
sa(dp59
g2
S'ARG'
p60
sg4
I28470
sg5
F-4.78
sg6
F27.53
sg7
F0.323
sg8
S'HB2'
p61
sg10
F1.789
sg11
S'geminal'
p62
sa(dp63
g2
S'ARG'
p64
sg4
I26878
sg5
F-1.126
sg6
F27.53
sg7
F0.336
sg8
S'HB3'
p65
sg10
F1.756
sg11
g62
sa(dp66
g2
S'ARG'
p67
sg4
I25181
sg5
F-6.44
sg6
F4.692
sg7
F0.274
sg8
S'HD2'
p68
sg10
F3.106
sg11
g62
sa(dp69
g2
S'ARG'
p70
sg4
I22830
sg5
F-0.69
sg6
F4.788
sg7
F0.295
sg8
S'HD3'
p71
sg10
F3.089
sg11
g62
sa(dp72
g2
S'ARG'
p73
sg4
I8731
sg5
F1.15
sg6
F116.661
sg7
F3.158
sg8
S'HE'
p74
sg10
F7.469
sg11
g12
sa(dp75
g2
S'ARG'
p76
sg4
I25624
sg5
F-1.45
sg6
F4.2
sg7
F0.287
sg8
S'HG2'
p77
sg10
F1.558
sg11
g62
sa(dp78
g2
S'ARG'
p79
sg4
I23633
sg5
F-1.298
sg6
F5.47
sg7
F0.302
sg8
S'HG3'
p80
sg10
F1.537
sg11
g62
sa(dp81
g2
S'ARG'
p82
sg4
I821
sg5
F4.41
sg6
F10.675
sg7
F0.56
sg8
S'HH11'
p83
sg10
F6.915
sg11
g62
sa(dp84
g2
S'ARG'
p85
sg4
I625
sg5
F4.41
sg6
F10.727
sg7
F0.5
sg8
S'HH12'
p86
sg10
F6.846
sg11
g62
sa(dp87
g2
S'ARG'
p88
sg4
I701
sg5
F1.233
sg6
F11.352
sg7
F0.676
sg8
S'HH21'
p89
sg10
F6.801
sg11
g62
sa(dp90
g2
S'ARG'
p91
sg4
I579
sg5
F1.233
sg6
F60.141
sg7
F2.3
sg8
S'HH22'
p92
sg10
F6.877
sg11
g62
sa(dp93
g2
S'ARG'
p94
sg4
I36557
sg5
F0.125
sg6
F177.669
sg7
F4.197
sg8
g35
sg10
F120.758
sg11
g12
sa(dp95
g2
S'ARG'
p96
sg4
I5550
sg5
F7.218
sg6
F149.108
sg7
F13.498
sg8
S'NE'
p97
sg10
F90.604
sg11
g12
sa(dp98
g2
S'ARG'
p99
sg4
I214
sg5
F67.6
sg6
F124.789
sg7
F13.909
sg8
S'NH1'
p100
sg10
F79.911
sg11
g62
sa(dp101
g2
S'ARG'
p102
sg4
I188
sg5
F66.2
sg6
F128.47
sg7
F15.263
sg8
S'NH2'
p103
sg10
F79.555
sg11
g62
sa(dp104
g2
S'ASN'
p105
sg4
I20665
sg5
F0.114
sg6
F185.3
sg7
F3.259
sg8
g9
sg10
F175.235
sg11
g12
sa(dp106
g2
S'ASN'
p107
sg4
I28933
sg5
F2.2
sg6
F99.0
sg7
F1.989
sg8
S'CA'
p108
sg10
F53.538
sg11
g12
sa(dp109
g2
S'ASN'
p110
sg4
I27479
sg5
F1.962
sg6
F99.0
sg7
F2.026
sg8
S'CB'
p111
sg10
F38.702
sg11
g12
sa(dp112
g2
S'ASN'
p113
sg4
I2125
sg5
F0.0
sg6
F183.8
sg7
F7.175
sg8
S'CG'
p114
sg10
F176.396
sg11
g12
sa(dp115
g2
S'ASN'
p116
sg4
I33343
sg5
F0.008
sg6
F448.0
sg7
F2.572
sg8
g22
sg10
F8.349
sg11
g12
sa(dp117
g2
S'ASN'
p118
sg4
I26049
sg5
F1.752
sg6
F7.11
sg7
F0.367
sg8
S'HA'
p119
sg10
F4.663
sg11
g12
sa(dp120
g2
S'ASN'
p121
sg4
I24527
sg5
F-0.773
sg6
F8.883
sg7
F0.335
sg8
S'HB2'
p122
sg10
F2.801
sg11
g62
sa(dp123
g2
S'ASN'
p124
sg4
I23670
sg5
F-0.948
sg6
F5.137
sg7
F0.365
sg8
S'HB3'
p125
sg10
F2.744
sg11
g62
sa(dp126
g2
S'ASN'
p127
sg4
I18777
sg5
F1.093
sg6
F111.32
sg7
F0.916
sg8
S'HD21'
p128
sg10
F7.341
sg11
g62
sa(dp129
g2
S'ASN'
p130
sg4
I18559
sg5
F1.467
sg6
F111.32
sg7
F0.933
sg8
S'HD22'
p131
sg10
F7.148
sg11
g62
sa(dp132
g2
S'ASN'
p133
sg4
I30667
sg5
F0.041
sg6
F208.9
sg7
F4.415
sg8
g35
sg10
F118.896
sg11
g12
sa(dp134
g2
S'ASN'
p135
sg4
I16081
sg5
F21.038
sg6
F1114.29
sg7
F11.509
sg8
S'ND2'
p136
sg10
F112.891
sg11
g12
sa(dp137
g2
S'ASP'
p138
sg4
I30364
sg5
F0.106
sg6
F184.14
sg7
F3.83
sg8
g9
sg10
F176.355
sg11
g12
sa(dp139
g2
S'ASP'
p140
sg4
I41897
sg5
F5.63
sg6
F118.9
sg7
F2.157
sg8
S'CA'
p141
sg10
F54.681
sg11
g12
sa(dp142
g2
S'ASP'
p143
sg4
I39754
sg5
F9.7
sg6
F180.89
sg7
F2.032
sg8
S'CB'
p144
sg10
F40.891
sg11
g12
sa(dp145
g2
S'ASP'
p146
sg4
I727
sg5
F2.637
sg6
F186.5
sg7
F16.577
sg8
S'CG'
p147
sg10
F177.607
sg11
g12
sa(dp148
g2
S'ASP'
p149
sg4
I47956
sg5
F-0.35
sg6
F17.5
sg7
F0.6
sg8
g22
sg10
F8.304
sg11
g12
sa(dp150
g2
S'ASP'
p151
sg4
I36349
sg5
F-3.75
sg6
F8.66
sg7
F0.33
sg8
S'HA'
p152
sg10
F4.589
sg11
g12
sa(dp153
g2
S'ASP'
p154
sg4
I34073
sg5
F-5.2
sg6
F37.4
sg7
F0.561
sg8
S'HB2'
p155
sg10
F2.721
sg11
g62
sa(dp156
g2
S'ASP'
p157
sg4
I32689
sg5
F-1.46
sg6
F37.2
sg7
F0.568
sg8
S'HB3'
p158
sg10
F2.67
sg11
g62
sa(dp159
g2
S'ASP'
p160
sg4
I9
sg5
F1.16
sg6
F12.3
sg7
F3.631
sg8
S'HD2'
p161
sg10
F5.308
sg11
g12
sa(dp162
g2
S'ASP'
p163
sg4
I45266
sg5
F0.061
sg6
F223.7
sg7
F4.464
sg8
g35
sg10
F120.648
sg11
g12
sa(dp164
g2
S'CYS'
p165
sg4
I8181
sg5
F1.0
sg6
F187.591
sg7
F3.529
sg8
g9
sg10
F174.843
sg11
g12
sa(dp166
g2
S'CYS'
p167
sg4
I11954
sg5
F30.6688
sg6
F82.3
sg7
F3.403
sg8
S'CA'
p168
sg10
F58.107
sg11
g12
sa(dp169
g2
S'CYS'
p170
sg4
I11347
sg5
F17.99
sg6
F73.92
sg7
F6.348
sg8
S'CB'
p171
sg10
F33.117
sg11
g12
sa(dp172
g2
S'CYS'
p173
sg4
I17331
sg5
F3.723
sg6
F12.395
sg7
F0.7
sg8
g22
sg10
F8.378
sg11
g12
sa(dp174
g2
S'CYS'
p175
sg4
I15042
sg5
F-9.858
sg6
F43.5
sg7
F1.068
sg8
S'HA'
p176
sg10
F4.685
sg11
g12
sa(dp177
g2
S'CYS'
p178
sg4
I14553
sg5
F-39.82
sg6
F363.58
sg7
F7.196
sg8
S'HB2'
p179
sg10
F3.188
sg11
g62
sa(dp180
g2
S'CYS'
p181
sg4
I14186
sg5
F-44.2
sg6
F363.58
sg7
F6.522
sg8
S'HB3'
p182
sg10
F3.104
sg11
g62
sa(dp183
g2
S'CYS'
p184
sg4
I166
sg5
F0.1
sg6
F10.7
sg7
F1.47
sg8
S'HG'
p185
sg10
F2.099
sg11
g12
sa(dp186
g2
S'CYS'
p187
sg4
I13164
sg5
F-147.0
sg6
F628.0
sg7
F21.65
sg8
g35
sg10
F120.563
sg11
g12
sa(dp188
g2
S'GLN'
p189
sg4
I21300
sg5
F0.069
sg6
F1755.998
sg7
F11.294
sg8
g9
sg10
F176.381
sg11
g12
sa(dp190
g2
S'GLN'
p191
sg4
I29520
sg5
F4.1
sg6
F69.63
sg7
F2.184
sg8
S'CA'
p192
sg10
F56.593
sg11
g12
sa(dp193
g2
S'GLN'
p194
sg4
I27695
sg5
F17.41
sg6
F79.68
sg7
F2.091
sg8
S'CB'
p195
sg10
F29.211
sg11
g12
sa(dp196
g2
S'GLN'
p197
sg4
I2022
sg5
F6.789
sg6
F183.54
sg7
F7.944
sg8
S'CD'
p198
sg10
F179.252
sg11
g12
sa(dp199
g2
S'GLN'
p200
sg4
I19117
sg5
F2.285
sg6
F178.318
sg7
F1.829
sg8
S'CG'
p201
sg10
F33.783
sg11
g12
sa(dp202
g2
S'GLN'
p203
sg4
I33299
sg5
F0.006
sg6
F66.542
sg7
F0.684
sg8
g22
sg10
F8.218
sg11
g12
sa(dp204
g2
S'GLN'
p205
sg4
I25740
sg5
F1.567
sg6
F7.43
sg7
F0.439
sg8
S'HA'
p206
sg10
F4.268
sg11
g12
sa(dp207
g2
S'GLN'
p208
sg4
I23494
sg5
F-1.34
sg6
F5.18
sg7
F0.273
sg8
S'HB2'
p209
sg10
F2.042
sg11
g62
sa(dp210
g2
S'GLN'
p211
sg4
I22302
sg5
F-1.42
sg6
F20.9
sg7
F0.317
sg8
S'HB3'
p212
sg10
F2.012
sg11
g62
sa(dp213
g2
S'GLN'
p214
sg4
I16963
sg5
F-3.41
sg6
F23.893
sg7
F0.508
sg8
S'HE21'
p215
sg10
F7.212
sg11
g62
sa(dp216
g2
S'GLN'
p217
sg4
I16868
sg5
F2.1
sg6
F113.695
sg7
F0.96
sg8
S'HE22'
p218
sg10
F7.04
sg11
g62
sa(dp219
g2
S'GLN'
p220
sg4
I22128
sg5
F-1.76
sg6
F33.599
sg7
F0.351
sg8
S'HG2'
p221
sg10
F2.312
sg11
g62
sa(dp222
g2
S'GLN'
p223
sg4
I20418
sg5
F-1.395
sg6
F34.946
sg7
F0.38
sg8
S'HG3'
p224
sg10
F2.29
sg11
g62
sa(dp225
g2
S'GLN'
p226
sg4
I31370
sg5
F0.079
sg6
F216.5
sg7
F3.968
sg8
g35
sg10
F119.871
sg11
g12
sa(dp227
g2
S'GLN'
p228
sg4
I15151
sg5
F33.9
sg6
F155.0
sg7
F2.146
sg8
S'NE2'
p229
sg10
F111.86
sg11
g12
sa(dp230
g2
S'GLU'
p231
sg4
I40322
sg5
F0.074
sg6
F184.71
sg7
F3.992
sg8
g9
sg10
F176.817
sg11
g12
sa(dp232
g2
S'GLU'
p233
sg4
I54861
sg5
F3.77
sg6
F87.152
sg7
F2.175
sg8
S'CA'
p234
sg10
F57.322
sg11
g12
sa(dp235
g2
S'GLU'
p236
sg4
I51286
sg5
F9.08
sg6
F181.95
sg7
F2.138
sg8
S'CB'
p237
sg10
F30.027
sg11
g12
sa(dp238
g2
S'GLU'
p239
sg4
I751
sg5
F0.0
sg6
F198.609
sg7
F11.754
sg8
S'CD'
p240
sg10
F181.333
sg11
g12
sa(dp241
g2
S'GLU'
p242
sg4
I35173
sg5
F6.16
sg6
F181.2
sg7
F1.784
sg8
S'CG'
p243
sg10
F36.116
sg11
g12
sa(dp244
g2
S'GLU'
p245
sg4
I62155
sg5
F0.008
sg6
F64.682
sg7
F0.687
sg8
g22
sg10
F8.332
sg11
g12
sa(dp246
g2
S'GLU'
p247
sg4
I47447
sg5
F0.433
sg6
F31.32
sg7
F0.437
sg8
S'HA'
p248
sg10
F4.247
sg11
g12
sa(dp249
g2
S'GLU'
p250
sg4
I43261
sg5
F-1.47
sg6
F4.82
sg7
F0.224
sg8
S'HB2'
p251
sg10
F2.019
sg11
g62
sa(dp252
g2
S'GLU'
p253
sg4
I40587
sg5
F-1.633
sg6
F4.08
sg7
F0.232
sg8
S'HB3'
p254
sg10
F1.994
sg11
g62
sa(dp255
g2
S'GLU'
p256
sg4
I5
sg5
F2.727
sg6
F11.96
sg7
F3.299
sg8
S'HE2'
p257
sg10
F7.171
sg11
g12
sa(dp258
g2
S'GLU'
p259
sg4
I40309
sg5
F-0.674
sg6
F4.69
sg7
F0.224
sg8
S'HG2'
p260
sg10
F2.265
sg11
g62
sa(dp261
g2
S'GLU'
p262
sg4
I37364
sg5
F-0.1
sg6
F4.69
sg7
F0.228
sg8
S'HG3'
p263
sg10
F2.244
sg11
g62
sa(dp264
g2
S'GLU'
p265
sg4
I59032
sg5
F0.044
sg6
F429.0
sg7
F4.382
sg8
g35
sg10
F120.672
sg11
g12
sa(dp266
g2
S'GLY'
p267
sg4
I37674
sg5
F1.0
sg6
F189.533
sg7
F3.967
sg8
g9
sg10
F173.825
sg11
g12
sa(dp268
g2
S'GLY'
p269
sg4
I52443
sg5
F2.2
sg6
F108.3
sg7
F1.624
sg8
S'CA'
p270
sg10
F45.377
sg11
g12
sa(dp271
g2
S'GLY'
p272
sg4
I59854
sg5
F-15.3
sg6
F112.83
sg7
F0.929
sg8
g22
sg10
F8.332
sg11
g12
sa(dp273
g2
S'GLY'
p274
sg4
I45419
sg5
F-3.4
sg6
F8.64
sg7
F0.4
sg8
S'HA2'
p275
sg10
F3.963
sg11
g62
sa(dp276
g2
S'GLY'
p277
sg4
I43279
sg5
F-3.4
sg6
F7.69
sg7
F0.414
sg8
S'HA3'
p278
sg10
F3.891
sg11
g62
sa(dp279
g2
S'GLY'
p280
sg4
I55256
sg5
F0.2
sg6
F791.0
sg7
F7.858
sg8
g35
sg10
F109.762
sg11
g12
sa(dp281
g2
S'HIS'
p282
sg4
I10830
sg5
F1.0
sg6
F184.204
sg7
F4.876
sg8
g9
sg10
F175.11
sg11
g12
sa(dp283
g2
S'HIS'
p284
sg4
I15550
sg5
F11.4
sg6
F176.9
sg7
F2.8
sg8
S'CA'
p285
sg10
F56.521
sg11
g12
sa(dp286
g2
S'HIS'
p287
sg4
I14662
sg5
F17.8
sg6
F80.78
sg7
F2.418
sg8
S'CB'
p288
sg10
F30.294
sg11
g12
sa(dp289
g2
S'HIS'
p290
sg4
I5908
sg5
F7.19
sg6
F159.946
sg7
F5.929
sg8
S'CD2'
p291
sg10
F119.917
sg11
g53
sa(dp292
g2
S'HIS'
p293
sg4
I4641
sg5
F8.27
sg6
F166.282
sg7
F5.448
sg8
S'CE1'
p294
sg10
F137.278
sg11
g53
sa(dp295
g2
S'HIS'
p296
sg4
I169
sg5
F60.973
sg6
F139.83
sg7
F8.018
sg8
S'CG'
p297
sg10
F131.214
sg11
g53
sa(dp298
g2
S'HIS'
p299
sg4
I17517
sg5
F-0.3
sg6
F13.34
sg7
F0.746
sg8
g22
sg10
F8.261
sg11
g12
sa(dp300
g2
S'HIS'
p301
sg4
I13920
sg5
F0.676
sg6
F30.68
sg7
F0.614
sg8
S'HA'
p302
sg10
F4.62
sg11
g12
sa(dp303
g2
S'HIS'
p304
sg4
I13026
sg5
F-0.049
sg6
F45.897
sg7
F1.199
sg8
S'HB2'
p305
sg10
F3.175
sg11
g62
sa(dp306
g2
S'HIS'
p307
sg4
I12659
sg5
F-6.2
sg6
F38.5
sg7
F1.141
sg8
S'HB3'
p308
sg10
F3.107
sg11
g62
sa(dp309
g2
S'HIS'
p310
sg4
I841
sg5
F-15.0
sg6
F86.5
sg7
F9.354
sg8
S'HD1'
p311
sg10
F10.356
sg11
g12
sa(dp312
g2
S'HIS'
p313
sg4
I9406
sg5
F-25.85
sg6
F67.8
sg7
F3.606
sg8
S'HD2'
p314
sg10
F7.201
sg11
g53
sa(dp315
g2
S'HIS'
p316
sg4
I7460
sg5
F-26.6
sg6
F43.8
sg7
F2.35
sg8
S'HE1'
p317
sg10
F7.809
sg11
g53
sa(dp318
g2
S'HIS'
p319
sg4
I325
sg5
F-15.0
sg6
F76.4
sg7
F8.532
sg8
S'HE2'
p320
sg10
F11.407
sg11
g12
sa(dp321
g2
S'HIS'
p322
sg4
I16062
sg5
F0.2
sg6
F159.135
sg7
F4.8
sg8
g35
sg10
F119.637
sg11
g12
sa(dp323
g2
S'HIS'
p324
sg4
I642
sg5
F64.9
sg6
F261.013
sg7
F33.59
sg8
S'ND1'
p325
sg10
F193.065
sg11
g53
sa(dp326
g2
S'HIS'
p327
sg4
I601
sg5
F17.0
sg6
F257.572
sg7
F21.09
sg8
S'NE2'
p328
sg10
F180.661
sg11
g53
sa(dp329
g2
S'ILE'
p330
sg4
I26908
sg5
F0.087
sg6
F187.551
sg7
F4.584
sg8
g9
sg10
F175.791
sg11
g12
sa(dp331
g2
S'ILE'
p332
sg4
I37083
sg5
F30.9
sg6
F77.93
sg7
F2.747
sg8
S'CA'
p333
sg10
F61.61
sg11
g12
sa(dp334
g2
S'ILE'
p335
sg4
I34833
sg5
F18.1
sg6
F87.68
sg7
F2.206
sg8
S'CB'
p336
sg10
F38.605
sg11
g12
sa(dp337
g2
S'ILE'
p338
sg4
I25751
sg5
F2.7
sg6
F79.337
sg7
F2.418
sg8
S'CD1'
p339
sg10
F13.476
sg11
g19
sa(dp340
g2
S'ILE'
p341
sg4
I23803
sg5
F8.0
sg6
F74.78
sg7
F2.033
sg8
S'CG1'
p342
sg10
F27.705
sg11
g12
sa(dp343
g2
S'ILE'
p344
sg4
I25321
sg5
F0.79
sg6
F114.15
sg7
F1.981
sg8
S'CG2'
p345
sg10
F17.56
sg11
g19
sa(dp346
g2
S'ILE'
p347
sg4
I41937
sg5
F0.008
sg6
F174.747
sg7
F1.073
sg8
g22
sg10
F8.271
sg11
g12
sa(dp348
g2
S'ILE'
p349
sg4
I32043
sg5
F-9.0
sg6
F173.538
sg7
F1.105
sg8
S'HA'
p350
sg10
F4.178
sg11
g12
sa(dp351
g2
S'ILE'
p352
sg4
I30277
sg5
F-2.442
sg6
F38.7
sg7
F0.426
sg8
S'HB'
p353
sg10
F1.781
sg11
g12
sa(dp354
g2
S'ILE'
p355
sg4
I27626
sg5
F-10.1
sg6
F5.56
sg7
F0.468
sg8
S'HG12'
p356
sg10
F1.261
sg11
g62
sa(dp357
g2
S'ILE'
p358
sg4
I26587
sg5
F-10.1
sg6
F9.71
sg7
F0.503
sg8
S'HG13'
p359
sg10
F1.188
sg11
g62
sa(dp360
g2
S'ILE'
p361
sg4
I29445
sg5
F-4.15
sg6
F13.891
sg7
F0.347
sg8
S'HD11'
p362
sg10
F0.668
sg11
g19
sa(dp363
g2
g361
sg4
I29445
sg5
F-4.15
sg6
F13.891
sg7
F0.347
sg8
S'HD12'
p364
sg10
F0.668
sg11
g19
sa(dp365
g2
g361
sg4
I29445
sg5
F-4.15
sg6
F13.891
sg7
F0.347
sg8
S'HD13'
p366
sg10
F0.668
sg11
g19
sa(dp367
g2
S'ILE'
p368
sg4
I28924
sg5
F-3.62
sg6
F6.23
sg7
F0.313
sg8
S'HG21'
p369
sg10
F0.767
sg11
g19
sa(dp370
g2
g368
sg4
I28924
sg5
F-3.62
sg6
F6.23
sg7
F0.313
sg8
S'HG22'
p371
sg10
F0.767
sg11
g19
sa(dp372
g2
g368
sg4
I28924
sg5
F-3.62
sg6
F6.23
sg7
F0.313
sg8
S'HG23'
p373
sg10
F0.767
sg11
g19
sa(dp374
g2
S'ILE'
p375
sg4
I39554
sg5
F0.0
sg6
F531.0
sg7
F6.201
sg8
g35
sg10
F121.435
sg11
g12
sa(dp376
g2
S'LEU'
p377
sg4
I44207
sg5
F0.071
sg6
F189.78
sg7
F3.65
sg8
g9
sg10
F176.977
sg11
g12
sa(dp378
g2
S'LEU'
p379
sg4
I60917
sg5
F14.371
sg6
F158.32
sg7
F2.255
sg8
S'CA'
p380
sg10
F55.646
sg11
g12
sa(dp381
g2
S'LEU'
p382
sg4
I57258
sg5
F16.38
sg6
F93.18
sg7
F2.039
sg8
S'CB'
p383
sg10
F42.289
sg11
g12
sa(dp384
g2
S'LEU'
p385
sg4
I40990
sg5
F0.683
sg6
F120.7
sg7
F2.028
sg8
S'CD1'
p386
sg10
F24.704
sg11
S'methyl-geminal'
p387
sa(dp388
g2
S'LEU'
p389
sg4
I39113
sg5
F0.28
sg6
F116.3
sg7
F2.109
sg8
S'CD2'
p390
sg10
F24.103
sg11
g387
sa(dp391
g2
S'LEU'
p392
sg4
I36918
sg5
F15.3
sg6
F75.28
sg7
F1.521
sg8
S'CG'
p393
sg10
F26.809
sg11
g12
sa(dp394
g2
S'LEU'
p395
sg4
I69195
sg5
F-0.3
sg6
F125.18
sg7
F0.795
sg8
g22
sg10
F8.225
sg11
g12
sa(dp396
g2
S'LEU'
p397
sg4
I52733
sg5
F0.507
sg6
F119.411
sg7
F0.691
sg8
S'HA'
p398
sg10
F4.31
sg11
g12
sa(dp399
g2
S'LEU'
p400
sg4
I48651
sg5
F-1.522
sg6
F8.02
sg7
F0.366
sg8
S'HB2'
p401
sg10
F1.607
sg11
g62
sa(dp402
g2
S'LEU'
p403
sg4
I46600
sg5
F-1.79
sg6
F8.39
sg7
F0.382
sg8
S'HB3'
p404
sg10
F1.518
sg11
g62
sa(dp405
g2
S'LEU'
p406
sg4
I43475
sg5
F-2.08
sg6
F5.7
sg7
F0.346
sg8
S'HG'
p407
sg10
F1.503
sg11
g12
sa(dp408
g2
S'LEU'
p409
sg4
I48387
sg5
F-3.42
sg6
F30.176
sg7
F0.345
sg8
S'HD11'
p410
sg10
F0.747
sg11
g387
sa(dp411
g2
g409
sg4
I48387
sg5
F-3.42
sg6
F30.176
sg7
F0.345
sg8
S'HD12'
p412
sg10
F0.747
sg11
g387
sa(dp413
g2
g409
sg4
I48387
sg5
F-3.42
sg6
F30.176
sg7
F0.345
sg8
S'HD13'
p414
sg10
F0.747
sg11
g387
sa(dp415
g2
S'LEU'
p416
sg4
I46555
sg5
F-3.42
sg6
F24.504
sg7
F0.374
sg8
S'HD21'
p417
sg10
F0.725
sg11
g387
sa(dp418
g2
g416
sg4
I46555
sg5
F-3.42
sg6
F24.504
sg7
F0.374
sg8
S'HD22'
p419
sg10
F0.725
sg11
g387
sa(dp420
g2
g416
sg4
I46555
sg5
F-3.42
sg6
F24.504
sg7
F0.374
sg8
S'HD23'
p421
sg10
F0.725
sg11
g387
sa(dp422
g2
S'LEU'
p423
sg4
I64938
sg5
F0.044
sg6
F627.0
sg7
F8.978
sg8
g35
sg10
F122.003
sg11
g12
sa(dp424
g2
S'LYS'
p425
sg4
I36173
sg5
F0.112
sg6
F996.253
sg7
F6.358
sg8
g9
sg10
F176.591
sg11
g12
sa(dp426
g2
S'LYS'
p427
sg4
I50111
sg5
F22.02
sg6
F86.716
sg7
F2.272
sg8
S'CA'
p428
sg10
F56.935
sg11
g12
sa(dp429
g2
S'LYS'
p430
sg4
I46864
sg5
F-26.686
sg6
F229.2
sg7
F2.227
sg8
S'CB'
p431
sg10
F32.81
sg11
g12
sa(dp432
g2
S'LYS'
p433
sg4
I29403
sg5
F15.366
sg6
F77.48
sg7
F1.507
sg8
S'CD'
p434
sg10
F28.969
sg11
g12
sa(dp435
g2
S'LYS'
p436
sg4
I28495
sg5
F12.027
sg6
F89.98
sg7
F1.451
sg8
S'CE'
p437
sg10
F41.896
sg11
g12
sa(dp438
g2
S'LYS'
p439
sg4
I31094
sg5
F2.9
sg6
F77.38
sg7
F1.615
sg8
S'CG'
p440
sg10
F24.918
sg11
g12
sa(dp441
g2
S'LYS'
p442
sg4
I58906
sg5
F0.002
sg6
F64.423
sg7
F0.664
sg8
g22
sg10
F8.178
sg11
g12
sa(dp443
g2
S'LYS'
p444
sg4
I45467
sg5
F0.265
sg6
F32.65
sg7
F0.466
sg8
S'HA'
p445
sg10
F4.264
sg11
g12
sa(dp446
g2
S'LYS'
p447
sg4
I41062
sg5
F-1.416
sg6
F35.97
sg7
F0.319
sg8
S'HB2'
p448
sg10
F1.774
sg11
g62
sa(dp449
g2
S'LYS'
p450
sg4
I38519
sg5
F-1.404
sg6
F35.97
sg7
F0.334
sg8
S'HB3'
p451
sg10
F1.744
sg11
g62
sa(dp452
g2
S'LYS'
p453
sg4
I33176
sg5
F-1.68
sg6
F119.62
sg7
F0.751
sg8
S'HD2'
p454
sg10
F1.609
sg11
g62
sa(dp455
g2
S'LYS'
p456
sg4
I29506
sg5
F-2.02
sg6
F41.68
sg7
F0.369
sg8
S'HD3'
p457
sg10
F1.595
sg11
g62
sa(dp458
g2
S'LYS'
p459
sg4
I32694
sg5
F-0.493
sg6
F8.371
sg7
F0.217
sg8
S'HE2'
p460
sg10
F2.91
sg11
g62
sa(dp461
g2
S'LYS'
p462
sg4
I28496
sg5
F-0.046
sg6
F6.83
sg7
F0.223
sg8
S'HE3'
p463
sg10
F2.903
sg11
g62
sa(dp464
g2
S'LYS'
p465
sg4
I37233
sg5
F-1.447
sg6
F29.88
sg7
F0.312
sg8
S'HG2'
p466
sg10
F1.364
sg11
g62
sa(dp467
g2
S'LYS'
p468
sg4
I34123
sg5
F-1.83
sg6
F29.88
sg7
F0.326
sg8
S'HG3'
p469
sg10
F1.348
sg11
g62
sa(dp470
g2
S'LYS'
p471
sg4
I54081
sg5
F0.041
sg6
F217.0
sg7
F4.225
sg8
g35
sg10
F121.023
sg11
g12
sa(dp472
g2
S'LYS'
p473
sg4
I208
sg5
F1.95
sg6
F177.2
sg7
F30.664
sg8
S'NZ'
p474
sg10
F48.135
sg11
g12
sa(dp475
g2
S'LYS'
p476
sg4
I1284
sg5
F-10.9
sg6
F10.506
sg7
F1.147
sg8
S'HZ1'
p477
sg10
F7.313
sg11
g62
sa(dp478
g2
g476
sg4
I1284
sg5
F-10.9
sg6
F10.506
sg7
F1.147
sg8
S'HZ2'
p479
sg10
F7.313
sg11
g62
sa(dp480
g2
S'MET'
p481
sg4
I10752
sg5
F2.2
sg6
F183.25
sg7
F3.854
sg8
g9
sg10
F176.138
sg11
g12
sa(dp482
g2
S'MET'
p483
sg4
I15138
sg5
F4.37
sg6
F85.327
sg7
F2.338
sg8
S'CA'
p484
sg10
F56.129
sg11
g12
sa(dp485
g2
S'MET'
p486
sg4
I14032
sg5
F0.2
sg6
F83.38
sg7
F2.508
sg8
S'CB'
p487
sg10
F32.988
sg11
g12
sa(dp488
g2
S'MET'
p489
sg4
I7031
sg5
F8.9
sg6
F88.2
sg7
F2.736
sg8
S'CE'
p490
sg10
F17.206
sg11
g19
sa(dp491
g2
S'MET'
p492
sg4
I9038
sg5
F2.3
sg6
F81.18
sg7
F1.706
sg8
S'CG'
p493
sg10
F32.046
sg11
g12
sa(dp494
g2
S'MET'
p495
sg4
I16373
sg5
F-0.21
sg6
F19.9722
sg7
F0.625
sg8
g22
sg10
F8.26
sg11
g12
sa(dp496
g2
S'MET'
p497
sg4
I12988
sg5
F-0.93
sg6
F313.565
sg7
F2.756
sg8
S'HA'
p498
sg10
F4.423
sg11
g12
sa(dp499
g2
S'MET'
p500
sg4
I11698
sg5
F-27.312
sg6
F33.75
sg7
F0.632
sg8
S'HB2'
p501
sg10
F2.021
sg11
g62
sa(dp502
g2
S'MET'
p503
sg4
I11022
sg5
F-27.312
sg6
F12.94
sg7
F0.563
sg8
S'HB3'
p504
sg10
F1.99
sg11
g62
sa(dp505
g2
S'MET'
p506
sg4
I10823
sg5
F-33.86
sg6
F32.7
sg7
F1.633
sg8
S'HG2'
p507
sg10
F2.368
sg11
g62
sa(dp508
g2
S'MET'
p509
sg4
I10200
sg5
F-33.86
sg6
F31.7
sg7
F1.763
sg8
S'HG3'
p510
sg10
F2.338
sg11
g62
sa(dp511
g2
S'MET'
p512
sg4
I7978
sg5
F-24.86
sg6
F10.2
sg7
F1.786
sg8
S'HE1'
p513
sg10
F1.733
sg11
g19
sa(dp514
g2
g512
sg4
I7978
sg5
F-24.86
sg6
F10.2
sg7
F1.786
sg8
S'HE2'
p515
sg10
F1.733
sg11
g19
sa(dp516
g2
g512
sg4
I7978
sg5
F-24.86
sg6
F10.2
sg7
F1.786
sg8
S'HE3'
p517
sg10
F1.733
sg11
g19
sa(dp518
g2
S'MET'
p519
sg4
I15555
sg5
F0.2
sg6
F222.5
sg7
F4.873
sg8
g35
sg10
F120.064
sg11
g12
sa(dp520
g2
S'PHE'
p521
sg4
I18932
sg5
F0.088
sg6
F184.929
sg7
F3.422
sg8
g9
sg10
F175.439
sg11
g12
sa(dp522
g2
S'PHE'
p523
sg4
I26056
sg5
F4.917
sg6
F73.43
sg7
F2.653
sg8
S'CA'
p524
sg10
F58.109
sg11
g12
sa(dp525
g2
S'PHE'
p526
sg4
I24594
sg5
F21.4
sg6
F137.0
sg7
F2.348
sg8
S'CB'
p527
sg10
F39.978
sg11
g12
sa(dp528
g2
S'PHE'
p529
sg4
I10505
sg5
F7.16
sg6
F731.37
sg7
F7.418
sg8
S'CD1'
p530
sg10
F131.374
sg11
S'aroma-opposite'
p531
sa(dp532
g2
S'PHE'
p533
sg4
I7641
sg5
F7.16
sg6
F731.37
sg7
F8.32
sg8
S'CD2'
p534
sg10
F131.393
sg11
g531
sa(dp535
g2
S'PHE'
p536
sg4
I9190
sg5
F0.0
sg6
F144.992
sg7
F4.353
sg8
S'CE1'
p537
sg10
F130.467
sg11
g531
sa(dp538
g2
S'PHE'
p539
sg4
I6691
sg5
F7.472
sg6
F139.7
sg7
F3.899
sg8
S'CE2'
p540
sg10
F130.538
sg11
g531
sa(dp541
g2
S'PHE'
p542
sg4
I286
sg5
F7.229
sg6
F152.844
sg7
F12.244
sg8
S'CG'
p543
sg10
F137.226
sg11
g53
sa(dp544
g2
S'PHE'
p545
sg4
I7065
sg5
F7.351
sg6
F138.6
sg7
F3.754
sg8
S'CZ'
p546
sg10
F129.041
sg11
g53
sa(dp547
g2
S'PHE'
p548
sg4
I30015
sg5
F-0.5
sg6
F175.066
sg7
F1.212
sg8
g22
sg10
F8.349
sg11
g12
sa(dp549
g2
S'PHE'
p550
sg4
I22810
sg5
F1.45
sg6
F59.7
sg7
F0.684
sg8
S'HA'
p551
sg10
F4.621
sg11
g12
sa(dp552
g2
S'PHE'
p553
sg4
I21407
sg5
F0.159
sg6
F7.979
sg7
F0.385
sg8
S'HB2'
p554
sg10
F2.99
sg11
g62
sa(dp555
g2
S'PHE'
p556
sg4
I20858
sg5
F-0.212
sg6
F12.72
sg7
F0.408
sg8
S'HB3'
p557
sg10
F2.931
sg11
g62
sa(dp558
g2
S'PHE'
p559
sg4
I18211
sg5
F0.603
sg6
F12.154
sg7
F0.417
sg8
S'HD1'
p560
sg10
F7.034
sg11
S'aroma-opposite'
p561
sa(dp562
g2
S'PHE'
p563
sg4
I15323
sg5
F0.603
sg6
F12.154
sg7
F0.435
sg8
S'HD2'
p564
sg10
F7.031
sg11
g561
sa(dp565
g2
S'PHE'
p566
sg4
I16002
sg5
F-2.838
sg6
F14.08
sg7
F0.48
sg8
S'HE1'
p567
sg10
F7.054
sg11
g561
sa(dp568
g2
S'PHE'
p569
sg4
I13675
sg5
F0.136
sg6
F12.9
sg7
F0.473
sg8
S'HE2'
p570
sg10
F7.052
sg11
g561
sa(dp571
g2
S'PHE'
p572
sg4
I11439
sg5
F-7.14
sg6
F43.623
sg7
F0.768
sg8
S'HZ'
p573
sg10
F6.992
sg11
g53
sa(dp574
g2
S'PHE'
p575
sg4
I28025
sg5
F0.067
sg6
F229.0
sg7
F4.868
sg8
g35
sg10
F120.382
sg11
g12
sa(dp576
g2
S'PRO'
p577
sg4
I19825
sg5
F0.047
sg6
F183.517
sg7
F3.653
sg8
g9
sg10
F176.671
sg11
g12
sa(dp578
g2
S'PRO'
p579
sg4
I28773
sg5
F4.186
sg6
F177.787
sg7
F2.908
sg8
S'CA'
p580
sg10
F63.353
sg11
g12
sa(dp581
g2
S'PRO'
p582
sg4
I27061
sg5
F6.11
sg6
F81.08
sg7
F1.739
sg8
S'CB'
p583
sg10
F31.875
sg11
g12
sa(dp584
g2
S'PRO'
p585
sg4
I19240
sg5
F4.987
sg6
F98.58
sg7
F1.888
sg8
S'CD'
p586
sg10
F50.31
sg11
g12
sa(dp587
g2
S'PRO'
p588
sg4
I19115
sg5
F18.28
sg6
F76.28
sg7
F1.766
sg8
S'CG'
p589
sg10
F27.239
sg11
g12
sa(dp590
g2
S'PRO'
p591
sg4
I2
sg5
F60.97
sg6
F63.11
sg7
F1.513
sg8
g22
sg10
F62.04
sg11
g12
sa(dp592
g2
S'PRO'
p593
sg4
I25927
sg5
F0.741
sg6
F135.8
sg7
F0.89
sg8
S'HA'
p594
sg10
F4.389
sg11
g12
sa(dp595
g2
S'PRO'
p596
sg4
I24211
sg5
F-1.501
sg6
F5.63
sg7
F0.374
sg8
S'HB2'
p597
sg10
F2.068
sg11
g62
sa(dp598
g2
S'PRO'
p599
sg4
I23405
sg5
F-3.48
sg6
F6.1
sg7
F0.387
sg8
S'HB3'
p600
sg10
F1.994
sg11
g62
sa(dp601
g2
S'PRO'
p602
sg4
I22618
sg5
F-6.56
sg6
F7.67
sg7
F0.463
sg8
S'HD2'
p603
sg10
F3.632
sg11
g62
sa(dp604
g2
S'PRO'
p605
sg4
I21790
sg5
F-6.56
sg6
F6.3
sg7
F0.485
sg8
S'HD3'
p606
sg10
F3.595
sg11
g62
sa(dp607
g2
S'PRO'
p608
sg4
I21989
sg5
F-2.35
sg6
F4.92
sg7
F0.346
sg8
S'HG2'
p609
sg10
F1.917
sg11
g62
sa(dp610
g2
S'PRO'
p611
sg4
I20352
sg5
F-1.52
sg6
F4.92
sg7
F0.36
sg8
S'HG3'
p612
sg10
F1.891
sg11
g62
sa(dp613
g2
S'PRO'
p614
sg4
I946
sg5
F31.27
sg6
F430.0
sg7
F35.824
sg8
g35
sg10
F135.994
sg11
g53
sa(dp615
g2
S'SER'
p616
sg4
I32500
sg5
F0.0
sg6
F197.1
sg7
F3.204
sg8
g9
sg10
F174.601
sg11
g12
sa(dp617
g2
S'SER'
p618
sg4
I45339
sg5
F24.402
sg6
F175.2
sg7
F2.219
sg8
S'CA'
p619
sg10
F58.716
sg11
g12
sa(dp620
g2
S'SER'
p621
sg4
I42234
sg5
F-939.28
sg6
F171.73
sg7
F5.383
sg8
S'CB'
p622
sg10
F63.713
sg11
g12
sa(dp623
g2
S'SER'
p624
sg4
I50449
sg5
F-15.3
sg6
F13.13
sg7
F0.615
sg8
g22
sg10
F8.279
sg11
g12
sa(dp625
g2
S'SER'
p626
sg4
I39760
sg5
F1.43
sg6
F58.739
sg7
F0.497
sg8
S'HA'
p627
sg10
F4.483
sg11
g12
sa(dp628
g2
S'SER'
p629
sg4
I36618
sg5
F0.61
sg6
F8.198
sg7
F0.279
sg8
S'HB2'
p630
sg10
F3.868
sg11
g62
sa(dp631
g2
S'SER'
p632
sg4
I33894
sg5
F0.61
sg6
F7.77
sg7
F0.296
sg8
S'HB3'
p633
sg10
F3.841
sg11
g62
sa(dp634
g2
S'SER'
p635
sg4
I678
sg5
F0.13
sg6
F11.36
sg7
F1.205
sg8
S'HG'
p636
sg10
F5.518
sg11
g12
sa(dp637
g2
S'SER'
p638
sg4
I46855
sg5
F0.0
sg6
F227.5
sg7
F3.939
sg8
g35
sg10
F116.287
sg11
g12
sa(dp639
g2
S'THR'
p640
sg4
I27922
sg5
F11.847
sg6
F185.918
sg7
F4.246
sg8
g9
sg10
F174.464
sg11
g12
sa(dp641
g2
S'THR'
p642
sg4
I38914
sg5
F34.443
sg6
F92.659
sg7
F2.658
sg8
S'CA'
p643
sg10
F62.245
sg11
g12
sa(dp644
g2
S'THR'
p645
sg4
I36242
sg5
F-939.28
sg6
F629.206
sg7
F6.601
sg8
S'CB'
p646
sg10
F69.599
sg11
g12
sa(dp647
g2
S'THR'
p648
sg4
I25736
sg5
F10.907
sg6
F175.6
sg7
F1.984
sg8
S'CG2'
p649
sg10
F21.591
sg11
g19
sa(dp650
g2
S'THR'
p651
sg4
I44831
sg5
F0.02
sg6
F175.5
sg7
F1.139
sg8
g22
sg10
F8.244
sg11
g12
sa(dp652
g2
S'THR'
p653
sg4
I34443
sg5
F0.87
sg6
F54.9
sg7
F0.556
sg8
S'HA'
p654
sg10
F4.458
sg11
g12
sa(dp655
g2
S'THR'
p656
sg4
I31798
sg5
F0.087
sg6
F73.47
sg7
F0.837
sg8
S'HB'
p657
sg10
F4.172
sg11
g12
sa(dp658
g2
S'THR'
p659
sg4
I1227
sg5
F0.265
sg6
F11.01
sg7
F1.322
sg8
S'HG1'
p660
sg10
F5.311
sg11
g12
sa(dp661
g2
S'THR'
p662
sg4
I31493
sg5
F-12.1
sg6
F22.21
sg7
F0.331
sg8
S'HG21'
p663
sg10
F1.139
sg11
g19
sa(dp664
g2
g662
sg4
I31493
sg5
F-12.1
sg6
F22.21
sg7
F0.331
sg8
S'HG22'
p665
sg10
F1.139
sg11
g19
sa(dp666
g2
g662
sg4
I31493
sg5
F-12.1
sg6
F22.21
sg7
F0.331
sg8
S'HG23'
p667
sg10
F1.139
sg11
g19
sa(dp668
g2
S'THR'
p669
sg4
I41840
sg5
F0.0
sg6
F402.0
sg7
F6.833
sg8
g35
sg10
F115.489
sg11
g12
sa(dp670
g2
S'TRP'
p671
sg4
I6074
sg5
F10.353
sg6
F184.3
sg7
F3.89
sg8
g9
sg10
F176.127
sg11
g12
sa(dp672
g2
S'TRP'
p673
sg4
I8367
sg5
F28.7436
sg6
F177.913
sg7
F2.987
sg8
S'CA'
p674
sg10
F57.707
sg11
g12
sa(dp675
g2
S'TRP'
p676
sg4
I7908
sg5
F1.6
sg6
F123.643
sg7
F2.941
sg8
S'CB'
p677
sg10
F30.1
sg11
g12
sa(dp678
g2
S'TRP'
p679
sg4
I4114
sg5
F30.236
sg6
F158.329
sg7
F4.345
sg8
S'CD1'
p680
sg10
F126.283
sg11
g53
sa(dp681
g2
S'TRP'
p682
sg4
I141
sg5
F120.2
sg6
F155.174
sg7
F2.94
sg8
S'CD2'
p683
sg10
F128.394
sg11
g53
sa(dp684
g2
S'TRP'
p685
sg4
I178
sg5
F113.888
sg6
F177.71
sg7
F6.987
sg8
S'CE2'
p686
sg10
F138.222
sg11
g53
sa(dp687
g2
S'TRP'
p688
sg4
I3486
sg5
F-10.872
sg6
F174.807
sg7
F5.224
sg8
S'CE3'
p689
sg10
F120.128
sg11
g53
sa(dp690
g2
S'TRP'
p691
sg4
I205
sg5
F25.208
sg6
F116.526
sg7
F8.958
sg8
S'CG'
p692
sg10
F109.96
sg11
g53
sa(dp693
g2
S'TRP'
p694
sg4
I3680
sg5
F-6.333
sg6
F160.818
sg7
F5.066
sg8
S'CH2'
p695
sg10
F123.516
sg11
g53
sa(dp696
g2
S'TRP'
p697
sg4
I3943
sg5
F7.375
sg6
F144.03
sg7
F4.254
sg8
S'CZ2'
p698
sg10
F114.032
sg11
g53
sa(dp699
g2
S'TRP'
p700
sg4
I3524
sg5
F-8.702
sg6
F161.54
sg7
F4.868
sg8
S'CZ3'
p701
sg10
F121.095
sg11
g53
sa(dp702
g2
S'TRP'
p703
sg4
I10154
sg5
F5.16
sg6
F59.402
sg7
F0.93
sg8
g22
sg10
F8.28
sg11
g12
sa(dp704
g2
S'TRP'
p705
sg4
I7779
sg5
F2.243
sg6
F11.414
sg7
F0.54
sg8
S'HA'
p706
sg10
F4.682
sg11
g12
sa(dp707
g2
S'TRP'
p708
sg4
I7384
sg5
F0.42
sg6
F5.35
sg7
F0.355
sg8
S'HB2'
p709
sg10
F3.174
sg11
g62
sa(dp710
g2
S'TRP'
p711
sg4
I7181
sg5
F-0.3776
sg6
F4.44
sg7
F0.374
sg8
S'HB3'
p712
sg10
F3.112
sg11
g62
sa(dp713
g2
S'TRP'
p714
sg4
I6628
sg5
F2.4271
sg6
F10.75
sg7
F0.365
sg8
S'HD1'
p715
sg10
F7.126
sg11
g53
sa(dp716
g2
S'TRP'
p717
sg4
I7182
sg5
F-1.279
sg6
F18.0
sg7
F0.718
sg8
S'HE1'
p718
sg10
F10.074
sg11
g12
sa(dp719
g2
S'TRP'
p720
sg4
I5849
sg5
F1.85
sg6
F10.815
sg7
F0.536
sg8
S'HE3'
p721
sg10
F7.284
sg11
g53
sa(dp722
g2
S'TRP'
p723
sg4
I5797
sg5
F2.84
sg6
F10.9
sg7
F0.478
sg8
S'HH2'
p724
sg10
F6.943
sg11
g53
sa(dp725
g2
S'TRP'
p726
sg4
I6270
sg5
F2.63
sg6
F10.81
sg7
F0.43
sg8
S'HZ2'
p727
sg10
F7.26
sg11
g53
sa(dp728
g2
S'TRP'
p729
sg4
I5657
sg5
F0.76
sg6
F8.898
sg7
F0.497
sg8
S'HZ3'
p730
sg10
F6.836
sg11
g53
sa(dp731
g2
S'TRP'
p732
sg4
I9099
sg5
F25.8
sg6
F224.6
sg7
F4.846
sg8
g35
sg10
F121.664
sg11
g12
sa(dp733
g2
S'TRP'
p734
sg4
I5795
sg5
F0.53
sg6
F249.5
sg7
F3.909
sg8
S'NE1'
p735
sg10
F129.214
sg11
g53
sa(dp736
g2
S'TYR'
p737
sg4
I15592
sg5
F2.2
sg6
F184.78
sg7
F4.705
sg8
g9
sg10
F175.316
sg11
g12
sa(dp738
g2
S'TYR'
p739
sg4
I21816
sg5
F2.2
sg6
F69.56
sg7
F2.613
sg8
S'CA'
p740
sg10
F58.127
sg11
g12
sa(dp741
g2
S'TYR'
p742
sg4
I20343
sg5
F18.38
sg6
F175.51
sg7
F2.729
sg8
S'CB'
p743
sg10
F39.324
sg11
g12
sa(dp744
g2
S'TYR'
p745
sg4
I9563
sg5
F19.589
sg6
F733.91
sg7
F16.948
sg8
S'CD1'
p746
sg10
F132.866
sg11
g531
sa(dp747
g2
S'TYR'
p748
sg4
I6542
sg5
F19.589
sg6
F733.91
sg7
F20.211
sg8
S'CD2'
p749
sg10
F133.072
sg11
g531
sa(dp750
g2
S'TYR'
p751
sg4
I9490
sg5
F40.435
sg6
F177.717
sg7
F3.795
sg8
S'CE1'
p752
sg10
F117.734
sg11
g531
sa(dp753
g2
S'TYR'
p754
sg4
I6493
sg5
F34.1221
sg6
F154.1
sg7
F3.031
sg8
S'CE2'
p755
sg10
F117.779
sg11
g531
sa(dp756
g2
S'TYR'
p757
sg4
I266
sg5
F7.113
sg6
F175.115
sg7
F12.173
sg8
S'CG'
p758
sg10
F128.403
sg11
g53
sa(dp759
g2
S'TYR'
p760
sg4
I216
sg5
F6.839
sg6
F165.718
sg7
F16.034
sg8
S'CZ'
p761
sg10
F154.991
sg11
g53
sa(dp762
g2
S'TYR'
p763
sg4
I25862
sg5
F0.02
sg6
F12.009
sg7
F0.739
sg8
g22
sg10
F8.304
sg11
g12
sa(dp764
g2
S'TYR'
p765
sg4
I19854
sg5
F0.442
sg6
F7.16
sg7
F0.569
sg8
S'HA'
p766
sg10
F4.615
sg11
g12
sa(dp767
g2
S'TYR'
p768
sg4
I18588
sg5
F-21.23
sg6
F23.28
sg7
F0.487
sg8
S'HB2'
p769
sg10
F2.893
sg11
g62
sa(dp770
g2
S'TYR'
p771
sg4
I18171
sg5
F-21.23
sg6
F23.28
sg7
F0.505
sg8
S'HB3'
p772
sg10
F2.831
sg11
g62
sa(dp773
g2
S'TYR'
p774
sg4
I16267
sg5
F0.19
sg6
F9.39
sg7
F0.387
sg8
S'HD1'
p775
sg10
F6.913
sg11
g561
sa(dp776
g2
S'TYR'
p777
sg4
I13742
sg5
F0.5522
sg6
F10.499
sg7
F0.394
sg8
S'HD2'
p778
sg10
F6.911
sg11
g561
sa(dp779
g2
S'TYR'
p780
sg4
I15485
sg5
F0.08
sg6
F11.8
sg7
F0.319
sg8
S'HE1'
p781
sg10
F6.69
sg11
g561
sa(dp782
g2
S'TYR'
p783
sg4
I13214
sg5
F0.43
sg6
F11.7
sg7
F0.33
sg8
S'HE2'
p784
sg10
F6.689
sg11
g561
sa(dp785
g2
S'TYR'
p786
sg4
I363
sg5
F-0.788
sg6
F31.0
sg7
F2.201
sg8
S'HH'
p787
sg10
F9.162
sg11
g12
sa(dp788
g2
S'TYR'
p789
sg4
I23572
sg5
F0.2
sg6
F818.0
sg7
F14.047
sg8
g35
sg10
F120.877
sg11
g12
sa(dp790
g2
S'VAL'
p791
sg4
I35667
sg5
F1.0
sg6
F205.699
sg7
F3.242
sg8
g9
sg10
F175.638
sg11
g12
sa(dp792
g2
S'VAL'
p793
sg4
I48856
sg5
F29.564
sg6
F91.707
sg7
F2.903
sg8
S'CA'
p794
sg10
F62.529
sg11
g12
sa(dp795
g2
S'VAL'
p796
sg4
I45470
sg5
F17.099
sg6
F175.751
sg7
F2.103
sg8
S'CB'
p797
sg10
F32.746
sg11
g12
sa(dp798
g2
S'VAL'
p799
sg4
I33534
sg5
F-7.4
sg6
F117.16
sg7
F1.897
sg8
S'CG1'
p800
sg10
F21.527
sg11
g387
sa(dp801
g2
S'VAL'
p802
sg4
I32334
sg5
F-5.648
sg6
F121.47
sg7
F2.043
sg8
S'CG2'
p803
sg10
F21.324
sg11
g387
sa(dp804
g2
S'VAL'
p805
sg4
I55381
sg5
F-0.41
sg6
F15.05
sg7
F0.687
sg8
g22
sg10
F8.28
sg11
g12
sa(dp806
g2
S'VAL'
p807
sg4
I42441
sg5
F-2.83
sg6
F54.971
sg7
F0.646
sg8
S'HA'
p808
sg10
F4.172
sg11
g12
sa(dp809
g2
S'VAL'
p810
sg4
I39770
sg5
F-27.48
sg6
F31.75
sg7
F0.474
sg8
S'HB'
p811
sg10
F1.976
sg11
g12
sa(dp812
g2
S'VAL'
p813
sg4
I39325
sg5
F-27.2
sg6
F24.2
sg7
F0.35
sg8
S'HG11'
p814
sg10
F0.82
sg11
g387
sa(dp815
g2
g813
sg4
I39325
sg5
F-27.2
sg6
F24.2
sg7
F0.35
sg8
S'HG12'
p816
sg10
F0.82
sg11
g387
sa(dp817
g2
g813
sg4
I39325
sg5
F-27.2
sg6
F24.2
sg7
F0.35
sg8
S'HG13'
p818
sg10
F0.82
sg11
g387
sa(dp819
g2
S'VAL'
p820
sg4
I38582
sg5
F-27.2
sg6
F56.56
sg7
F0.462
sg8
S'HG21'
p821
sg10
F0.8
sg11
g387
sa(dp822
g2
g820
sg4
I38582
sg5
F-27.2
sg6
F56.56
sg7
F0.462
sg8
S'HG22'
p823
sg10
F0.8
sg11
g387
sa(dp824
g2
g820
sg4
I38582
sg5
F-27.2
sg6
F56.56
sg7
F0.462
sg8
S'HG23'
p825
sg10
F0.8
sg11
g387
sa(dp826
g2
S'VAL'
p827
sg4
I52437
sg5
F0.2
sg6
F529.0
sg7
F8.171
sg8
g35
sg10
F121.205
sg11
g12
sa.