(lp0
(dp1
S'comp_id'
p2
S'ALA'
p3
sS'count'
p4
I29402
sS'min'
p5
F164.477
sS'max'
p6
F187.2
sS'primary'
p7
I01
sS'std'
p8
F2.078
sS'atom_id'
p9
S'C'
p10
sS'avg'
p11
F177.817
sS'norm_freq'
p12
F0.638
sS'desc'
p13
S'isolated'
p14
sa(dp15
g2
S'ALA'
p16
sg4
I40106
sg5
F39.922
sg6
F65.516
sg7
I01
sg8
F1.946
sg9
S'CA'
p17
sg11
F53.181
sg12
F0.871
sg13
g14
sa(dp18
g2
S'ALA'
p19
sg4
I37648
sg5
F0.0
sg6
F37.817
sg7
I01
sg8
F1.776
sg9
S'CB'
p20
sg11
F18.97
sg12
F0.817
sg13
S'methyl'
p21
sa(dp22
g2
S'ALA'
p23
sg4
I46070
sg5
F3.53
sg6
F12.11
sg7
I01
sg8
F0.585
sg9
S'H'
p24
sg11
F8.193
sg12
F1.0
sg13
g14
sa(dp25
g2
S'ALA'
p26
sg4
I34476
sg5
F0.87
sg6
F6.514
sg7
I01
sg8
F0.425
sg9
S'HA'
p27
sg11
F4.243
sg12
F0.748
sg13
g14
sa(dp28
g2
S'ALA'
p29
sg4
I32381
sg5
F-0.88
sg6
F3.3376
sg7
I01
sg8
F0.247
sg9
S'HB1'
p30
sg11
F1.357
sg12
F0.703
sg13
g21
sa(dp31
g2
g29
sg4
I32381
sg5
F-0.88
sg6
F3.3376
sg7
I01
sg8
F0.247
sg9
S'HB2'
p32
sg11
F1.357
sg12
F0.703
sg13
g21
sa(dp33
g2
g29
sg4
I32381
sg5
F-0.88
sg6
F3.3376
sg7
I01
sg8
F0.247
sg9
S'HB3'
p34
sg11
F1.357
sg12
F0.703
sg13
g21
sa(dp35
g2
S'ALA'
p36
sg4
I42783
sg5
F98.053
sg6
F142.81
sg7
I01
sg8
F3.475
sg9
S'N'
p37
sg11
F123.27
sg12
F0.929
sg13
g14
sa(dp38
g2
S'ARG'
p39
sg4
I18487
sg5
F167.44
sg6
F184.51
sg7
I01
sg8
F2.003
sg9
g10
sg11
F176.472
sg12
F0.6
sg13
g14
sa(dp40
g2
S'ARG'
p41
sg4
I25987
sg5
F43.271
sg6
F67.98
sg7
I01
sg8
F2.303
sg9
S'CA'
p42
sg11
F56.8
sg12
F0.843
sg13
g14
sa(dp43
g2
S'ARG'
p44
sg4
I24241
sg5
F20.705
sg6
F42.504
sg7
I01
sg8
F1.817
sg9
S'CB'
p45
sg11
F30.656
sg12
F0.786
sg13
g14
sa(dp46
g2
S'ARG'
p47
sg4
I15644
sg5
F32.499
sg6
F50.882
sg7
I01
sg8
F0.894
sg9
S'CD'
p48
sg11
F43.157
sg12
F0.507
sg13
g14
sa(dp49
g2
S'ARG'
p50
sg4
I15443
sg5
F18.22
sg6
F39.975
sg7
I01
sg8
F1.179
sg9
S'CG'
p51
sg11
F27.213
sg12
F0.501
sg13
g14
sa(dp52
g2
S'ARG'
p53
sg4
I405
sg5
F145.032
sg6
F179.69
sg7
I00
sg8
F2.975
sg9
S'CZ'
p54
sg11
F160.031
sg12
F0.013
sg13
g14
sa(dp55
g2
S'ARG'
p56
sg4
I30832
sg5
F3.566
sg6
F12.69
sg7
I01
sg8
F0.607
sg9
g24
sg11
F8.237
sg12
F1.0
sg13
g14
sa(dp57
g2
S'ARG'
p58
sg4
I23653
sg5
F1.34
sg6
F6.515
sg7
I01
sg8
F0.455
sg9
S'HA'
p59
sg11
F4.289
sg12
F0.767
sg13
g14
sa(dp60
g2
S'ARG'
p61
sg4
I21490
sg5
F-0.773
sg6
F3.493
sg7
I01
sg8
F0.267
sg9
S'HB2'
p62
sg11
F1.793
sg12
F0.697
sg13
S'geminal'
p63
sa(dp64
g2
S'ARG'
p65
sg4
I20316
sg5
F-0.857
sg6
F3.32
sg7
I01
sg8
F0.278
sg9
S'HB3'
p66
sg11
F1.762
sg12
F0.659
sg13
g63
sa(dp67
g2
S'ARG'
p68
sg4
I18994
sg5
F0.961
sg6
F4.692
sg7
I01
sg8
F0.234
sg9
S'HD2'
p69
sg11
F3.117
sg12
F0.616
sg13
g63
sa(dp70
g2
S'ARG'
p71
sg4
I17202
sg5
F0.733
sg6
F4.564
sg7
I01
sg8
F0.255
sg9
S'HD3'
p72
sg11
F3.102
sg12
F0.558
sg13
g63
sa(dp73
g2
S'ARG'
p74
sg4
I6091
sg5
F2.201
sg6
F11.88
sg7
I01
sg8
F0.572
sg9
S'HE'
p75
sg11
F7.352
sg12
F0.198
sg13
g14
sa(dp76
g2
S'ARG'
p77
sg4
I19333
sg5
F-0.72
sg6
F3.51
sg7
I01
sg8
F0.27
sg9
S'HG2'
p78
sg11
F1.565
sg12
F0.627
sg13
g63
sa(dp79
g2
S'ARG'
p80
sg4
I17811
sg5
F-0.742
sg6
F3.51
sg7
I01
sg8
F0.286
sg9
S'HG3'
p81
sg11
F1.543
sg12
F0.578
sg13
g63
sa(dp82
g2
S'ARG'
p83
sg4
I560
sg5
F5.642
sg6
F9.82
sg7
I00
sg8
F0.425
sg9
S'HH11'
p84
sg11
F6.886
sg12
F0.018
sg13
g63
sa(dp85
g2
S'ARG'
p86
sg4
I428
sg5
F5.92
sg6
F8.76
sg7
I00
sg8
F0.345
sg9
S'HH12'
p87
sg11
F6.812
sg12
F0.014
sg13
g63
sa(dp88
g2
S'ARG'
p89
sg4
I477
sg5
F4.845
sg6
F8.66
sg7
I00
sg8
F0.354
sg9
S'HH21'
p90
sg11
F6.779
sg12
F0.015
sg13
g63
sa(dp91
g2
S'ARG'
p92
sg4
I394
sg5
F5.92
sg6
F8.389
sg7
I00
sg8
F0.314
sg9
S'HH22'
p93
sg11
F6.768
sg12
F0.013
sg13
g63
sa(dp94
g2
S'ARG'
p95
sg4
I27680
sg5
F102.782
sg6
F137.6
sg7
I01
sg8
F3.646
sg9
g37
sg11
F120.789
sg12
F0.898
sg13
g14
sa(dp96
g2
S'ARG'
p97
sg4
I3407
sg5
F67.0
sg6
F99.808
sg7
I01
sg8
F1.598
sg9
S'NE'
p98
sg11
F84.587
sg12
F0.111
sg13
g14
sa(dp99
g2
S'ARG'
p100
sg4
I96
sg5
F67.6
sg6
F87.786
sg7
I00
sg8
F4.898
sg9
S'NH1'
p101
sg11
F73.907
sg12
F0.003
sg13
g63
sa(dp102
g2
S'ARG'
p103
sg4
I89
sg5
F69.9
sg6
F85.28
sg7
I00
sg8
F2.727
sg9
S'NH2'
p104
sg11
F72.648
sg12
F0.003
sg13
g63
sa(dp105
g2
S'ASN'
p106
sg4
I15886
sg5
F167.039
sg6
F185.3
sg7
I01
sg8
F1.779
sg9
g10
sg11
F175.302
sg12
F0.618
sg13
g14
sa(dp107
g2
S'ASN'
p108
sg4
I22112
sg5
F41.58
sg6
F66.211
sg7
I01
sg8
F1.882
sg9
S'CA'
p109
sg11
F53.562
sg12
F0.86
sg13
g14
sa(dp110
g2
S'ASN'
p111
sg4
I20922
sg5
F26.448
sg6
F53.678
sg7
I01
sg8
F1.671
sg9
S'CB'
p112
sg11
F38.69
sg12
F0.814
sg13
g14
sa(dp113
g2
S'ASN'
p114
sg4
I1525
sg5
F166.399
sg6
F183.8
sg7
I00
sg8
F1.404
sg9
S'CG'
p115
sg11
F176.759
sg12
F0.059
sg13
g14
sa(dp116
g2
S'ASN'
p117
sg4
I25706
sg5
F2.61
sg6
F12.4
sg7
I01
sg8
F0.62
sg9
g24
sg11
F8.328
sg12
F1.0
sg13
g14
sa(dp118
g2
S'ASN'
p119
sg4
I19739
sg5
F1.752
sg6
F6.6
sg7
I01
sg8
F0.357
sg9
S'HA'
p120
sg11
F4.661
sg12
F0.768
sg13
g14
sa(dp121
g2
S'ASN'
p122
sg4
I18457
sg5
F0.18
sg6
F4.47
sg7
I01
sg8
F0.315
sg9
S'HB2'
p123
sg11
F2.804
sg12
F0.718
sg13
g63
sa(dp124
g2
S'ASN'
p125
sg4
I17798
sg5
F-0.172
sg6
F4.47
sg7
I01
sg8
F0.338
sg9
S'HB3'
p126
sg11
F2.75
sg12
F0.692
sg13
g63
sa(dp127
g2
S'ASN'
p128
sg4
I13888
sg5
F2.06
sg6
F9.603
sg7
I01
sg8
F0.489
sg9
S'HD21'
p129
sg11
F7.327
sg12
F0.54
sg13
g63
sa(dp130
g2
S'ASN'
p131
sg4
I13694
sg5
F2.578
sg6
F9.986
sg7
I01
sg8
F0.5
sg9
S'HD22'
p132
sg11
F7.15
sg12
F0.533
sg13
g63
sa(dp133
g2
S'ASN'
p134
sg4
I23379
sg5
F101.712
sg6
F137.49
sg7
I01
sg8
F3.956
sg9
g37
sg11
F118.902
sg12
F0.909
sg13
g14
sa(dp135
g2
S'ASN'
p136
sg4
I11588
sg5
F99.4
sg6
F134.5
sg7
I01
sg8
F2.303
sg9
S'ND2'
p137
sg11
F112.77
sg12
F0.451
sg13
g14
sa(dp138
g2
S'ASP'
p139
sg4
I22866
sg5
F166.8
sg6
F182.7
sg7
I01
sg8
F1.718
sg9
g10
sg11
F176.445
sg12
F0.632
sg13
g14
sa(dp140
g2
S'ASP'
p141
sg4
I31500
sg5
F41.113
sg6
F67.166
sg7
I01
sg8
F2.039
sg9
S'CA'
p142
sg11
F54.701
sg12
F0.87
sg13
g14
sa(dp143
g2
S'ASP'
p144
sg4
I29731
sg5
F27.48
sg6
F54.947
sg7
I01
sg8
F1.609
sg9
S'CB'
p145
sg11
F40.87
sg12
F0.821
sg13
g14
sa(dp146
g2
S'ASP'
p147
sg4
I428
sg5
F170.72
sg6
F186.5
sg7
I00
sg8
F1.761
sg9
S'CG'
p148
sg11
F179.263
sg12
F0.012
sg13
g14
sa(dp149
g2
S'ASP'
p150
sg4
I36209
sg5
F3.56
sg6
F12.68
sg7
I01
sg8
F0.569
sg9
g24
sg11
F8.303
sg12
F1.0
sg13
g14
sa(dp151
g2
S'ASP'
p152
sg4
I26924
sg5
F2.171
sg6
F6.33
sg7
I01
sg8
F0.314
sg9
S'HA'
p153
sg11
F4.587
sg12
F0.744
sg13
g14
sa(dp154
g2
S'ASP'
p155
sg4
I25040
sg5
F-0.39
sg6
F6.6
sg7
I01
sg8
F0.263
sg9
S'HB2'
p156
sg11
F2.716
sg12
F0.692
sg13
g63
sa(dp157
g2
S'ASP'
p158
sg4
I24054
sg5
F-0.362
sg6
F4.58
sg7
I01
sg8
F0.273
sg9
S'HB3'
p159
sg11
F2.664
sg12
F0.664
sg13
g63
sa(dp160
g2
S'ASP'
p161
sg4
I5
sg5
F4.65139
sg6
F9.29
sg7
I00
sg8
F1.874
sg9
S'HD2'
p162
sg11
F6.059
sg12
F0.0
sg13
g14
sa(dp163
g2
S'ASP'
p164
sg4
I34021
sg5
F101.9
sg6
F143.52
sg7
I01
sg8
F3.802
sg9
g37
sg11
F120.643
sg12
F0.94
sg13
g14
sa(dp165
g2
S'CYS'
p166
sg4
I6356
sg5
F166.733
sg6
F187.591
sg7
I01
sg8
F2.039
sg9
g10
sg11
F174.955
sg12
F0.456
sg13
g14
sa(dp167
g2
S'CYS'
p168
sg4
I9298
sg5
F42.452
sg6
F67.641
sg7
I01
sg8
F3.375
sg9
S'CA'
p169
sg11
F58.163
sg12
F0.666
sg13
g14
sa(dp170
g2
S'CYS'
p171
sg4
I8803
sg5
F17.99
sg6
F62.07
sg7
I01
sg8
F6.303
sg9
S'CB'
p172
sg11
F33.091
sg12
F0.631
sg13
g14
sa(dp173
g2
S'CYS'
p174
sg4
I13952
sg5
F4.379
sg6
F12.12
sg7
I01
sg8
F0.674
sg9
g24
sg11
F8.384
sg12
F1.0
sg13
g14
sa(dp175
g2
S'CYS'
p176
sg4
I12104
sg5
F1.64
sg6
F6.448
sg7
I01
sg8
F0.549
sg9
S'HA'
p177
sg11
F4.655
sg12
F0.868
sg13
g14
sa(dp178
g2
S'CYS'
p179
sg4
I11673
sg5
F-0.488
sg6
F4.715
sg7
I01
sg8
F0.44
sg9
S'HB2'
p180
sg11
F2.957
sg12
F0.837
sg13
g63
sa(dp181
g2
S'CYS'
p182
sg4
I11404
sg5
F-0.83
sg6
F4.77
sg7
I01
sg8
F0.456
sg9
S'HB3'
p183
sg11
F2.889
sg12
F0.817
sg13
g63
sa(dp184
g2
S'CYS'
p185
sg4
I104
sg5
F0.1
sg6
F7.392
sg7
I00
sg8
F1.25
sg9
S'HG'
p186
sg11
F2.08
sg12
F0.007
sg13
g14
sa(dp187
g2
S'CYS'
p188
sg4
I10047
sg5
F4.465484
sg6
F135.89
sg7
I01
sg8
F4.652
sg9
g37
sg11
F120.082
sg12
F0.72
sg13
g14
sa(dp189
g2
S'GLN'
p190
sg4
I16569
sg5
F168.085
sg6
F183.366
sg7
I01
sg8
F1.92
sg9
g10
sg11
F176.371
sg12
F0.64
sg13
g14
sa(dp191
g2
S'GLN'
p192
sg4
I22845
sg5
F43.453
sg6
F66.6
sg7
I01
sg8
F2.114
sg9
S'CA'
p193
sg11
F56.615
sg12
F0.882
sg13
g14
sa(dp194
g2
S'GLN'
p195
sg4
I21327
sg5
F18.425
sg6
F42.196
sg7
I01
sg8
F1.809
sg9
S'CB'
p196
sg11
F29.172
sg12
F0.823
sg13
g14
sa(dp197
g2
S'GLN'
p198
sg4
I1446
sg5
F171.365
sg6
F183.5
sg7
I00
sg8
F1.236
sg9
S'CD'
p199
sg11
F179.707
sg12
F0.056
sg13
g14
sa(dp200
g2
S'GLN'
p201
sg4
I14439
sg5
F21.64
sg6
F42.8
sg7
I01
sg8
F1.103
sg9
S'CG'
p202
sg11
F33.771
sg12
F0.557
sg13
g14
sa(dp203
g2
S'GLN'
p204
sg4
I25909
sg5
F3.505
sg6
F12.04
sg7
I01
sg8
F0.578
sg9
g24
sg11
F8.216
sg12
F1.0
sg13
g14
sa(dp205
g2
S'GLN'
p206
sg4
I19726
sg5
F1.567
sg6
F6.34
sg7
I01
sg8
F0.426
sg9
S'HA'
p207
sg11
F4.258
sg12
F0.761
sg13
g14
sa(dp208
g2
S'GLN'
p209
sg4
I17894
sg5
F-0.14
sg6
F4.0
sg7
I01
sg8
F0.254
sg9
S'HB2'
p210
sg11
F2.046
sg12
F0.691
sg13
g63
sa(dp211
g2
S'GLN'
p212
sg4
I17011
sg5
F-0.52
sg6
F4.04
sg7
I01
sg8
F0.268
sg9
S'HB3'
p213
sg11
F2.015
sg12
F0.657
sg13
g63
sa(dp214
g2
S'GLN'
p215
sg4
I12651
sg5
F3.39
sg6
F9.922
sg7
I01
sg8
F0.446
sg9
S'HE21'
p216
sg11
F7.216
sg12
F0.488
sg13
g63
sa(dp217
g2
S'GLN'
p218
sg4
I12579
sg5
F3.59
sg6
F9.79
sg7
I01
sg8
F0.435
sg9
S'HE22'
p219
sg11
F7.038
sg12
F0.486
sg13
g63
sa(dp220
g2
S'GLN'
p221
sg4
I16852
sg5
F-0.111
sg6
F3.899
sg7
I01
sg8
F0.268
sg9
S'HG2'
p222
sg11
F2.313
sg12
F0.65
sg13
g63
sa(dp223
g2
S'GLN'
p224
sg4
I15537
sg5
F-0.406
sg6
F3.899
sg7
I01
sg8
F0.287
sg9
S'HG3'
p225
sg11
F2.291
sg12
F0.6
sg13
g63
sa(dp226
g2
S'GLN'
p227
sg4
I24185
sg5
F103.877
sg6
F139.55
sg7
I01
sg8
F3.554
sg9
g37
sg11
F119.89
sg12
F0.933
sg13
g14
sa(dp228
g2
S'GLN'
p229
sg4
I11080
sg5
F97.9
sg6
F125.331
sg7
I01
sg8
F1.679
sg9
S'NE2'
p230
sg11
F111.868
sg12
F0.428
sg13
g14
sa(dp231
g2
S'GLU'
p232
sg4
I31062
sg5
F166.8
sg6
F182.988
sg7
I01
sg8
F1.914
sg9
g10
sg11
F176.92
sg12
F0.65
sg13
g14
sa(dp233
g2
S'GLU'
p234
sg4
I41987
sg5
F44.348
sg6
F66.94
sg7
I01
sg8
F2.074
sg9
S'CA'
p235
sg11
F57.335
sg12
F0.879
sg13
g14
sa(dp236
g2
S'GLU'
p237
sg4
I39060
sg5
F18.356
sg6
F46.749
sg7
I01
sg8
F1.706
sg9
S'CB'
p238
sg11
F29.975
sg12
F0.818
sg13
g14
sa(dp239
g2
S'GLU'
p240
sg4
I465
sg5
F129.753
sg6
F188.007
sg7
I00
sg8
F2.992
sg9
S'CD'
p241
sg11
F182.393
sg12
F0.01
sg13
g14
sa(dp242
g2
S'GLU'
p243
sg4
I25964
sg5
F25.074
sg6
F50.278
sg7
I01
sg8
F1.189
sg9
S'CG'
p244
sg11
F36.098
sg12
F0.544
sg13
g14
sa(dp245
g2
S'GLU'
p246
sg4
I47762
sg5
F4.244
sg6
F12.692
sg7
I01
sg8
F0.587
sg9
g24
sg11
F8.331
sg12
F1.0
sg13
g14
sa(dp247
g2
S'GLU'
p248
sg4
I35732
sg5
F1.393
sg6
F6.29
sg7
I01
sg8
F0.405
sg9
S'HA'
p249
sg11
F4.243
sg12
F0.748
sg13
g14
sa(dp250
g2
S'GLU'
p251
sg4
I32331
sg5
F0.23
sg6
F3.44
sg7
I01
sg8
F0.209
sg9
S'HB2'
p252
sg11
F2.022
sg12
F0.677
sg13
g63
sa(dp253
g2
S'GLU'
p254
sg4
I30351
sg5
F0.163
sg6
F3.467
sg7
I01
sg8
F0.217
sg9
S'HB3'
p255
sg11
F1.997
sg12
F0.635
sg13
g63
sa(dp256
g2
S'GLU'
p257
sg4
I3
sg5
F2.727
sg6
F6.69
sg7
I00
sg8
F2.288
sg9
S'HE2'
p258
sg11
F5.369
sg12
F0.0
sg13
g14
sa(dp259
g2
S'GLU'
p260
sg4
I30087
sg5
F0.528
sg6
F3.77
sg7
I01
sg8
F0.211
sg9
S'HG2'
p261
sg11
F2.269
sg12
F0.63
sg13
g63
sa(dp262
g2
S'GLU'
p263
sg4
I27946
sg5
F0.438
sg6
F3.832
sg7
I01
sg8
F0.214
sg9
S'HG3'
p264
sg11
F2.248
sg12
F0.585
sg13
g63
sa(dp265
g2
S'GLU'
p266
sg4
I45175
sg5
F102.942
sg6
F138.6
sg7
I01
sg8
F3.46
sg9
g37
sg11
F120.702
sg12
F0.946
sg13
g14
sa(dp267
g2
S'GLY'
p268
sg4
I28767
sg5
F163.272
sg6
F187.394
sg7
I01
sg8
F1.851
sg9
g10
sg11
F173.892
sg12
F0.628
sg13
g14
sa(dp269
g2
S'GLY'
p270
sg4
I40012
sg5
F33.148
sg6
F57.879
sg7
I01
sg8
F1.269
sg9
S'CA'
p271
sg11
F45.357
sg12
F0.873
sg13
g14
sa(dp272
g2
S'GLY'
p273
sg4
I45808
sg5
F3.01
sg6
F12.22
sg7
I01
sg8
F0.629
sg9
g24
sg11
F8.334
sg12
F1.0
sg13
g14
sa(dp274
g2
S'GLY'
p275
sg4
I34286
sg5
F0.844
sg6
F6.428
sg7
I01
sg8
F0.368
sg9
S'HA2'
p276
sg11
F3.963
sg12
F0.748
sg13
g63
sa(dp277
g2
S'GLY'
p278
sg4
I32570
sg5
F0.645
sg6
F6.385
sg7
I01
sg8
F0.369
sg9
S'HA3'
p279
sg11
F3.898
sg12
F0.711
sg13
g63
sa(dp280
g2
S'GLY'
p281
sg4
I41800
sg5
F93.604
sg6
F162.194
sg7
I01
sg8
F3.705
sg9
g37
sg11
F109.595
sg12
F0.913
sg13
g14
sa(dp282
g2
S'HIS'
p283
sg4
I8230
sg5
F166.9
sg6
F183.12
sg7
I01
sg8
F1.95
sg9
g10
sg11
F175.262
sg12
F0.627
sg13
g14
sa(dp284
g2
S'HIS'
p285
sg4
I11745
sg5
F43.308
sg6
F66.98
sg7
I01
sg8
F2.312
sg9
S'CA'
p286
sg11
F56.523
sg12
F0.895
sg13
g14
sa(dp287
g2
S'HIS'
p288
sg4
I11048
sg5
F18.745
sg6
F43.382
sg7
I01
sg8
F2.091
sg9
S'CB'
p289
sg11
F30.226
sg12
F0.842
sg13
g14
sa(dp290
g2
S'HIS'
p291
sg4
I4330
sg5
F110.516
sg6
F159.946
sg7
I01
sg8
F3.382
sg9
S'CD2'
p292
sg11
F120.428
sg12
F0.33
sg13
S'aroma'
p293
sa(dp294
g2
S'HIS'
p295
sg4
I3334
sg5
F104.667
sg6
F144.756
sg7
I01
sg8
F2.272
sg9
S'CE1'
p296
sg11
F137.649
sg12
F0.254
sg13
g293
sa(dp297
g2
S'HIS'
p298
sg4
I92
sg5
F117.54
sg6
F139.557
sg7
I00
sg8
F3.213
sg9
S'CG'
p299
sg11
F131.971
sg12
F0.007
sg13
g293
sa(dp300
g2
S'HIS'
p301
sg4
I13120
sg5
F3.97
sg6
F12.392
sg7
I01
sg8
F0.674
sg9
g24
sg11
F8.248
sg12
F1.0
sg13
g14
sa(dp302
g2
S'HIS'
p303
sg4
I10294
sg5
F1.929
sg6
F8.9
sg7
I01
sg8
F0.43
sg9
S'HA'
p304
sg11
F4.603
sg12
F0.785
sg13
g14
sa(dp305
g2
S'HIS'
p306
sg4
I9582
sg5
F-0.038
sg6
F8.7
sg7
I01
sg8
F0.353
sg9
S'HB2'
p307
sg11
F3.108
sg12
F0.73
sg13
g63
sa(dp308
g2
S'HIS'
p309
sg4
I9292
sg5
F-0.387
sg6
F8.7
sg7
I01
sg8
F0.382
sg9
S'HB3'
p310
sg11
F3.046
sg12
F0.708
sg13
g63
sa(dp311
g2
S'HIS'
p312
sg4
I447
sg5
F2.73
sg6
F77.1
sg7
I00
sg8
F7.964
sg9
S'HD1'
p313
sg11
F9.504
sg12
F0.034
sg13
g293
sa(dp314
g2
S'HIS'
p315
sg4
I6835
sg5
F0.47
sg6
F9.415
sg7
I01
sg8
F0.491
sg9
S'HD2'
p316
sg11
F6.999
sg12
F0.521
sg13
g293
sa(dp317
g2
S'HIS'
p318
sg4
I5404
sg5
F0.075
sg6
F10.881
sg7
I01
sg8
F0.593
sg9
S'HE1'
p319
sg11
F7.94
sg12
F0.412
sg13
g293
sa(dp320
g2
S'HIS'
p321
sg4
I193
sg5
F6.573
sg6
F16.53
sg7
I00
sg8
F2.388
sg9
S'HE2'
p322
sg11
F9.578
sg12
F0.015
sg13
g293
sa(dp323
g2
S'HIS'
p324
sg4
I11968
sg5
F103.986
sg6
F136.48
sg7
I01
sg8
F4.037
sg9
g37
sg11
F119.686
sg12
F0.912
sg13
g14
sa(dp325
g2
S'HIS'
p326
sg4
I220
sg5
F162.04
sg6
F229.14
sg7
I00
sg8
F18.456
sg9
S'ND1'
p327
sg11
F192.368
sg12
F0.017
sg13
g293
sa(dp328
g2
S'HIS'
p329
sg4
I238
sg5
F161.376
sg6
F226.759
sg7
I00
sg8
F16.905
sg9
S'NE2'
p330
sg11
F184.533
sg12
F0.018
sg13
g293
sa(dp331
g2
S'ILE'
p332
sg4
I20717
sg5
F166.403
sg6
F187.551
sg7
I01
sg8
F1.892
sg9
g10
sg11
F175.936
sg12
F0.641
sg13
g14
sa(dp333
g2
S'ILE'
p334
sg4
I28363
sg5
F49.045
sg6
F71.856
sg7
I01
sg8
F2.681
sg9
S'CA'
p335
sg11
F61.675
sg12
F0.877
sg13
g14
sa(dp336
g2
S'ILE'
p337
sg4
I26540
sg5
F22.113
sg6
F51.876
sg7
I01
sg8
F1.993
sg9
S'CB'
p338
sg11
F38.577
sg12
F0.821
sg13
g14
sa(dp339
g2
S'ILE'
p340
sg4
I18980
sg5
F2.905
sg6
F29.595
sg7
I01
sg8
F1.652
sg9
S'CD1'
p341
sg11
F13.402
sg12
F0.587
sg13
g21
sa(dp342
g2
S'ILE'
p343
sg4
I17622
sg5
F12.05
sg6
F39.05
sg7
I01
sg8
F1.686
sg9
S'CG1'
p344
sg11
F27.735
sg12
F0.545
sg13
g14
sa(dp345
g2
S'ILE'
p346
sg4
I18720
sg5
F3.448
sg6
F29.8
sg7
I01
sg8
F1.325
sg9
S'CG2'
p347
sg11
F17.53
sg12
F0.579
sg13
g21
sa(dp348
g2
S'ILE'
p349
sg4
I32337
sg5
F3.428
sg6
F11.871
sg7
I01
sg8
F0.681
sg9
g24
sg11
F8.265
sg12
F1.0
sg13
g14
sa(dp350
g2
S'ILE'
p351
sg4
I24256
sg5
F1.32
sg6
F6.362
sg7
I01
sg8
F0.553
sg9
S'HA'
p352
sg11
F4.165
sg12
F0.75
sg13
g14
sa(dp353
g2
S'ILE'
p354
sg4
I22794
sg5
F-1.28
sg6
F3.87
sg7
I01
sg8
F0.294
sg9
S'HB'
p355
sg11
F1.783
sg12
F0.705
sg13
g14
sa(dp356
g2
S'ILE'
p357
sg4
I20691
sg5
F-2.12
sg6
F2.691
sg7
I01
sg8
F0.399
sg9
S'HG12'
p358
sg11
F1.274
sg12
F0.64
sg13
g63
sa(dp359
g2
S'ILE'
p360
sg4
I19937
sg5
F-2.074
sg6
F2.99
sg7
I01
sg8
F0.407
sg9
S'HG13'
p361
sg11
F1.194
sg12
F0.617
sg13
g63
sa(dp362
g2
S'ILE'
p363
sg4
I22024
sg5
F-1.468
sg6
F2.82
sg7
I01
sg8
F0.288
sg9
S'HD11'
p364
sg11
F0.679
sg12
F0.681
sg13
g21
sa(dp365
g2
g363
sg4
I22024
sg5
F-1.468
sg6
F2.82
sg7
I01
sg8
F0.288
sg9
S'HD12'
p366
sg11
F0.679
sg12
F0.681
sg13
g21
sa(dp367
g2
g363
sg4
I22024
sg5
F-1.468
sg6
F2.82
sg7
I01
sg8
F0.288
sg9
S'HD13'
p368
sg11
F0.679
sg12
F0.681
sg13
g21
sa(dp369
g2
S'ILE'
p370
sg4
I21671
sg5
F-1.468
sg6
F2.198
sg7
I01
sg8
F0.271
sg9
S'HG21'
p371
sg11
F0.776
sg12
F0.67
sg13
g21
sa(dp372
g2
g370
sg4
I21671
sg5
F-1.468
sg6
F2.198
sg7
I01
sg8
F0.271
sg9
S'HG22'
p373
sg11
F0.776
sg12
F0.67
sg13
g21
sa(dp374
g2
g370
sg4
I21671
sg5
F-1.468
sg6
F2.198
sg7
I01
sg8
F0.271
sg9
S'HG23'
p375
sg11
F0.776
sg12
F0.67
sg13
g21
sa(dp376
g2
S'ILE'
p377
sg4
I30189
sg5
F99.0
sg6
F138.12
sg7
I01
sg8
F4.267
sg9
g37
sg11
F121.399
sg12
F0.934
sg13
g14
sa(dp378
g2
S'LEU'
p379
sg4
I34089
sg5
F167.49
sg6
F189.78
sg7
I01
sg8
F1.933
sg9
g10
sg11
F177.083
sg12
F0.636
sg13
g14
sa(dp380
g2
S'LEU'
p381
sg4
I46695
sg5
F37.916
sg6
F67.88
sg7
I01
sg8
F2.124
sg9
S'CA'
p382
sg11
F55.694
sg12
F0.871
sg13
g14
sa(dp383
g2
S'LEU'
p384
sg4
I43742
sg5
F26.4
sg6
F55.546
sg7
I01
sg8
F1.846
sg9
S'CB'
p385
sg11
F42.272
sg12
F0.816
sg13
g14
sa(dp386
g2
S'LEU'
p387
sg4
I30536
sg5
F10.945
sg6
F36.85
sg7
I01
sg8
F1.584
sg9
S'CD1'
p388
sg11
F24.675
sg12
F0.57
sg13
S'methyl-geminal'
p389
sa(dp390
g2
S'LEU'
p391
sg4
I29089
sg5
F11.706
sg6
F30.4
sg7
I01
sg8
F1.682
sg9
S'CD2'
p392
sg11
F24.067
sg12
F0.543
sg13
g389
sa(dp393
g2
S'LEU'
p394
sg4
I27627
sg5
F15.3
sg6
F37.7
sg7
I01
sg8
F1.086
sg9
S'CG'
p395
sg11
F26.787
sg12
F0.515
sg13
g14
sa(dp396
g2
S'LEU'
p397
sg4
I53601
sg5
F2.15
sg6
F13.22
sg7
I01
sg8
F0.635
sg9
g24
sg11
F8.217
sg12
F1.0
sg13
g14
sa(dp398
g2
S'LEU'
p399
sg4
I40287
sg5
F1.58
sg6
F6.42
sg7
I01
sg8
F0.459
sg9
S'HA'
p400
sg11
F4.3
sg12
F0.752
sg13
g14
sa(dp401
g2
S'LEU'
p402
sg4
I36965
sg5
F-1.292
sg6
F3.226
sg7
I01
sg8
F0.344
sg9
S'HB2'
p403
sg11
F1.612
sg12
F0.69
sg13
g63
sa(dp404
g2
S'LEU'
p405
sg4
I35384
sg5
F-1.51
sg6
F3.226
sg7
I01
sg8
F0.364
sg9
S'HB3'
p406
sg11
F1.521
sg12
F0.66
sg13
g63
sa(dp407
g2
S'LEU'
p408
sg4
I32796
sg5
F-1.06
sg6
F3.9
sg7
I01
sg8
F0.329
sg9
S'HG'
p409
sg11
F1.511
sg12
F0.612
sg13
g14
sa(dp410
g2
S'LEU'
p411
sg4
I36597
sg5
F-1.76
sg6
F2.364
sg7
I01
sg8
F0.278
sg9
S'HD11'
p412
sg11
F0.754
sg12
F0.683
sg13
g389
sa(dp413
g2
g411
sg4
I36597
sg5
F-1.76
sg6
F2.364
sg7
I01
sg8
F0.278
sg9
S'HD12'
p414
sg11
F0.754
sg12
F0.683
sg13
g389
sa(dp415
g2
g411
sg4
I36597
sg5
F-1.76
sg6
F2.364
sg7
I01
sg8
F0.278
sg9
S'HD13'
p416
sg11
F0.754
sg12
F0.683
sg13
g389
sa(dp417
g2
S'LEU'
p418
sg4
I35181
sg5
F-1.652
sg6
F2.67
sg7
I01
sg8
F0.282
sg9
S'HD21'
p419
sg11
F0.733
sg12
F0.656
sg13
g389
sa(dp420
g2
g418
sg4
I35181
sg5
F-1.652
sg6
F2.67
sg7
I01
sg8
F0.282
sg9
S'HD22'
p421
sg11
F0.733
sg12
F0.656
sg13
g389
sa(dp422
g2
g418
sg4
I35181
sg5
F-1.652
sg6
F2.67
sg7
I01
sg8
F0.282
sg9
S'HD23'
p423
sg11
F0.733
sg12
F0.656
sg13
g389
sa(dp424
g2
S'LEU'
p425
sg4
I49738
sg5
F98.56
sg6
F177.623
sg7
I01
sg8
F3.863
sg9
g37
sg11
F121.816
sg12
F0.928
sg13
g14
sa(dp426
g2
S'LYS'
p427
sg4
I28042
sg5
F166.633
sg6
F185.0
sg7
I01
sg8
F1.912
sg9
g10
sg11
F176.722
sg12
F0.621
sg13
g14
sa(dp428
g2
S'LYS'
p429
sg4
I38456
sg5
F40.726
sg6
F65.866
sg7
I01
sg8
F2.178
sg9
S'CA'
p430
sg11
F56.973
sg12
F0.852
sg13
g14
sa(dp431
g2
S'LYS'
p432
sg4
I35838
sg5
F21.192
sg6
F46.6
sg7
I01
sg8
F1.77
sg9
S'CB'
p433
sg11
F32.784
sg12
F0.794
sg13
g14
sa(dp434
g2
S'LYS'
p435
sg4
I21952
sg5
F20.1
sg6
F40.1
sg7
I01
sg8
F1.081
sg9
S'CD'
p436
sg11
F28.951
sg12
F0.486
sg13
g14
sa(dp437
g2
S'LYS'
p438
sg4
I21237
sg5
F30.477
sg6
F52.196
sg7
I01
sg8
F0.829
sg9
S'CE'
p439
sg11
F41.89
sg12
F0.47
sg13
g14
sa(dp440
g2
S'LYS'
p441
sg4
I23201
sg5
F16.845
sg6
F36.22
sg7
I01
sg8
F1.121
sg9
S'CG'
p442
sg11
F24.897
sg12
F0.514
sg13
g14
sa(dp443
g2
S'LYS'
p444
sg4
I45148
sg5
F4.108
sg6
F12.031
sg7
I01
sg8
F0.594
sg9
g24
sg11
F8.18
sg12
F1.0
sg13
g14
sa(dp445
g2
S'LYS'
p446
sg4
I34522
sg5
F0.68
sg6
F7.96
sg7
I01
sg8
F0.432
sg9
S'HA'
p447
sg11
F4.259
sg12
F0.765
sg13
g14
sa(dp448
g2
S'LYS'
p449
sg4
I30886
sg5
F-0.75
sg6
F4.05
sg7
I01
sg8
F0.248
sg9
S'HB2'
p450
sg11
F1.776
sg12
F0.684
sg13
g63
sa(dp451
g2
S'LYS'
p452
sg4
I29064
sg5
F-0.899
sg6
F3.95
sg7
I01
sg8
F0.268
sg9
S'HB3'
p453
sg11
F1.747
sg12
F0.644
sg13
g63
sa(dp454
g2
S'LYS'
p455
sg4
I24934
sg5
F-1.68
sg6
F3.19
sg7
I01
sg8
F0.213
sg9
S'HD2'
p456
sg11
F1.605
sg12
F0.552
sg13
g63
sa(dp457
g2
S'LYS'
p458
sg4
I22397
sg5
F-1.016
sg6
F3.193
sg7
I01
sg8
F0.218
sg9
S'HD3'
p459
sg11
F1.596
sg12
F0.496
sg13
g63
sa(dp460
g2
S'LYS'
p461
sg4
I24686
sg5
F1.178
sg6
F4.43
sg7
I01
sg8
F0.192
sg9
S'HE2'
p462
sg11
F2.913
sg12
F0.547
sg13
g63
sa(dp463
g2
S'LYS'
p464
sg4
I21674
sg5
F1.12
sg6
F4.55
sg7
I01
sg8
F0.2
sg9
S'HE3'
p465
sg11
F2.907
sg12
F0.48
sg13
g63
sa(dp466
g2
S'LYS'
p467
sg4
I27999
sg5
F-1.114
sg6
F3.613
sg7
I01
sg8
F0.256
sg9
S'HG2'
p468
sg11
F1.368
sg12
F0.62
sg13
g63
sa(dp469
g2
S'LYS'
p470
sg4
I25768
sg5
F-1.164
sg6
F3.613
sg7
I01
sg8
F0.273
sg9
S'HG3'
p471
sg11
F1.35
sg12
F0.571
sg13
g63
sa(dp472
g2
S'LYS'
p473
sg4
I41276
sg5
F101.1
sg6
F140.3
sg7
I01
sg8
F3.722
sg9
g37
sg11
F121.044
sg12
F0.914
sg13
g14
sa(dp474
g2
S'LYS'
p475
sg4
I38
sg5
F29.48
sg6
F43.687
sg7
I00
sg8
F2.217
sg9
S'NZ'
p476
sg11
F33.254
sg12
F0.001
sg13
g14
sa(dp477
g2
S'LYS'
p478
sg4
I1052
sg5
F1.949
sg6
F9.9
sg7
I00
sg8
F0.63
sg9
S'HZ1'
p479
sg11
F7.422
sg12
F0.023
sg13
g63
sa(dp480
g2
g478
sg4
I1052
sg5
F1.949
sg6
F9.9
sg7
I00
sg8
F0.63
sg9
S'HZ2'
p481
sg11
F7.422
sg12
F0.023
sg13
g63
sa(dp482
g2
S'MET'
p483
sg4
I8230
sg5
F167.4
sg6
F183.159
sg7
I01
sg8
F2.075
sg9
g10
sg11
F176.234
sg12
F0.655
sg13
g14
sa(dp484
g2
S'MET'
p485
sg4
I11562
sg5
F43.281
sg6
F66.86
sg7
I01
sg8
F2.224
sg9
S'CA'
p486
sg11
F56.139
sg12
F0.92
sg13
g14
sa(dp487
g2
S'MET'
p488
sg4
I10685
sg5
F20.361
sg6
F46.46
sg7
I01
sg8
F2.2
sg9
S'CB'
p489
sg11
F32.938
sg12
F0.85
sg13
g14
sa(dp490
g2
S'MET'
p491
sg4
I5160
sg5
F10.69
sg6
F38.441
sg7
I01
sg8
F1.533
sg9
S'CE'
p492
sg11
F17.075
sg12
F0.411
sg13
g21
sa(dp493
g2
S'MET'
p494
sg4
I6683
sg5
F19.056
sg6
F38.581
sg7
I01
sg8
F1.23
sg9
S'CG'
p495
sg11
F32.026
sg12
F0.532
sg13
g14
sa(dp496
g2
S'MET'
p497
sg4
I12567
sg5
F4.865
sg6
F12.456
sg7
I01
sg8
F0.59
sg9
g24
sg11
F8.259
sg12
F1.0
sg13
g14
sa(dp498
g2
S'MET'
p499
sg4
I9850
sg5
F1.127
sg6
F6.35
sg7
I01
sg8
F0.463
sg9
S'HA'
p500
sg11
F4.396
sg12
F0.784
sg13
g14
sa(dp501
g2
S'MET'
p502
sg4
I8811
sg5
F-1.05
sg6
F4.07
sg7
I01
sg8
F0.33
sg9
S'HB2'
p503
sg11
F2.025
sg12
F0.701
sg13
g63
sa(dp504
g2
S'MET'
p505
sg4
I8296
sg5
F-0.99
sg6
F3.47
sg7
I01
sg8
F0.343
sg9
S'HB3'
p506
sg11
F1.988
sg12
F0.66
sg13
g63
sa(dp507
g2
S'MET'
p508
sg4
I8121
sg5
F-0.42
sg6
F4.4
sg7
I01
sg8
F0.349
sg9
S'HG2'
p509
sg11
F2.423
sg12
F0.646
sg13
g63
sa(dp510
g2
S'MET'
p511
sg4
I7675
sg5
F-0.302
sg6
F4.24
sg7
I01
sg8
F0.374
sg9
S'HG3'
p512
sg11
F2.394
sg12
F0.611
sg13
g63
sa(dp513
g2
S'MET'
p514
sg4
I5839
sg5
F-0.713
sg6
F8.381
sg7
I01
sg8
F0.413
sg9
S'HE1'
p515
sg11
F1.885
sg12
F0.465
sg13
g21
sa(dp516
g2
g514
sg4
I5839
sg5
F-0.713
sg6
F8.381
sg7
I01
sg8
F0.413
sg9
S'HE2'
p517
sg11
F1.885
sg12
F0.465
sg13
g21
sa(dp518
g2
g514
sg4
I5839
sg5
F-0.713
sg6
F8.381
sg7
I01
sg8
F0.413
sg9
S'HE3'
p519
sg11
F1.885
sg12
F0.465
sg13
g21
sa(dp520
g2
S'MET'
p521
sg4
I11838
sg5
F102.876
sg6
F138.547
sg7
I01
sg8
F3.511
sg9
g37
sg11
F120.09
sg12
F0.942
sg13
g14
sa(dp522
g2
S'PHE'
p523
sg4
I14359
sg5
F167.2
sg6
F184.929
sg7
I01
sg8
F1.972
sg9
g10
sg11
F175.5
sg12
F0.628
sg13
g14
sa(dp524
g2
S'PHE'
p525
sg4
I19668
sg5
F45.52
sg6
F69.821
sg7
I01
sg8
F2.581
sg9
S'CA'
p526
sg11
F58.148
sg12
F0.86
sg13
g14
sa(dp527
g2
S'PHE'
p528
sg4
I18480
sg5
F25.52
sg6
F50.225
sg7
I01
sg8
F2.068
sg9
S'CB'
p529
sg11
F39.947
sg12
F0.808
sg13
g14
sa(dp530
g2
S'PHE'
p531
sg4
I7720
sg5
F116.948
sg6
F136.728
sg7
I01
sg8
F1.192
sg9
S'CD1'
p532
sg11
F131.571
sg12
F0.338
sg13
S'aroma-opposite'
p533
sa(dp534
g2
S'PHE'
p535
sg4
I5746
sg5
F118.128
sg6
F138.249
sg7
I01
sg8
F1.173
sg9
S'CD2'
p536
sg11
F131.58
sg12
F0.251
sg13
g533
sa(dp537
g2
S'PHE'
p538
sg4
I6751
sg5
F114.754
sg6
F139.56
sg7
I01
sg8
F1.292
sg9
S'CE1'
p539
sg11
F130.723
sg12
F0.295
sg13
g533
sa(dp540
g2
S'PHE'
p541
sg4
I5043
sg5
F114.7
sg6
F139.7
sg7
I01
sg8
F1.169
sg9
S'CE2'
p542
sg11
F130.752
sg12
F0.221
sg13
g533
sa(dp543
g2
S'PHE'
p544
sg4
I170
sg5
F127.24
sg6
F152.844
sg7
I00
sg8
F3.262
sg9
S'CG'
p545
sg11
F138.067
sg12
F0.007
sg13
g293
sa(dp546
g2
S'PHE'
p547
sg4
I5246
sg5
F116.458
sg6
F138.6
sg7
I01
sg8
F1.446
sg9
S'CZ'
p548
sg11
F129.22
sg12
F0.229
sg13
g293
sa(dp549
g2
S'PHE'
p550
sg4
I22869
sg5
F3.549
sg6
F12.1759
sg7
I01
sg8
F0.716
sg9
g24
sg11
F8.341
sg12
F1.0
sg13
g14
sa(dp551
g2
S'PHE'
p552
sg4
I17066
sg5
F1.78
sg6
F6.868
sg7
I01
sg8
F0.563
sg9
S'HA'
p553
sg11
F4.614
sg12
F0.746
sg13
g14
sa(dp554
g2
S'PHE'
p555
sg4
I15907
sg5
F0.159
sg6
F4.461
sg7
I01
sg8
F0.367
sg9
S'HB2'
p556
sg11
F2.998
sg12
F0.696
sg13
g63
sa(dp557
g2
S'PHE'
p558
sg4
I15526
sg5
F-0.212
sg6
F4.69
sg7
I01
sg8
F0.39
sg9
S'HB3'
p559
sg11
F2.938
sg12
F0.679
sg13
g63
sa(dp560
g2
S'PHE'
p561
sg4
I13457
sg5
F4.669
sg6
F8.152
sg7
I01
sg8
F0.309
sg9
S'HD1'
p562
sg11
F7.058
sg12
F0.588
sg13
g533
sa(dp563
g2
S'PHE'
p564
sg4
I11531
sg5
F4.669
sg6
F8.152
sg7
I01
sg8
F0.314
sg9
S'HD2'
p565
sg11
F7.057
sg12
F0.504
sg13
g533
sa(dp566
g2
S'PHE'
p567
sg4
I11762
sg5
F4.378
sg6
F8.19
sg7
I01
sg8
F0.316
sg9
S'HE1'
p568
sg11
F7.079
sg12
F0.514
sg13
g533
sa(dp569
g2
S'PHE'
p570
sg4
I10262
sg5
F4.378
sg6
F8.19
sg7
I01
sg8
F0.319
sg9
S'HE2'
p571
sg11
F7.075
sg12
F0.449
sg13
g533
sa(dp572
g2
S'PHE'
p573
sg4
I8398
sg5
F4.324
sg6
F8.919
sg7
I01
sg8
F0.424
sg9
S'HZ'
p574
sg11
F6.991
sg12
F0.367
sg13
g293
sa(dp575
g2
S'PHE'
p576
sg4
I21110
sg5
F102.2
sg6
F139.02
sg7
I01
sg8
F4.141
sg9
g37
sg11
F120.37
sg12
F0.923
sg13
g14
sa(dp577
g2
S'PRO'
p578
sg4
I15309
sg5
F168.381
sg6
F182.836
sg7
I01
sg8
F1.493
sg9
g10
sg11
F176.765
sg12
F0.696
sg13
g14
sa(dp579
g2
S'PRO'
p580
sg4
I22006
sg5
F50.12
sg6
F70.88
sg7
I01
sg8
F1.513
sg9
S'CA'
p581
sg11
F63.357
sg12
F1.0
sg13
g14
sa(dp582
g2
S'PRO'
p583
sg4
I20614
sg5
F20.914
sg6
F45.16
sg7
I01
sg8
F1.174
sg9
S'CB'
p584
sg11
F31.853
sg12
F0.937
sg13
g14
sa(dp585
g2
S'PRO'
p586
sg4
I14284
sg5
F37.0759
sg6
F58.812
sg7
I01
sg8
F0.999
sg9
S'CD'
p587
sg11
F50.344
sg12
F0.649
sg13
g14
sa(dp588
g2
S'PRO'
p589
sg4
I14265
sg5
F18.28
sg6
F33.9
sg7
I01
sg8
F1.073
sg9
S'CG'
p590
sg11
F27.195
sg12
F0.648
sg13
g14
sa(dp591
g2
S'PRO'
p592
sg4
I19630
sg5
F1.044
sg6
F8.08
sg7
I01
sg8
F0.331
sg9
S'HA'
p593
sg11
F4.389
sg12
F0.892
sg13
g14
sa(dp594
g2
S'PRO'
p595
sg4
I18222
sg5
F-0.472
sg6
F4.351
sg7
I01
sg8
F0.346
sg9
S'HB2'
p596
sg11
F2.077
sg12
F0.828
sg13
g63
sa(dp597
g2
S'PRO'
p598
sg4
I17622
sg5
F-1.074
sg6
F3.79
sg7
I01
sg8
F0.357
sg9
S'HB3'
p599
sg11
F2.0
sg12
F0.801
sg13
g63
sa(dp600
g2
S'PRO'
p601
sg4
I16954
sg5
F-0.043
sg6
F7.077
sg7
I01
sg8
F0.35
sg9
S'HD2'
p602
sg11
F3.648
sg12
F0.77
sg13
g63
sa(dp603
g2
S'PRO'
p604
sg4
I16337
sg5
F-0.257
sg6
F5.357
sg7
I01
sg8
F0.383
sg9
S'HD3'
p605
sg11
F3.612
sg12
F0.742
sg13
g63
sa(dp606
g2
S'PRO'
p607
sg4
I16557
sg5
F-0.801
sg6
F4.418
sg7
I01
sg8
F0.313
sg9
S'HG2'
p608
sg11
F1.925
sg12
F0.752
sg13
g63
sa(dp609
g2
S'PRO'
p610
sg4
I15319
sg5
F-0.9
sg6
F4.418
sg7
I01
sg8
F0.327
sg9
S'HG3'
p611
sg11
F1.9
sg12
F0.696
sg13
g63
sa(dp612
g2
S'PRO'
p613
sg4
I604
sg5
F110.908
sg6
F145.257
sg7
I00
sg8
F6.39
sg9
g37
sg11
F134.559
sg12
F0.027
sg13
g14
sa(dp614
g2
S'SER'
p615
sg4
I25087
sg5
F164.47
sg6
F184.875
sg7
I01
sg8
F1.728
sg9
g10
sg11
F174.654
sg12
F0.638
sg13
g14
sa(dp616
g2
S'SER'
p617
sg4
I34948
sg5
F45.13
sg6
F73.678
sg7
I01
sg8
F2.085
sg9
S'CA'
p618
sg11
F58.753
sg12
F0.889
sg13
g14
sa(dp619
g2
S'SER'
p620
sg4
I32435
sg5
F31.4
sg6
F78.834
sg7
I01
sg8
F1.52
sg9
S'CB'
p621
sg11
F63.794
sg12
F0.825
sg13
g14
sa(dp622
g2
S'SER'
p623
sg4
I39313
sg5
F3.76
sg6
F13.13
sg7
I01
sg8
F0.579
sg9
g24
sg11
F8.277
sg12
F1.0
sg13
g14
sa(dp624
g2
S'SER'
p625
sg4
I30398
sg5
F1.43
sg6
F6.853
sg7
I01
sg8
F0.401
sg9
S'HA'
p626
sg11
F4.474
sg12
F0.773
sg13
g14
sa(dp627
g2
S'SER'
p628
sg4
I27874
sg5
F1.66
sg6
F5.453
sg7
I01
sg8
F0.253
sg9
S'HB2'
p629
sg11
F3.873
sg12
F0.709
sg13
g63
sa(dp630
g2
S'SER'
p631
sg4
I25778
sg5
F1.49
sg6
F5.453
sg7
I01
sg8
F0.272
sg9
S'HB3'
p632
sg11
F3.847
sg12
F0.656
sg13
g63
sa(dp633
g2
S'SER'
p634
sg4
I421
sg5
F0.13
sg6
F8.97
sg7
I00
sg8
F1.026
sg9
S'HG'
p635
sg11
F5.418
sg12
F0.011
sg13
g14
sa(dp636
g2
S'SER'
p637
sg4
I36161
sg5
F95.97
sg6
F133.684
sg7
I01
sg8
F3.509
sg9
g37
sg11
F116.269
sg12
F0.92
sg13
g14
sa(dp638
g2
S'THR'
p639
sg4
I21212
sg5
F165.5
sg6
F184.431
sg7
I01
sg8
F1.717
sg9
g10
sg11
F174.584
sg12
F0.62
sg13
g14
sa(dp640
g2
S'THR'
p641
sg4
I29484
sg5
F48.009
sg6
F72.797
sg7
I01
sg8
F2.59
sg9
S'CA'
p642
sg11
F62.261
sg12
F0.862
sg13
g14
sa(dp643
g2
S'THR'
p644
sg4
I27329
sg5
F29.97
sg6
F81.526
sg7
I01
sg8
F1.737
sg9
S'CB'
p645
sg11
F69.708
sg12
F0.799
sg13
g14
sa(dp646
g2
S'THR'
p647
sg4
I18723
sg5
F11.7
sg6
F36.725
sg7
I01
sg8
F1.094
sg9
S'CG2'
p648
sg11
F21.556
sg12
F0.547
sg13
g21
sa(dp649
g2
S'THR'
p650
sg4
I34217
sg5
F5.32
sg6
F11.727
sg7
I01
sg8
F0.616
sg9
g24
sg11
F8.237
sg12
F1.0
sg13
g14
sa(dp651
g2
S'THR'
p652
sg4
I25778
sg5
F1.65
sg6
F7.468
sg7
I01
sg8
F0.475
sg9
S'HA'
p653
sg11
F4.452
sg12
F0.753
sg13
g14
sa(dp654
g2
S'THR'
p655
sg4
I23456
sg5
F0.92
sg6
F8.346
sg7
I01
sg8
F0.323
sg9
S'HB'
p656
sg11
F4.164
sg12
F0.686
sg13
g14
sa(dp657
g2
S'THR'
p658
sg4
I740
sg5
F0.32
sg6
F8.903
sg7
I00
sg8
F1.161
sg9
S'HG1'
p659
sg11
F5.168
sg12
F0.022
sg13
g14
sa(dp660
g2
S'THR'
p661
sg4
I23249
sg5
F-1.186
sg6
F3.4
sg7
I01
sg8
F0.219
sg9
S'HG21'
p662
sg11
F1.137
sg12
F0.679
sg13
g21
sa(dp663
g2
g661
sg4
I23249
sg5
F-1.186
sg6
F3.4
sg7
I01
sg8
F0.219
sg9
S'HG22'
p664
sg11
F1.137
sg12
F0.679
sg13
g21
sa(dp665
g2
g661
sg4
I23249
sg5
F-1.186
sg6
F3.4
sg7
I01
sg8
F0.219
sg9
S'HG23'
p666
sg11
F1.137
sg12
F0.679
sg13
g21
sa(dp667
g2
S'THR'
p668
sg4
I31648
sg5
F95.77
sg6
F138.274
sg7
I01
sg8
F4.72
sg9
g37
sg11
F115.373
sg12
F0.925
sg13
g14
sa(dp669
g2
S'TRP'
p670
sg4
I4384
sg5
F168.169
sg6
F182.604
sg7
I01
sg8
F1.994
sg9
g10
sg11
F176.239
sg12
F0.584
sg13
g14
sa(dp671
g2
S'TRP'
p672
sg4
I6064
sg5
F44.685
sg6
F81.0
sg7
I01
sg8
F2.575
sg9
S'CA'
p673
sg11
F57.753
sg12
F0.807
sg13
g14
sa(dp674
g2
S'TRP'
p675
sg4
I5726
sg5
F18.633
sg6
F52.3
sg7
I01
sg8
F1.996
sg9
S'CB'
p676
sg11
F29.958
sg12
F0.762
sg13
g14
sa(dp677
g2
S'TRP'
p678
sg4
I2858
sg5
F108.45
sg6
F133.49
sg7
I01
sg8
F1.812
sg9
S'CD1'
p679
sg11
F126.554
sg12
F0.38
sg13
g293
sa(dp680
g2
S'TRP'
p681
sg4
I100
sg5
F120.2
sg6
F139.1
sg7
I00
sg8
F1.969
sg9
S'CD2'
p682
sg11
F127.971
sg12
F0.013
sg13
g293
sa(dp683
g2
S'TRP'
p684
sg4
I99
sg5
F113.888
sg6
F177.71
sg7
I00
sg8
F7.635
sg9
S'CE2'
p685
sg11
F138.611
sg12
F0.013
sg13
g293
sa(dp686
g2
S'TRP'
p687
sg4
I2424
sg5
F93.343
sg6
F137.6
sg7
I01
sg8
F1.705
sg9
S'CE3'
p688
sg11
F120.448
sg12
F0.323
sg13
g293
sa(dp689
g2
S'TRP'
p690
sg4
I133
sg5
F102.53
sg6
F116.526
sg7
I00
sg8
F2.034
sg9
S'CG'
p691
sg11
F110.921
sg12
F0.018
sg13
g293
sa(dp692
g2
S'TRP'
p693
sg4
I2556
sg5
F91.616
sg6
F131.54
sg7
I01
sg8
F1.527
sg9
S'CH2'
p694
sg11
F123.831
sg12
F0.34
sg13
g293
sa(dp695
g2
S'TRP'
p696
sg4
I2734
sg5
F81.812
sg6
F132.031
sg7
I01
sg8
F1.354
sg9
S'CZ2'
p697
sg11
F114.248
sg12
F0.364
sg13
g293
sa(dp698
g2
S'TRP'
p699
sg4
I2460
sg5
F98.613
sg6
F138.39
sg7
I01
sg8
F1.567
sg9
S'CZ3'
p700
sg11
F121.361
sg12
F0.327
sg13
g293
sa(dp701
g2
S'TRP'
p702
sg4
I7513
sg5
F5.16
sg6
F11.75862
sg7
I01
sg8
F0.762
sg9
g24
sg11
F8.267
sg12
F1.0
sg13
g14
sa(dp703
g2
S'TRP'
p704
sg4
I5627
sg5
F2.243
sg6
F6.55
sg7
I01
sg8
F0.515
sg9
S'HA'
p705
sg11
F4.66
sg12
F0.749
sg13
g14
sa(dp706
g2
S'TRP'
p707
sg4
I5304
sg5
F0.42
sg6
F4.54
sg7
I01
sg8
F0.347
sg9
S'HB2'
p708
sg11
F3.186
sg12
F0.706
sg13
g63
sa(dp709
g2
S'TRP'
p710
sg4
I5153
sg5
F0.257
sg6
F4.44
sg7
I01
sg8
F0.369
sg9
S'HB3'
p711
sg11
F3.119
sg12
F0.686
sg13
g63
sa(dp712
g2
S'TRP'
p713
sg4
I4760
sg5
F4.9
sg6
F8.93
sg7
I01
sg8
F0.344
sg9
S'HD1'
p714
sg11
F7.137
sg12
F0.634
sg13
g293
sa(dp715
g2
S'TRP'
p716
sg4
I5167
sg5
F5.1154
sg6
F13.49
sg7
I01
sg8
F0.639
sg9
S'HE1'
p717
sg11
F10.082
sg12
F0.688
sg13
g293
sa(dp718
g2
S'TRP'
p719
sg4
I4211
sg5
F4.89
sg6
F9.949
sg7
I01
sg8
F0.411
sg9
S'HE3'
p720
sg11
F7.316
sg12
F0.56
sg13
g293
sa(dp721
g2
S'TRP'
p722
sg4
I4143
sg5
F4.372
sg6
F8.797
sg7
I01
sg8
F0.362
sg9
S'HH2'
p723
sg11
F6.975
sg12
F0.551
sg13
g293
sa(dp724
g2
S'TRP'
p725
sg4
I4482
sg5
F4.655
sg6
F8.558
sg7
I01
sg8
F0.324
sg9
S'HZ2'
p726
sg11
F7.282
sg12
F0.597
sg13
g293
sa(dp727
g2
S'TRP'
p728
sg4
I4066
sg5
F3.877
sg6
F8.898
sg7
I01
sg8
F0.379
sg9
S'HZ3'
p729
sg11
F6.868
sg12
F0.541
sg13
g293
sa(dp730
g2
S'TRP'
p731
sg4
I6572
sg5
F101.97
sg6
F138.113
sg7
I01
sg8
F4.083
sg9
g37
sg11
F121.574
sg12
F0.875
sg13
g14
sa(dp732
g2
S'TRP'
p733
sg4
I3992
sg5
F106.0
sg6
F139.2
sg7
I01
sg8
F2.226
sg9
S'NE1'
p734
sg11
F129.231
sg12
F0.531
sg13
g293
sa(dp735
g2
S'TYR'
p736
sg4
I11609
sg5
F168.368
sg6
F184.78
sg7
I01
sg8
F1.965
sg9
g10
sg11
F175.467
sg12
F0.597
sg13
g14
sa(dp737
g2
S'TYR'
p738
sg4
I16238
sg5
F44.635
sg6
F69.56
sg7
I01
sg8
F2.519
sg9
S'CA'
p739
sg11
F58.181
sg12
F0.835
sg13
g14
sa(dp740
g2
S'TYR'
p741
sg4
I15096
sg5
F25.321
sg6
F47.3
sg7
I01
sg8
F2.135
sg9
S'CB'
p742
sg11
F39.271
sg12
F0.776
sg13
g14
sa(dp743
g2
S'TYR'
p744
sg4
I6907
sg5
F54.99
sg6
F141.572
sg7
I01
sg8
F1.604
sg9
S'CD1'
p745
sg11
F132.737
sg12
F0.355
sg13
g533
sa(dp746
g2
S'TYR'
p747
sg4
I4946
sg5
F113.003
sg6
F138.289
sg7
I01
sg8
F1.444
sg9
S'CD2'
p748
sg11
F132.713
sg12
F0.254
sg13
g533
sa(dp749
g2
S'TYR'
p750
sg4
I6878
sg5
F110.7
sg6
F137.42
sg7
I01
sg8
F1.215
sg9
S'CE1'
p751
sg11
F117.926
sg12
F0.354
sg13
g533
sa(dp752
g2
S'TYR'
p753
sg4
I4908
sg5
F106.548
sg6
F135.823
sg7
I01
sg8
F1.235
sg9
S'CE2'
p754
sg11
F117.896
sg12
F0.252
sg13
g533
sa(dp755
g2
S'TYR'
p756
sg4
I164
sg5
F117.7
sg6
F174.59
sg7
I00
sg8
F4.542
sg9
S'CG'
p757
sg11
F129.48
sg12
F0.008
sg13
g293
sa(dp758
g2
S'TYR'
p759
sg4
I118
sg5
F105.248
sg6
F160.45
sg7
I00
sg8
F4.981
sg9
S'CZ'
p760
sg11
F156.428
sg12
F0.006
sg13
g293
sa(dp761
g2
S'TYR'
p762
sg4
I19456
sg5
F4.156
sg6
F11.988
sg7
I01
sg8
F0.724
sg9
g24
sg11
F8.298
sg12
F1.0
sg13
g14
sa(dp763
g2
S'TYR'
p764
sg4
I14806
sg5
F1.188
sg6
F6.765
sg7
I01
sg8
F0.554
sg9
S'HA'
p765
sg11
F4.606
sg12
F0.761
sg13
g14
sa(dp766
g2
S'TYR'
p767
sg4
I13727
sg5
F-0.494
sg6
F4.7
sg7
I01
sg8
F0.372
sg9
S'HB2'
p768
sg11
F2.904
sg12
F0.706
sg13
g63
sa(dp769
g2
S'TYR'
p770
sg4
I13414
sg5
F-0.192
sg6
F4.7
sg7
I01
sg8
F0.392
sg9
S'HB3'
p771
sg11
F2.843
sg12
F0.689
sg13
g63
sa(dp772
g2
S'TYR'
p773
sg4
I12038
sg5
F3.931
sg6
F8.527
sg7
I01
sg8
F0.296
sg9
S'HD1'
p774
sg11
F6.935
sg12
F0.619
sg13
g533
sa(dp775
g2
S'TYR'
p776
sg4
I10473
sg5
F4.027
sg6
F8.5
sg7
I01
sg8
F0.297
sg9
S'HD2'
p777
sg11
F6.932
sg12
F0.538
sg13
g533
sa(dp778
g2
S'TYR'
p779
sg4
I11464
sg5
F4.58
sg6
F7.829
sg7
I01
sg8
F0.225
sg9
S'HE1'
p780
sg11
F6.702
sg12
F0.589
sg13
g533
sa(dp781
g2
S'TYR'
p782
sg4
I10082
sg5
F4.58
sg6
F8.5
sg7
I01
sg8
F0.231
sg9
S'HE2'
p783
sg11
F6.703
sg12
F0.518
sg13
g533
sa(dp784
g2
S'TYR'
p785
sg4
I204
sg5
F-0.788
sg6
F13.748
sg7
I00
sg8
F1.595
sg9
S'HH'
p786
sg11
F9.237
sg12
F0.01
sg13
g14
sa(dp787
g2
S'TYR'
p788
sg4
I17368
sg5
F39.2
sg6
F144.96
sg7
I01
sg8
F4.263
sg9
g37
sg11
F120.458
sg12
F0.893
sg13
g14
sa(dp789
g2
S'VAL'
p790
sg4
I27340
sg5
F165.654
sg6
F183.949
sg7
I01
sg8
F1.867
sg9
g10
sg11
F175.71
sg12
F0.643
sg13
g14
sa(dp791
g2
S'VAL'
p792
sg4
I37219
sg5
F49.184
sg6
F70.39
sg7
I01
sg8
F2.853
sg9
S'CA'
p793
sg11
F62.572
sg12
F0.876
sg13
g14
sa(dp794
g2
S'VAL'
p795
sg4
I34440
sg5
F20.292
sg6
F45.331
sg7
I01
sg8
F1.779
sg9
S'CB'
p796
sg11
F32.713
sg12
F0.81
sg13
g14
sa(dp797
g2
S'VAL'
p798
sg4
I24612
sg5
F13.53
sg6
F32.27
sg7
I01
sg8
F1.364
sg9
S'CG1'
p799
sg11
F21.504
sg12
F0.579
sg13
g389
sa(dp800
g2
S'VAL'
p801
sg4
I23700
sg5
F13.257
sg6
F30.463
sg7
I01
sg8
F1.55
sg9
S'CG2'
p802
sg11
F21.289
sg12
F0.558
sg13
g389
sa(dp803
g2
S'VAL'
p804
sg4
I42494
sg5
F3.98
sg6
F12.585
sg7
I01
sg8
F0.663
sg9
g24
sg11
F8.279
sg12
F1.0
sg13
g14
sa(dp805
g2
S'VAL'
p806
sg4
I32038
sg5
F0.972
sg6
F6.298
sg7
I01
sg8
F0.572
sg9
S'HA'
p807
sg11
F4.163
sg12
F0.754
sg13
g14
sa(dp808
g2
S'VAL'
p809
sg4
I29707
sg5
F-1.219
sg6
F3.319
sg7
I01
sg8
F0.312
sg9
S'HB'
p810
sg11
F1.985
sg12
F0.699
sg13
g14
sa(dp811
g2
S'VAL'
p812
sg4
I29260
sg5
F-1.55
sg6
F2.573
sg7
I01
sg8
F0.259
sg9
S'HG11'
p813
sg11
F0.827
sg12
F0.689
sg13
g389
sa(dp814
g2
g812
sg4
I29260
sg5
F-1.55
sg6
F2.573
sg7
I01
sg8
F0.259
sg9
S'HG12'
p815
sg11
F0.827
sg12
F0.689
sg13
g389
sa(dp816
g2
g812
sg4
I29260
sg5
F-1.55
sg6
F2.573
sg7
I01
sg8
F0.259
sg9
S'HG13'
p817
sg11
F0.827
sg12
F0.689
sg13
g389
sa(dp818
g2
S'VAL'
p819
sg4
I28643
sg5
F-2.32
sg6
F2.88
sg7
I01
sg8
F0.279
sg9
S'HG21'
p820
sg11
F0.805
sg12
F0.674
sg13
g389
sa(dp821
g2
g819
sg4
I28643
sg5
F-2.32
sg6
F2.88
sg7
I01
sg8
F0.279
sg9
S'HG22'
p822
sg11
F0.805
sg12
F0.674
sg13
g389
sa(dp823
g2
g819
sg4
I28643
sg5
F-2.32
sg6
F2.88
sg7
I01
sg8
F0.279
sg9
S'HG23'
p824
sg11
F0.805
sg12
F0.674
sg13
g389
sa(dp825
g2
S'VAL'
p826
sg4
I39867
sg5
F97.22
sg6
F143.29
sg7
I01
sg8
F4.47
sg9
g37
sg11
F121.081
sg12
F0.938
sg13
g14
sa.