(lp0
(dp1
S'comp_id'
p2
S'ALA'
p3
sS'count'
p4
I29402
sS'min'
p5
F164.477
sS'max'
p6
F187.2
sS'std'
p7
F2.078
sS'atom_id'
p8
S'C'
p9
sS'avg'
p10
F177.817
sa(dp11
g2
S'ALA'
p12
sg4
I40106
sg5
F39.922
sg6
F65.516
sg7
F1.946
sg8
S'CA'
p13
sg10
F53.181
sa(dp14
g2
S'ALA'
p15
sg4
I37648
sg5
F0.0
sg6
F37.817
sg7
F1.776
sg8
S'CB'
p16
sg10
F18.97
sa(dp17
g2
S'ALA'
p18
sg4
I46070
sg5
F3.53
sg6
F12.11
sg7
F0.585
sg8
S'H'
p19
sg10
F8.193
sa(dp20
g2
S'ALA'
p21
sg4
I34476
sg5
F0.87
sg6
F6.514
sg7
F0.425
sg8
S'HA'
p22
sg10
F4.243
sa(dp23
g2
S'ALA'
p24
sg4
I32381
sg5
F-0.88
sg6
F3.3376
sg7
F0.247
sg8
S'HB'
p25
sg10
F1.357
sa(dp26
g2
g24
sg4
I32381
sg5
F-0.88
sg6
F3.3376
sg7
F0.247
sg8
S'HB1'
p27
sg10
F1.357
sa(dp28
g2
g24
sg4
I32381
sg5
F-0.88
sg6
F3.3376
sg7
F0.247
sg8
S'HB2'
p29
sg10
F1.357
sa(dp30
g2
g24
sg4
I32381
sg5
F-0.88
sg6
F3.3376
sg7
F0.247
sg8
S'HB3'
p31
sg10
F1.357
sa(dp32
g2
S'ALA'
p33
sg4
I42783
sg5
F98.053
sg6
F142.81
sg7
F3.475
sg8
S'N'
p34
sg10
F123.27
sa(dp35
g2
S'ARG'
p36
sg4
I18487
sg5
F167.44
sg6
F184.51
sg7
F2.003
sg8
g9
sg10
F176.472
sa(dp37
g2
S'ARG'
p38
sg4
I25987
sg5
F43.271
sg6
F67.98
sg7
F2.303
sg8
S'CA'
p39
sg10
F56.8
sa(dp40
g2
S'ARG'
p41
sg4
I24241
sg5
F20.705
sg6
F42.504
sg7
F1.817
sg8
S'CB'
p42
sg10
F30.656
sa(dp43
g2
S'ARG'
p44
sg4
I15644
sg5
F32.499
sg6
F50.882
sg7
F0.894
sg8
S'CD'
p45
sg10
F43.157
sa(dp46
g2
S'ARG'
p47
sg4
I15443
sg5
F18.22
sg6
F39.975
sg7
F1.179
sg8
S'CG'
p48
sg10
F27.213
sa(dp49
g2
S'ARG'
p50
sg4
I405
sg5
F145.032
sg6
F179.69
sg7
F2.975
sg8
S'CZ'
p51
sg10
F160.031
sa(dp52
g2
S'ARG'
p53
sg4
I30832
sg5
F3.566
sg6
F12.69
sg7
F0.607
sg8
g19
sg10
F8.237
sa(dp54
g2
S'ARG'
p55
sg4
I23653
sg5
F1.34
sg6
F6.515
sg7
F0.455
sg8
S'HA'
p56
sg10
F4.289
sa(dp57
g2
S'ARG'
p58
sg4
I21490
sg5
F-0.773
sg6
F3.493
sg7
F0.267
sg8
S'HB2'
p59
sg10
F1.793
sa(dp60
g2
S'ARG'
p61
sg4
I20316
sg5
F-0.857
sg6
F3.32
sg7
F0.278
sg8
S'HB3'
p62
sg10
F1.762
sa(dp63
g2
S'ARG'
p64
sg4
I18994
sg5
F0.961
sg6
F4.692
sg7
F0.234
sg8
S'HD2'
p65
sg10
F3.117
sa(dp66
g2
S'ARG'
p67
sg4
I17202
sg5
F0.733
sg6
F4.564
sg7
F0.255
sg8
S'HD3'
p68
sg10
F3.102
sa(dp69
g2
S'ARG'
p70
sg4
I6091
sg5
F2.201
sg6
F11.88
sg7
F0.572
sg8
S'HE'
p71
sg10
F7.352
sa(dp72
g2
S'ARG'
p73
sg4
I19333
sg5
F-0.72
sg6
F3.51
sg7
F0.27
sg8
S'HG2'
p74
sg10
F1.565
sa(dp75
g2
S'ARG'
p76
sg4
I17811
sg5
F-0.742
sg6
F3.51
sg7
F0.286
sg8
S'HG3'
p77
sg10
F1.543
sa(dp78
g2
S'ARG'
p79
sg4
I560
sg5
F5.642
sg6
F9.82
sg7
F0.425
sg8
S'HH11'
p80
sg10
F6.886
sa(dp81
g2
S'ARG'
p82
sg4
I428
sg5
F5.92
sg6
F8.76
sg7
F0.345
sg8
S'HH12'
p83
sg10
F6.812
sa(dp84
g2
S'ARG'
p85
sg4
I477
sg5
F4.845
sg6
F8.66
sg7
F0.354
sg8
S'HH21'
p86
sg10
F6.779
sa(dp87
g2
S'ARG'
p88
sg4
I394
sg5
F5.92
sg6
F8.389
sg7
F0.314
sg8
S'HH22'
p89
sg10
F6.768
sa(dp90
g2
S'ARG'
p91
sg4
I27680
sg5
F102.782
sg6
F137.6
sg7
F3.646
sg8
g34
sg10
F120.789
sa(dp92
g2
S'ARG'
p93
sg4
I3407
sg5
F67.0
sg6
F99.808
sg7
F1.598
sg8
S'NE'
p94
sg10
F84.587
sa(dp95
g2
S'ARG'
p96
sg4
I96
sg5
F67.6
sg6
F87.786
sg7
F4.898
sg8
S'NH1'
p97
sg10
F73.907
sa(dp98
g2
S'ARG'
p99
sg4
I89
sg5
F69.9
sg6
F85.28
sg7
F2.727
sg8
S'NH2'
p100
sg10
F72.648
sa(dp101
g2
S'ASN'
p102
sg4
I15886
sg5
F167.039
sg6
F185.3
sg7
F1.779
sg8
g9
sg10
F175.302
sa(dp103
g2
S'ASN'
p104
sg4
I22112
sg5
F41.58
sg6
F66.211
sg7
F1.882
sg8
S'CA'
p105
sg10
F53.562
sa(dp106
g2
S'ASN'
p107
sg4
I20922
sg5
F26.448
sg6
F53.678
sg7
F1.671
sg8
S'CB'
p108
sg10
F38.69
sa(dp109
g2
S'ASN'
p110
sg4
I1525
sg5
F166.399
sg6
F183.8
sg7
F1.404
sg8
S'CG'
p111
sg10
F176.759
sa(dp112
g2
S'ASN'
p113
sg4
I25706
sg5
F2.61
sg6
F12.4
sg7
F0.62
sg8
g19
sg10
F8.328
sa(dp114
g2
S'ASN'
p115
sg4
I19739
sg5
F1.752
sg6
F6.6
sg7
F0.357
sg8
S'HA'
p116
sg10
F4.661
sa(dp117
g2
S'ASN'
p118
sg4
I18457
sg5
F0.18
sg6
F4.47
sg7
F0.315
sg8
S'HB2'
p119
sg10
F2.804
sa(dp120
g2
S'ASN'
p121
sg4
I17798
sg5
F-0.172
sg6
F4.47
sg7
F0.338
sg8
S'HB3'
p122
sg10
F2.75
sa(dp123
g2
S'ASN'
p124
sg4
I13888
sg5
F2.06
sg6
F9.603
sg7
F0.489
sg8
S'HD21'
p125
sg10
F7.327
sa(dp126
g2
S'ASN'
p127
sg4
I13694
sg5
F2.578
sg6
F9.986
sg7
F0.5
sg8
S'HD22'
p128
sg10
F7.15
sa(dp129
g2
S'ASN'
p130
sg4
I23379
sg5
F101.712
sg6
F137.49
sg7
F3.956
sg8
g34
sg10
F118.902
sa(dp131
g2
S'ASN'
p132
sg4
I11588
sg5
F99.4
sg6
F134.5
sg7
F2.303
sg8
S'ND2'
p133
sg10
F112.77
sa(dp134
g2
S'ASP'
p135
sg4
I22866
sg5
F166.8
sg6
F182.7
sg7
F1.718
sg8
g9
sg10
F176.445
sa(dp136
g2
S'ASP'
p137
sg4
I31500
sg5
F41.113
sg6
F67.166
sg7
F2.039
sg8
S'CA'
p138
sg10
F54.701
sa(dp139
g2
S'ASP'
p140
sg4
I29731
sg5
F27.48
sg6
F54.947
sg7
F1.609
sg8
S'CB'
p141
sg10
F40.87
sa(dp142
g2
S'ASP'
p143
sg4
I428
sg5
F170.72
sg6
F186.5
sg7
F1.761
sg8
S'CG'
p144
sg10
F179.263
sa(dp145
g2
S'ASP'
p146
sg4
I36209
sg5
F3.56
sg6
F12.68
sg7
F0.569
sg8
g19
sg10
F8.303
sa(dp147
g2
S'ASP'
p148
sg4
I26924
sg5
F2.171
sg6
F6.33
sg7
F0.314
sg8
S'HA'
p149
sg10
F4.587
sa(dp150
g2
S'ASP'
p151
sg4
I25040
sg5
F-0.39
sg6
F6.6
sg7
F0.263
sg8
S'HB2'
p152
sg10
F2.716
sa(dp153
g2
S'ASP'
p154
sg4
I24054
sg5
F-0.362
sg6
F4.58
sg7
F0.273
sg8
S'HB3'
p155
sg10
F2.664
sa(dp156
g2
S'ASP'
p157
sg4
I5
sg5
F4.65139
sg6
F9.29
sg7
F1.874
sg8
S'HD2'
p158
sg10
F6.059
sa(dp159
g2
S'ASP'
p160
sg4
I34021
sg5
F101.9
sg6
F143.52
sg7
F3.802
sg8
g34
sg10
F120.643
sa(dp161
g2
S'CYS'
p162
sg4
I6356
sg5
F166.733
sg6
F187.591
sg7
F2.039
sg8
g9
sg10
F174.955
sa(dp163
g2
S'CYS'
p164
sg4
I9298
sg5
F42.452
sg6
F67.641
sg7
F3.375
sg8
S'CA'
p165
sg10
F58.163
sa(dp166
g2
S'CYS'
p167
sg4
I8803
sg5
F17.99
sg6
F62.07
sg7
F6.303
sg8
S'CB'
p168
sg10
F33.091
sa(dp169
g2
S'CYS'
p170
sg4
I13952
sg5
F4.379
sg6
F12.12
sg7
F0.674
sg8
g19
sg10
F8.384
sa(dp171
g2
S'CYS'
p172
sg4
I12104
sg5
F1.64
sg6
F6.448
sg7
F0.549
sg8
S'HA'
p173
sg10
F4.655
sa(dp174
g2
S'CYS'
p175
sg4
I11673
sg5
F-0.488
sg6
F4.715
sg7
F0.44
sg8
S'HB2'
p176
sg10
F2.957
sa(dp177
g2
S'CYS'
p178
sg4
I11404
sg5
F-0.83
sg6
F4.77
sg7
F0.456
sg8
S'HB3'
p179
sg10
F2.889
sa(dp180
g2
S'CYS'
p181
sg4
I104
sg5
F0.1
sg6
F7.392
sg7
F1.25
sg8
S'HG'
p182
sg10
F2.08
sa(dp183
g2
S'CYS'
p184
sg4
I10047
sg5
F4.465484
sg6
F135.89
sg7
F4.652
sg8
g34
sg10
F120.082
sa(dp185
g2
S'GLN'
p186
sg4
I16569
sg5
F168.085
sg6
F183.366
sg7
F1.92
sg8
g9
sg10
F176.371
sa(dp187
g2
S'GLN'
p188
sg4
I22845
sg5
F43.453
sg6
F66.6
sg7
F2.114
sg8
S'CA'
p189
sg10
F56.615
sa(dp190
g2
S'GLN'
p191
sg4
I21327
sg5
F18.425
sg6
F42.196
sg7
F1.809
sg8
S'CB'
p192
sg10
F29.172
sa(dp193
g2
S'GLN'
p194
sg4
I1446
sg5
F171.365
sg6
F183.5
sg7
F1.236
sg8
S'CD'
p195
sg10
F179.707
sa(dp196
g2
S'GLN'
p197
sg4
I14439
sg5
F21.64
sg6
F42.8
sg7
F1.103
sg8
S'CG'
p198
sg10
F33.771
sa(dp199
g2
S'GLN'
p200
sg4
I25909
sg5
F3.505
sg6
F12.04
sg7
F0.578
sg8
g19
sg10
F8.216
sa(dp201
g2
S'GLN'
p202
sg4
I19726
sg5
F1.567
sg6
F6.34
sg7
F0.426
sg8
S'HA'
p203
sg10
F4.258
sa(dp204
g2
S'GLN'
p205
sg4
I17894
sg5
F-0.14
sg6
F4.0
sg7
F0.254
sg8
S'HB2'
p206
sg10
F2.046
sa(dp207
g2
S'GLN'
p208
sg4
I17011
sg5
F-0.52
sg6
F4.04
sg7
F0.268
sg8
S'HB3'
p209
sg10
F2.015
sa(dp210
g2
S'GLN'
p211
sg4
I12651
sg5
F3.39
sg6
F9.922
sg7
F0.446
sg8
S'HE21'
p212
sg10
F7.216
sa(dp213
g2
S'GLN'
p214
sg4
I12579
sg5
F3.59
sg6
F9.79
sg7
F0.435
sg8
S'HE22'
p215
sg10
F7.038
sa(dp216
g2
S'GLN'
p217
sg4
I16852
sg5
F-0.111
sg6
F3.899
sg7
F0.268
sg8
S'HG2'
p218
sg10
F2.313
sa(dp219
g2
S'GLN'
p220
sg4
I15537
sg5
F-0.406
sg6
F3.899
sg7
F0.287
sg8
S'HG3'
p221
sg10
F2.291
sa(dp222
g2
S'GLN'
p223
sg4
I24185
sg5
F103.877
sg6
F139.55
sg7
F3.554
sg8
g34
sg10
F119.89
sa(dp224
g2
S'GLN'
p225
sg4
I11080
sg5
F97.9
sg6
F125.331
sg7
F1.679
sg8
S'NE2'
p226
sg10
F111.868
sa(dp227
g2
S'GLU'
p228
sg4
I31062
sg5
F166.8
sg6
F182.988
sg7
F1.914
sg8
g9
sg10
F176.92
sa(dp229
g2
S'GLU'
p230
sg4
I41987
sg5
F44.348
sg6
F66.94
sg7
F2.074
sg8
S'CA'
p231
sg10
F57.335
sa(dp232
g2
S'GLU'
p233
sg4
I39060
sg5
F18.356
sg6
F46.749
sg7
F1.706
sg8
S'CB'
p234
sg10
F29.975
sa(dp235
g2
S'GLU'
p236
sg4
I465
sg5
F129.753
sg6
F188.007
sg7
F2.992
sg8
S'CD'
p237
sg10
F182.393
sa(dp238
g2
S'GLU'
p239
sg4
I25964
sg5
F25.074
sg6
F50.278
sg7
F1.189
sg8
S'CG'
p240
sg10
F36.098
sa(dp241
g2
S'GLU'
p242
sg4
I47762
sg5
F4.244
sg6
F12.692
sg7
F0.587
sg8
g19
sg10
F8.331
sa(dp243
g2
S'GLU'
p244
sg4
I35732
sg5
F1.393
sg6
F6.29
sg7
F0.405
sg8
S'HA'
p245
sg10
F4.243
sa(dp246
g2
S'GLU'
p247
sg4
I32331
sg5
F0.23
sg6
F3.44
sg7
F0.209
sg8
S'HB2'
p248
sg10
F2.022
sa(dp249
g2
S'GLU'
p250
sg4
I30351
sg5
F0.163
sg6
F3.467
sg7
F0.217
sg8
S'HB3'
p251
sg10
F1.997
sa(dp252
g2
S'GLU'
p253
sg4
I3
sg5
F2.727
sg6
F6.69
sg7
F2.288
sg8
S'HE2'
p254
sg10
F5.369
sa(dp255
g2
S'GLU'
p256
sg4
I30087
sg5
F0.528
sg6
F3.77
sg7
F0.211
sg8
S'HG2'
p257
sg10
F2.269
sa(dp258
g2
S'GLU'
p259
sg4
I27946
sg5
F0.438
sg6
F3.832
sg7
F0.214
sg8
S'HG3'
p260
sg10
F2.248
sa(dp261
g2
S'GLU'
p262
sg4
I45175
sg5
F102.942
sg6
F138.6
sg7
F3.46
sg8
g34
sg10
F120.702
sa(dp263
g2
S'GLY'
p264
sg4
I28767
sg5
F163.272
sg6
F187.394
sg7
F1.851
sg8
g9
sg10
F173.892
sa(dp265
g2
S'GLY'
p266
sg4
I40012
sg5
F33.148
sg6
F57.879
sg7
F1.269
sg8
S'CA'
p267
sg10
F45.357
sa(dp268
g2
S'GLY'
p269
sg4
I45808
sg5
F3.01
sg6
F12.22
sg7
F0.629
sg8
g19
sg10
F8.334
sa(dp270
g2
S'GLY'
p271
sg4
I34286
sg5
F0.844
sg6
F6.428
sg7
F0.368
sg8
S'HA2'
p272
sg10
F3.963
sa(dp273
g2
S'GLY'
p274
sg4
I32570
sg5
F0.645
sg6
F6.385
sg7
F0.369
sg8
S'HA3'
p275
sg10
F3.898
sa(dp276
g2
S'GLY'
p277
sg4
I41800
sg5
F93.604
sg6
F162.194
sg7
F3.705
sg8
g34
sg10
F109.595
sa(dp278
g2
S'HIS'
p279
sg4
I8230
sg5
F166.9
sg6
F183.12
sg7
F1.95
sg8
g9
sg10
F175.262
sa(dp280
g2
S'HIS'
p281
sg4
I11745
sg5
F43.308
sg6
F66.98
sg7
F2.312
sg8
S'CA'
p282
sg10
F56.523
sa(dp283
g2
S'HIS'
p284
sg4
I11048
sg5
F18.745
sg6
F43.382
sg7
F2.091
sg8
S'CB'
p285
sg10
F30.226
sa(dp286
g2
S'HIS'
p287
sg4
I4330
sg5
F110.516
sg6
F159.946
sg7
F3.382
sg8
S'CD2'
p288
sg10
F120.428
sa(dp289
g2
S'HIS'
p290
sg4
I3334
sg5
F104.667
sg6
F144.756
sg7
F2.272
sg8
S'CE1'
p291
sg10
F137.649
sa(dp292
g2
S'HIS'
p293
sg4
I92
sg5
F117.54
sg6
F139.557
sg7
F3.213
sg8
S'CG'
p294
sg10
F131.971
sa(dp295
g2
S'HIS'
p296
sg4
I13120
sg5
F3.97
sg6
F12.392
sg7
F0.674
sg8
g19
sg10
F8.248
sa(dp297
g2
S'HIS'
p298
sg4
I10294
sg5
F1.929
sg6
F8.9
sg7
F0.43
sg8
S'HA'
p299
sg10
F4.603
sa(dp300
g2
S'HIS'
p301
sg4
I9582
sg5
F-0.038
sg6
F8.7
sg7
F0.353
sg8
S'HB2'
p302
sg10
F3.108
sa(dp303
g2
S'HIS'
p304
sg4
I9292
sg5
F-0.387
sg6
F8.7
sg7
F0.382
sg8
S'HB3'
p305
sg10
F3.046
sa(dp306
g2
S'HIS'
p307
sg4
I447
sg5
F2.73
sg6
F77.1
sg7
F7.964
sg8
S'HD1'
p308
sg10
F9.504
sa(dp309
g2
S'HIS'
p310
sg4
I6835
sg5
F0.47
sg6
F9.415
sg7
F0.491
sg8
S'HD2'
p311
sg10
F6.999
sa(dp312
g2
S'HIS'
p313
sg4
I5404
sg5
F0.075
sg6
F10.881
sg7
F0.593
sg8
S'HE1'
p314
sg10
F7.94
sa(dp315
g2
S'HIS'
p316
sg4
I193
sg5
F6.573
sg6
F16.53
sg7
F2.388
sg8
S'HE2'
p317
sg10
F9.578
sa(dp318
g2
S'HIS'
p319
sg4
I11968
sg5
F103.986
sg6
F136.48
sg7
F4.037
sg8
g34
sg10
F119.686
sa(dp320
g2
S'HIS'
p321
sg4
I220
sg5
F162.04
sg6
F229.14
sg7
F18.456
sg8
S'ND1'
p322
sg10
F192.368
sa(dp323
g2
S'HIS'
p324
sg4
I238
sg5
F161.376
sg6
F226.759
sg7
F16.905
sg8
S'NE2'
p325
sg10
F184.533
sa(dp326
g2
S'ILE'
p327
sg4
I20717
sg5
F166.403
sg6
F187.551
sg7
F1.892
sg8
g9
sg10
F175.936
sa(dp328
g2
S'ILE'
p329
sg4
I28363
sg5
F49.045
sg6
F71.856
sg7
F2.681
sg8
S'CA'
p330
sg10
F61.675
sa(dp331
g2
S'ILE'
p332
sg4
I26540
sg5
F22.113
sg6
F51.876
sg7
F1.993
sg8
S'CB'
p333
sg10
F38.577
sa(dp334
g2
S'ILE'
p335
sg4
I18980
sg5
F2.905
sg6
F29.595
sg7
F1.652
sg8
S'CD1'
p336
sg10
F13.402
sa(dp337
g2
S'ILE'
p338
sg4
I17622
sg5
F12.05
sg6
F39.05
sg7
F1.686
sg8
S'CG1'
p339
sg10
F27.735
sa(dp340
g2
S'ILE'
p341
sg4
I18720
sg5
F3.448
sg6
F29.8
sg7
F1.325
sg8
S'CG2'
p342
sg10
F17.53
sa(dp343
g2
S'ILE'
p344
sg4
I32337
sg5
F3.428
sg6
F11.871
sg7
F0.681
sg8
g19
sg10
F8.265
sa(dp345
g2
S'ILE'
p346
sg4
I24256
sg5
F1.32
sg6
F6.362
sg7
F0.553
sg8
S'HA'
p347
sg10
F4.165
sa(dp348
g2
S'ILE'
p349
sg4
I22794
sg5
F-1.28
sg6
F3.87
sg7
F0.294
sg8
S'HB'
p350
sg10
F1.783
sa(dp351
g2
S'ILE'
p352
sg4
I20691
sg5
F-2.12
sg6
F2.691
sg7
F0.399
sg8
S'HG12'
p353
sg10
F1.274
sa(dp354
g2
S'ILE'
p355
sg4
I19937
sg5
F-2.074
sg6
F2.99
sg7
F0.407
sg8
S'HG13'
p356
sg10
F1.194
sa(dp357
g2
S'ILE'
p358
sg4
I22024
sg5
F-1.468
sg6
F2.82
sg7
F0.288
sg8
S'HD1'
p359
sg10
F0.679
sa(dp360
g2
g358
sg4
I22024
sg5
F-1.468
sg6
F2.82
sg7
F0.288
sg8
S'HD11'
p361
sg10
F0.679
sa(dp362
g2
g358
sg4
I22024
sg5
F-1.468
sg6
F2.82
sg7
F0.288
sg8
S'HD12'
p363
sg10
F0.679
sa(dp364
g2
g358
sg4
I22024
sg5
F-1.468
sg6
F2.82
sg7
F0.288
sg8
S'HD13'
p365
sg10
F0.679
sa(dp366
g2
S'ILE'
p367
sg4
I21671
sg5
F-1.468
sg6
F2.198
sg7
F0.271
sg8
S'HG2'
p368
sg10
F0.776
sa(dp369
g2
g367
sg4
I21671
sg5
F-1.468
sg6
F2.198
sg7
F0.271
sg8
S'HG21'
p370
sg10
F0.776
sa(dp371
g2
g367
sg4
I21671
sg5
F-1.468
sg6
F2.198
sg7
F0.271
sg8
S'HG22'
p372
sg10
F0.776
sa(dp373
g2
g367
sg4
I21671
sg5
F-1.468
sg6
F2.198
sg7
F0.271
sg8
S'HG23'
p374
sg10
F0.776
sa(dp375
g2
S'ILE'
p376
sg4
I30189
sg5
F99.0
sg6
F138.12
sg7
F4.267
sg8
g34
sg10
F121.399
sa(dp377
g2
S'LEU'
p378
sg4
I34089
sg5
F167.49
sg6
F189.78
sg7
F1.933
sg8
g9
sg10
F177.083
sa(dp379
g2
S'LEU'
p380
sg4
I46695
sg5
F37.916
sg6
F67.88
sg7
F2.124
sg8
S'CA'
p381
sg10
F55.694
sa(dp382
g2
S'LEU'
p383
sg4
I43742
sg5
F26.4
sg6
F55.546
sg7
F1.846
sg8
S'CB'
p384
sg10
F42.272
sa(dp385
g2
S'LEU'
p386
sg4
I30536
sg5
F10.945
sg6
F36.85
sg7
F1.584
sg8
S'CD1'
p387
sg10
F24.675
sa(dp388
g2
S'LEU'
p389
sg4
I29089
sg5
F11.706
sg6
F30.4
sg7
F1.682
sg8
S'CD2'
p390
sg10
F24.067
sa(dp391
g2
S'LEU'
p392
sg4
I27627
sg5
F15.3
sg6
F37.7
sg7
F1.086
sg8
S'CG'
p393
sg10
F26.787
sa(dp394
g2
S'LEU'
p395
sg4
I53601
sg5
F2.15
sg6
F13.22
sg7
F0.635
sg8
g19
sg10
F8.217
sa(dp396
g2
S'LEU'
p397
sg4
I40287
sg5
F1.58
sg6
F6.42
sg7
F0.459
sg8
S'HA'
p398
sg10
F4.3
sa(dp399
g2
S'LEU'
p400
sg4
I36965
sg5
F-1.292
sg6
F3.226
sg7
F0.344
sg8
S'HB2'
p401
sg10
F1.612
sa(dp402
g2
S'LEU'
p403
sg4
I35384
sg5
F-1.51
sg6
F3.226
sg7
F0.364
sg8
S'HB3'
p404
sg10
F1.521
sa(dp405
g2
S'LEU'
p406
sg4
I32796
sg5
F-1.06
sg6
F3.9
sg7
F0.329
sg8
S'HG'
p407
sg10
F1.511
sa(dp408
g2
S'LEU'
p409
sg4
I36597
sg5
F-1.76
sg6
F2.364
sg7
F0.278
sg8
S'HD1'
p410
sg10
F0.754
sa(dp411
g2
g409
sg4
I36597
sg5
F-1.76
sg6
F2.364
sg7
F0.278
sg8
S'HD11'
p412
sg10
F0.754
sa(dp413
g2
g409
sg4
I36597
sg5
F-1.76
sg6
F2.364
sg7
F0.278
sg8
S'HD12'
p414
sg10
F0.754
sa(dp415
g2
g409
sg4
I36597
sg5
F-1.76
sg6
F2.364
sg7
F0.278
sg8
S'HD13'
p416
sg10
F0.754
sa(dp417
g2
S'LEU'
p418
sg4
I35181
sg5
F-1.652
sg6
F2.67
sg7
F0.282
sg8
S'HD2'
p419
sg10
F0.733
sa(dp420
g2
g418
sg4
I35181
sg5
F-1.652
sg6
F2.67
sg7
F0.282
sg8
S'HD21'
p421
sg10
F0.733
sa(dp422
g2
g418
sg4
I35181
sg5
F-1.652
sg6
F2.67
sg7
F0.282
sg8
S'HD22'
p423
sg10
F0.733
sa(dp424
g2
g418
sg4
I35181
sg5
F-1.652
sg6
F2.67
sg7
F0.282
sg8
S'HD23'
p425
sg10
F0.733
sa(dp426
g2
S'LEU'
p427
sg4
I49738
sg5
F98.56
sg6
F177.623
sg7
F3.863
sg8
g34
sg10
F121.816
sa(dp428
g2
S'LYS'
p429
sg4
I28042
sg5
F166.633
sg6
F185.0
sg7
F1.912
sg8
g9
sg10
F176.722
sa(dp430
g2
S'LYS'
p431
sg4
I38456
sg5
F40.726
sg6
F65.866
sg7
F2.178
sg8
S'CA'
p432
sg10
F56.973
sa(dp433
g2
S'LYS'
p434
sg4
I35838
sg5
F21.192
sg6
F46.6
sg7
F1.77
sg8
S'CB'
p435
sg10
F32.784
sa(dp436
g2
S'LYS'
p437
sg4
I21952
sg5
F20.1
sg6
F40.1
sg7
F1.081
sg8
S'CD'
p438
sg10
F28.951
sa(dp439
g2
S'LYS'
p440
sg4
I21237
sg5
F30.477
sg6
F52.196
sg7
F0.829
sg8
S'CE'
p441
sg10
F41.89
sa(dp442
g2
S'LYS'
p443
sg4
I23201
sg5
F16.845
sg6
F36.22
sg7
F1.121
sg8
S'CG'
p444
sg10
F24.897
sa(dp445
g2
S'LYS'
p446
sg4
I45148
sg5
F4.108
sg6
F12.031
sg7
F0.594
sg8
g19
sg10
F8.18
sa(dp447
g2
S'LYS'
p448
sg4
I34522
sg5
F0.68
sg6
F7.96
sg7
F0.432
sg8
S'HA'
p449
sg10
F4.259
sa(dp450
g2
S'LYS'
p451
sg4
I30886
sg5
F-0.75
sg6
F4.05
sg7
F0.248
sg8
S'HB2'
p452
sg10
F1.776
sa(dp453
g2
S'LYS'
p454
sg4
I29064
sg5
F-0.899
sg6
F3.95
sg7
F0.268
sg8
S'HB3'
p455
sg10
F1.747
sa(dp456
g2
S'LYS'
p457
sg4
I24934
sg5
F-1.68
sg6
F3.19
sg7
F0.213
sg8
S'HD2'
p458
sg10
F1.605
sa(dp459
g2
S'LYS'
p460
sg4
I22397
sg5
F-1.016
sg6
F3.193
sg7
F0.218
sg8
S'HD3'
p461
sg10
F1.596
sa(dp462
g2
S'LYS'
p463
sg4
I24686
sg5
F1.178
sg6
F4.43
sg7
F0.192
sg8
S'HE2'
p464
sg10
F2.913
sa(dp465
g2
S'LYS'
p466
sg4
I21674
sg5
F1.12
sg6
F4.55
sg7
F0.2
sg8
S'HE3'
p467
sg10
F2.907
sa(dp468
g2
S'LYS'
p469
sg4
I27999
sg5
F-1.114
sg6
F3.613
sg7
F0.256
sg8
S'HG2'
p470
sg10
F1.368
sa(dp471
g2
S'LYS'
p472
sg4
I25768
sg5
F-1.164
sg6
F3.613
sg7
F0.273
sg8
S'HG3'
p473
sg10
F1.35
sa(dp474
g2
S'LYS'
p475
sg4
I41276
sg5
F101.1
sg6
F140.3
sg7
F3.722
sg8
g34
sg10
F121.044
sa(dp476
g2
S'LYS'
p477
sg4
I38
sg5
F29.48
sg6
F43.687
sg7
F2.217
sg8
S'NZ'
p478
sg10
F33.254
sa(dp479
g2
S'LYS'
p480
sg4
I1052
sg5
F1.949
sg6
F9.9
sg7
F0.63
sg8
S'HZ'
p481
sg10
F7.422
sa(dp482
g2
g480
sg4
I1052
sg5
F1.949
sg6
F9.9
sg7
F0.63
sg8
S'HZ1'
p483
sg10
F7.422
sa(dp484
g2
g480
sg4
I1052
sg5
F1.949
sg6
F9.9
sg7
F0.63
sg8
S'HZ2'
p485
sg10
F7.422
sa(dp486
g2
S'MET'
p487
sg4
I8230
sg5
F167.4
sg6
F183.159
sg7
F2.075
sg8
g9
sg10
F176.234
sa(dp488
g2
S'MET'
p489
sg4
I11562
sg5
F43.281
sg6
F66.86
sg7
F2.224
sg8
S'CA'
p490
sg10
F56.139
sa(dp491
g2
S'MET'
p492
sg4
I10685
sg5
F20.361
sg6
F46.46
sg7
F2.2
sg8
S'CB'
p493
sg10
F32.938
sa(dp494
g2
S'MET'
p495
sg4
I5160
sg5
F10.69
sg6
F38.441
sg7
F1.533
sg8
S'CE'
p496
sg10
F17.075
sa(dp497
g2
S'MET'
p498
sg4
I6683
sg5
F19.056
sg6
F38.581
sg7
F1.23
sg8
S'CG'
p499
sg10
F32.026
sa(dp500
g2
S'MET'
p501
sg4
I12567
sg5
F4.865
sg6
F12.456
sg7
F0.59
sg8
g19
sg10
F8.259
sa(dp502
g2
S'MET'
p503
sg4
I9850
sg5
F1.127
sg6
F6.35
sg7
F0.463
sg8
S'HA'
p504
sg10
F4.396
sa(dp505
g2
S'MET'
p506
sg4
I8811
sg5
F-1.05
sg6
F4.07
sg7
F0.33
sg8
S'HB2'
p507
sg10
F2.025
sa(dp508
g2
S'MET'
p509
sg4
I8296
sg5
F-0.99
sg6
F3.47
sg7
F0.343
sg8
S'HB3'
p510
sg10
F1.988
sa(dp511
g2
S'MET'
p512
sg4
I8121
sg5
F-0.42
sg6
F4.4
sg7
F0.349
sg8
S'HG2'
p513
sg10
F2.423
sa(dp514
g2
S'MET'
p515
sg4
I7675
sg5
F-0.302
sg6
F4.24
sg7
F0.374
sg8
S'HG3'
p516
sg10
F2.394
sa(dp517
g2
S'MET'
p518
sg4
I5839
sg5
F-0.713
sg6
F8.381
sg7
F0.413
sg8
S'HE'
p519
sg10
F1.885
sa(dp520
g2
g518
sg4
I5839
sg5
F-0.713
sg6
F8.381
sg7
F0.413
sg8
S'HE1'
p521
sg10
F1.885
sa(dp522
g2
g518
sg4
I5839
sg5
F-0.713
sg6
F8.381
sg7
F0.413
sg8
S'HE2'
p523
sg10
F1.885
sa(dp524
g2
g518
sg4
I5839
sg5
F-0.713
sg6
F8.381
sg7
F0.413
sg8
S'HE3'
p525
sg10
F1.885
sa(dp526
g2
S'MET'
p527
sg4
I11838
sg5
F102.876
sg6
F138.547
sg7
F3.511
sg8
g34
sg10
F120.09
sa(dp528
g2
S'PHE'
p529
sg4
I14359
sg5
F167.2
sg6
F184.929
sg7
F1.972
sg8
g9
sg10
F175.5
sa(dp530
g2
S'PHE'
p531
sg4
I19668
sg5
F45.52
sg6
F69.821
sg7
F2.581
sg8
S'CA'
p532
sg10
F58.148
sa(dp533
g2
S'PHE'
p534
sg4
I18480
sg5
F25.52
sg6
F50.225
sg7
F2.068
sg8
S'CB'
p535
sg10
F39.947
sa(dp536
g2
S'PHE'
p537
sg4
I7720
sg5
F116.948
sg6
F136.728
sg7
F1.192
sg8
S'CD1'
p538
sg10
F131.571
sa(dp539
g2
S'PHE'
p540
sg4
I5746
sg5
F118.128
sg6
F138.249
sg7
F1.173
sg8
S'CD2'
p541
sg10
F131.58
sa(dp542
g2
S'PHE'
p543
sg4
I6751
sg5
F114.754
sg6
F139.56
sg7
F1.292
sg8
S'CE1'
p544
sg10
F130.723
sa(dp545
g2
S'PHE'
p546
sg4
I5043
sg5
F114.7
sg6
F139.7
sg7
F1.169
sg8
S'CE2'
p547
sg10
F130.752
sa(dp548
g2
S'PHE'
p549
sg4
I170
sg5
F127.24
sg6
F152.844
sg7
F3.262
sg8
S'CG'
p550
sg10
F138.067
sa(dp551
g2
S'PHE'
p552
sg4
I5246
sg5
F116.458
sg6
F138.6
sg7
F1.446
sg8
S'CZ'
p553
sg10
F129.22
sa(dp554
g2
S'PHE'
p555
sg4
I22869
sg5
F3.549
sg6
F12.1759
sg7
F0.716
sg8
g19
sg10
F8.341
sa(dp556
g2
S'PHE'
p557
sg4
I17066
sg5
F1.78
sg6
F6.868
sg7
F0.563
sg8
S'HA'
p558
sg10
F4.614
sa(dp559
g2
S'PHE'
p560
sg4
I15907
sg5
F0.159
sg6
F4.461
sg7
F0.367
sg8
S'HB2'
p561
sg10
F2.998
sa(dp562
g2
S'PHE'
p563
sg4
I15526
sg5
F-0.212
sg6
F4.69
sg7
F0.39
sg8
S'HB3'
p564
sg10
F2.938
sa(dp565
g2
S'PHE'
p566
sg4
I13457
sg5
F4.669
sg6
F8.152
sg7
F0.309
sg8
S'HD1'
p567
sg10
F7.058
sa(dp568
g2
S'PHE'
p569
sg4
I11531
sg5
F4.669
sg6
F8.152
sg7
F0.314
sg8
S'HD2'
p570
sg10
F7.057
sa(dp571
g2
S'PHE'
p572
sg4
I11762
sg5
F4.378
sg6
F8.19
sg7
F0.316
sg8
S'HE1'
p573
sg10
F7.079
sa(dp574
g2
S'PHE'
p575
sg4
I10262
sg5
F4.378
sg6
F8.19
sg7
F0.319
sg8
S'HE2'
p576
sg10
F7.075
sa(dp577
g2
S'PHE'
p578
sg4
I8398
sg5
F4.324
sg6
F8.919
sg7
F0.424
sg8
S'HZ'
p579
sg10
F6.991
sa(dp580
g2
S'PHE'
p581
sg4
I21110
sg5
F102.2
sg6
F139.02
sg7
F4.141
sg8
g34
sg10
F120.37
sa(dp582
g2
S'PRO'
p583
sg4
I15309
sg5
F168.381
sg6
F182.836
sg7
F1.493
sg8
g9
sg10
F176.765
sa(dp584
g2
S'PRO'
p585
sg4
I22006
sg5
F50.12
sg6
F70.88
sg7
F1.513
sg8
S'CA'
p586
sg10
F63.357
sa(dp587
g2
S'PRO'
p588
sg4
I20614
sg5
F20.914
sg6
F45.16
sg7
F1.174
sg8
S'CB'
p589
sg10
F31.853
sa(dp590
g2
S'PRO'
p591
sg4
I14284
sg5
F37.0759
sg6
F58.812
sg7
F0.999
sg8
S'CD'
p592
sg10
F50.344
sa(dp593
g2
S'PRO'
p594
sg4
I14265
sg5
F18.28
sg6
F33.9
sg7
F1.073
sg8
S'CG'
p595
sg10
F27.195
sa(dp596
g2
S'PRO'
p597
sg4
I19630
sg5
F1.044
sg6
F8.08
sg7
F0.331
sg8
S'HA'
p598
sg10
F4.389
sa(dp599
g2
S'PRO'
p600
sg4
I18222
sg5
F-0.472
sg6
F4.351
sg7
F0.346
sg8
S'HB2'
p601
sg10
F2.077
sa(dp602
g2
S'PRO'
p603
sg4
I17622
sg5
F-1.074
sg6
F3.79
sg7
F0.357
sg8
S'HB3'
p604
sg10
F2.0
sa(dp605
g2
S'PRO'
p606
sg4
I16954
sg5
F-0.043
sg6
F7.077
sg7
F0.35
sg8
S'HD2'
p607
sg10
F3.648
sa(dp608
g2
S'PRO'
p609
sg4
I16337
sg5
F-0.257
sg6
F5.357
sg7
F0.383
sg8
S'HD3'
p610
sg10
F3.612
sa(dp611
g2
S'PRO'
p612
sg4
I16557
sg5
F-0.801
sg6
F4.418
sg7
F0.313
sg8
S'HG2'
p613
sg10
F1.925
sa(dp614
g2
S'PRO'
p615
sg4
I15319
sg5
F-0.9
sg6
F4.418
sg7
F0.327
sg8
S'HG3'
p616
sg10
F1.9
sa(dp617
g2
S'PRO'
p618
sg4
I604
sg5
F110.908
sg6
F145.257
sg7
F6.39
sg8
g34
sg10
F134.559
sa(dp619
g2
S'SER'
p620
sg4
I25087
sg5
F164.47
sg6
F184.875
sg7
F1.728
sg8
g9
sg10
F174.654
sa(dp621
g2
S'SER'
p622
sg4
I34948
sg5
F45.13
sg6
F73.678
sg7
F2.085
sg8
S'CA'
p623
sg10
F58.753
sa(dp624
g2
S'SER'
p625
sg4
I32435
sg5
F31.4
sg6
F78.834
sg7
F1.52
sg8
S'CB'
p626
sg10
F63.794
sa(dp627
g2
S'SER'
p628
sg4
I39313
sg5
F3.76
sg6
F13.13
sg7
F0.579
sg8
g19
sg10
F8.277
sa(dp629
g2
S'SER'
p630
sg4
I30398
sg5
F1.43
sg6
F6.853
sg7
F0.401
sg8
S'HA'
p631
sg10
F4.474
sa(dp632
g2
S'SER'
p633
sg4
I27874
sg5
F1.66
sg6
F5.453
sg7
F0.253
sg8
S'HB2'
p634
sg10
F3.873
sa(dp635
g2
S'SER'
p636
sg4
I25778
sg5
F1.49
sg6
F5.453
sg7
F0.272
sg8
S'HB3'
p637
sg10
F3.847
sa(dp638
g2
S'SER'
p639
sg4
I421
sg5
F0.13
sg6
F8.97
sg7
F1.026
sg8
S'HG'
p640
sg10
F5.418
sa(dp641
g2
S'SER'
p642
sg4
I36161
sg5
F95.97
sg6
F133.684
sg7
F3.509
sg8
g34
sg10
F116.269
sa(dp643
g2
S'THR'
p644
sg4
I21212
sg5
F165.5
sg6
F184.431
sg7
F1.717
sg8
g9
sg10
F174.584
sa(dp645
g2
S'THR'
p646
sg4
I29484
sg5
F48.009
sg6
F72.797
sg7
F2.59
sg8
S'CA'
p647
sg10
F62.261
sa(dp648
g2
S'THR'
p649
sg4
I27329
sg5
F29.97
sg6
F81.526
sg7
F1.737
sg8
S'CB'
p650
sg10
F69.708
sa(dp651
g2
S'THR'
p652
sg4
I18723
sg5
F11.7
sg6
F36.725
sg7
F1.094
sg8
S'CG2'
p653
sg10
F21.556
sa(dp654
g2
S'THR'
p655
sg4
I34217
sg5
F5.32
sg6
F11.727
sg7
F0.616
sg8
g19
sg10
F8.237
sa(dp656
g2
S'THR'
p657
sg4
I25778
sg5
F1.65
sg6
F7.468
sg7
F0.475
sg8
S'HA'
p658
sg10
F4.452
sa(dp659
g2
S'THR'
p660
sg4
I23456
sg5
F0.92
sg6
F8.346
sg7
F0.323
sg8
S'HB'
p661
sg10
F4.164
sa(dp662
g2
S'THR'
p663
sg4
I740
sg5
F0.32
sg6
F8.903
sg7
F1.161
sg8
S'HG1'
p664
sg10
F5.168
sa(dp665
g2
S'THR'
p666
sg4
I23249
sg5
F-1.186
sg6
F3.4
sg7
F0.219
sg8
S'HG2'
p667
sg10
F1.137
sa(dp668
g2
g666
sg4
I23249
sg5
F-1.186
sg6
F3.4
sg7
F0.219
sg8
S'HG21'
p669
sg10
F1.137
sa(dp670
g2
g666
sg4
I23249
sg5
F-1.186
sg6
F3.4
sg7
F0.219
sg8
S'HG22'
p671
sg10
F1.137
sa(dp672
g2
g666
sg4
I23249
sg5
F-1.186
sg6
F3.4
sg7
F0.219
sg8
S'HG23'
p673
sg10
F1.137
sa(dp674
g2
S'THR'
p675
sg4
I31648
sg5
F95.77
sg6
F138.274
sg7
F4.72
sg8
g34
sg10
F115.373
sa(dp676
g2
S'TRP'
p677
sg4
I4384
sg5
F168.169
sg6
F182.604
sg7
F1.994
sg8
g9
sg10
F176.239
sa(dp678
g2
S'TRP'
p679
sg4
I6064
sg5
F44.685
sg6
F81.0
sg7
F2.575
sg8
S'CA'
p680
sg10
F57.753
sa(dp681
g2
S'TRP'
p682
sg4
I5726
sg5
F18.633
sg6
F52.3
sg7
F1.996
sg8
S'CB'
p683
sg10
F29.958
sa(dp684
g2
S'TRP'
p685
sg4
I2858
sg5
F108.45
sg6
F133.49
sg7
F1.812
sg8
S'CD1'
p686
sg10
F126.554
sa(dp687
g2
S'TRP'
p688
sg4
I100
sg5
F120.2
sg6
F139.1
sg7
F1.969
sg8
S'CD2'
p689
sg10
F127.971
sa(dp690
g2
S'TRP'
p691
sg4
I99
sg5
F113.888
sg6
F177.71
sg7
F7.635
sg8
S'CE2'
p692
sg10
F138.611
sa(dp693
g2
S'TRP'
p694
sg4
I2424
sg5
F93.343
sg6
F137.6
sg7
F1.705
sg8
S'CE3'
p695
sg10
F120.448
sa(dp696
g2
S'TRP'
p697
sg4
I133
sg5
F102.53
sg6
F116.526
sg7
F2.034
sg8
S'CG'
p698
sg10
F110.921
sa(dp699
g2
S'TRP'
p700
sg4
I2556
sg5
F91.616
sg6
F131.54
sg7
F1.527
sg8
S'CH2'
p701
sg10
F123.831
sa(dp702
g2
S'TRP'
p703
sg4
I2734
sg5
F81.812
sg6
F132.031
sg7
F1.354
sg8
S'CZ2'
p704
sg10
F114.248
sa(dp705
g2
S'TRP'
p706
sg4
I2460
sg5
F98.613
sg6
F138.39
sg7
F1.567
sg8
S'CZ3'
p707
sg10
F121.361
sa(dp708
g2
S'TRP'
p709
sg4
I7513
sg5
F5.16
sg6
F11.75862
sg7
F0.762
sg8
g19
sg10
F8.267
sa(dp710
g2
S'TRP'
p711
sg4
I5627
sg5
F2.243
sg6
F6.55
sg7
F0.515
sg8
S'HA'
p712
sg10
F4.66
sa(dp713
g2
S'TRP'
p714
sg4
I5304
sg5
F0.42
sg6
F4.54
sg7
F0.347
sg8
S'HB2'
p715
sg10
F3.186
sa(dp716
g2
S'TRP'
p717
sg4
I5153
sg5
F0.257
sg6
F4.44
sg7
F0.369
sg8
S'HB3'
p718
sg10
F3.119
sa(dp719
g2
S'TRP'
p720
sg4
I4760
sg5
F4.9
sg6
F8.93
sg7
F0.344
sg8
S'HD1'
p721
sg10
F7.137
sa(dp722
g2
S'TRP'
p723
sg4
I5167
sg5
F5.1154
sg6
F13.49
sg7
F0.639
sg8
S'HE1'
p724
sg10
F10.082
sa(dp725
g2
S'TRP'
p726
sg4
I4211
sg5
F4.89
sg6
F9.949
sg7
F0.411
sg8
S'HE3'
p727
sg10
F7.316
sa(dp728
g2
S'TRP'
p729
sg4
I4143
sg5
F4.372
sg6
F8.797
sg7
F0.362
sg8
S'HH2'
p730
sg10
F6.975
sa(dp731
g2
S'TRP'
p732
sg4
I4482
sg5
F4.655
sg6
F8.558
sg7
F0.324
sg8
S'HZ2'
p733
sg10
F7.282
sa(dp734
g2
S'TRP'
p735
sg4
I4066
sg5
F3.877
sg6
F8.898
sg7
F0.379
sg8
S'HZ3'
p736
sg10
F6.868
sa(dp737
g2
S'TRP'
p738
sg4
I6572
sg5
F101.97
sg6
F138.113
sg7
F4.083
sg8
g34
sg10
F121.574
sa(dp739
g2
S'TRP'
p740
sg4
I3992
sg5
F106.0
sg6
F139.2
sg7
F2.226
sg8
S'NE1'
p741
sg10
F129.231
sa(dp742
g2
S'TYR'
p743
sg4
I11609
sg5
F168.368
sg6
F184.78
sg7
F1.965
sg8
g9
sg10
F175.467
sa(dp744
g2
S'TYR'
p745
sg4
I16238
sg5
F44.635
sg6
F69.56
sg7
F2.519
sg8
S'CA'
p746
sg10
F58.181
sa(dp747
g2
S'TYR'
p748
sg4
I15096
sg5
F25.321
sg6
F47.3
sg7
F2.135
sg8
S'CB'
p749
sg10
F39.271
sa(dp750
g2
S'TYR'
p751
sg4
I6907
sg5
F54.99
sg6
F141.572
sg7
F1.604
sg8
S'CD1'
p752
sg10
F132.737
sa(dp753
g2
S'TYR'
p754
sg4
I4946
sg5
F113.003
sg6
F138.289
sg7
F1.444
sg8
S'CD2'
p755
sg10
F132.713
sa(dp756
g2
S'TYR'
p757
sg4
I6878
sg5
F110.7
sg6
F137.42
sg7
F1.215
sg8
S'CE1'
p758
sg10
F117.926
sa(dp759
g2
S'TYR'
p760
sg4
I4908
sg5
F106.548
sg6
F135.823
sg7
F1.235
sg8
S'CE2'
p761
sg10
F117.896
sa(dp762
g2
S'TYR'
p763
sg4
I164
sg5
F117.7
sg6
F174.59
sg7
F4.542
sg8
S'CG'
p764
sg10
F129.48
sa(dp765
g2
S'TYR'
p766
sg4
I118
sg5
F105.248
sg6
F160.45
sg7
F4.981
sg8
S'CZ'
p767
sg10
F156.428
sa(dp768
g2
S'TYR'
p769
sg4
I19456
sg5
F4.156
sg6
F11.988
sg7
F0.724
sg8
g19
sg10
F8.298
sa(dp770
g2
S'TYR'
p771
sg4
I14806
sg5
F1.188
sg6
F6.765
sg7
F0.554
sg8
S'HA'
p772
sg10
F4.606
sa(dp773
g2
S'TYR'
p774
sg4
I13727
sg5
F-0.494
sg6
F4.7
sg7
F0.372
sg8
S'HB2'
p775
sg10
F2.904
sa(dp776
g2
S'TYR'
p777
sg4
I13414
sg5
F-0.192
sg6
F4.7
sg7
F0.392
sg8
S'HB3'
p778
sg10
F2.843
sa(dp779
g2
S'TYR'
p780
sg4
I12038
sg5
F3.931
sg6
F8.527
sg7
F0.296
sg8
S'HD1'
p781
sg10
F6.935
sa(dp782
g2
S'TYR'
p783
sg4
I10473
sg5
F4.027
sg6
F8.5
sg7
F0.297
sg8
S'HD2'
p784
sg10
F6.932
sa(dp785
g2
S'TYR'
p786
sg4
I11464
sg5
F4.58
sg6
F7.829
sg7
F0.225
sg8
S'HE1'
p787
sg10
F6.702
sa(dp788
g2
S'TYR'
p789
sg4
I10082
sg5
F4.58
sg6
F8.5
sg7
F0.231
sg8
S'HE2'
p790
sg10
F6.703
sa(dp791
g2
S'TYR'
p792
sg4
I204
sg5
F-0.788
sg6
F13.748
sg7
F1.595
sg8
S'HH'
p793
sg10
F9.237
sa(dp794
g2
S'TYR'
p795
sg4
I17368
sg5
F39.2
sg6
F144.96
sg7
F4.263
sg8
g34
sg10
F120.458
sa(dp796
g2
S'VAL'
p797
sg4
I27340
sg5
F165.654
sg6
F183.949
sg7
F1.867
sg8
g9
sg10
F175.71
sa(dp798
g2
S'VAL'
p799
sg4
I37219
sg5
F49.184
sg6
F70.39
sg7
F2.853
sg8
S'CA'
p800
sg10
F62.572
sa(dp801
g2
S'VAL'
p802
sg4
I34440
sg5
F20.292
sg6
F45.331
sg7
F1.779
sg8
S'CB'
p803
sg10
F32.713
sa(dp804
g2
S'VAL'
p805
sg4
I24612
sg5
F13.53
sg6
F32.27
sg7
F1.364
sg8
S'CG1'
p806
sg10
F21.504
sa(dp807
g2
S'VAL'
p808
sg4
I23700
sg5
F13.257
sg6
F30.463
sg7
F1.55
sg8
S'CG2'
p809
sg10
F21.289
sa(dp810
g2
S'VAL'
p811
sg4
I42494
sg5
F3.98
sg6
F12.585
sg7
F0.663
sg8
g19
sg10
F8.279
sa(dp812
g2
S'VAL'
p813
sg4
I32038
sg5
F0.972
sg6
F6.298
sg7
F0.572
sg8
S'HA'
p814
sg10
F4.163
sa(dp815
g2
S'VAL'
p816
sg4
I29707
sg5
F-1.219
sg6
F3.319
sg7
F0.312
sg8
S'HB'
p817
sg10
F1.985
sa(dp818
g2
S'VAL'
p819
sg4
I29260
sg5
F-1.55
sg6
F2.573
sg7
F0.259
sg8
S'HG1'
p820
sg10
F0.827
sa(dp821
g2
g819
sg4
I29260
sg5
F-1.55
sg6
F2.573
sg7
F0.259
sg8
S'HG11'
p822
sg10
F0.827
sa(dp823
g2
g819
sg4
I29260
sg5
F-1.55
sg6
F2.573
sg7
F0.259
sg8
S'HG12'
p824
sg10
F0.827
sa(dp825
g2
g819
sg4
I29260
sg5
F-1.55
sg6
F2.573
sg7
F0.259
sg8
S'HG13'
p826
sg10
F0.827
sa(dp827
g2
S'VAL'
p828
sg4
I28643
sg5
F-2.32
sg6
F2.88
sg7
F0.279
sg8
S'HG2'
p829
sg10
F0.805
sa(dp830
g2
g828
sg4
I28643
sg5
F-2.32
sg6
F2.88
sg7
F0.279
sg8
S'HG21'
p831
sg10
F0.805
sa(dp832
g2
g828
sg4
I28643
sg5
F-2.32
sg6
F2.88
sg7
F0.279
sg8
S'HG22'
p833
sg10
F0.805
sa(dp834
g2
g828
sg4
I28643
sg5
F-2.32
sg6
F2.88
sg7
F0.279
sg8
S'HG23'
p835
sg10
F0.805
sa(dp836
g2
S'VAL'
p837
sg4
I39867
sg5
F97.22
sg6
F143.29
sg7
F4.47
sg8
g34
sg10
F121.081
sa.