(lp0
(dp1
S'comp_id'
p2
S'ALA'
p3
sS'count'
p4
I38367
sS'min'
p5
F0.037
sS'max'
p6
F187.2
sS'std'
p7
F3.627
sS'atom_id'
p8
S'C'
p9
sS'avg'
p10
F177.73
sa(dp11
g2
S'ALA'
p12
sg4
I52586
sg5
F17.007
sg6
F123.9
sg7
F2.087
sg8
S'CA'
p13
sg10
F53.163
sa(dp14
g2
S'ALA'
p15
sg4
I49713
sg5
F-40.993
sg6
F99.0
sg7
F2.412
sg8
S'CB'
p16
sg10
F19.06
sa(dp17
g2
S'ALA'
p18
sg4
I60330
sg5
F0.004
sg6
F69.229
sg7
F0.658
sg8
S'H'
p19
sS'h_desc'
p20
S'isolated'
p21
sg10
F8.193
sa(dp22
g2
S'ALA'
p23
sg4
I45753
sg5
F-2.52
sg6
F17.87
sg7
F0.448
sg8
S'HA'
p24
sg20
g21
sg10
F4.25
sa(dp25
g2
S'ALA'
p26
sg4
I43360
sg5
F-14.04
sg6
F5.48
sg7
F0.285
sg8
S'HB1'
p27
sg20
S'methyl'
p28
sg10
F1.352
sa(dp29
g2
g26
sg4
I43360
sg5
F-14.04
sg6
F5.48
sg7
F0.285
sg8
S'HB2'
p30
sg20
g28
sg10
F1.352
sa(dp31
g2
g26
sg4
I43360
sg5
F-14.04
sg6
F5.48
sg7
F0.285
sg8
S'HB3'
p32
sg20
g28
sg10
F1.352
sa(dp33
g2
S'ALA'
p34
sg4
I56493
sg5
F0.049
sg6
F766.0
sg7
F6.449
sg8
S'N'
p35
sg10
F123.318
sa(dp36
g2
S'ARG'
p37
sg4
I24360
sg5
F0.174
sg6
F184.96
sg7
F3.391
sg8
g9
sg10
F176.39
sa(dp38
g2
S'ARG'
p39
sg4
I34263
sg5
F8.369
sg6
F103.6
sg7
F2.442
sg8
S'CA'
p40
sg10
F56.77
sa(dp41
g2
S'ARG'
p42
sg4
I32008
sg5
F17.736
sg6
F123.5
sg7
F2.161
sg8
S'CB'
p43
sg10
F30.72
sa(dp44
g2
S'ARG'
p45
sg4
I21197
sg5
F18.935
sg6
F135.8
sg7
F1.54
sg8
S'CD'
p46
sg10
F43.169
sa(dp47
g2
S'ARG'
p48
sg4
I20933
sg5
F12.17
sg6
F119.4
sg7
F1.678
sg8
S'CG'
p49
sg10
F27.23
sa(dp50
g2
S'ARG'
p51
sg4
I566
sg5
F43.199
sg6
F181.474
sg7
F6.468
sg8
S'CZ'
p52
sg10
F160.246
sa(dp53
g2
S'ARG'
p54
sg4
I40130
sg5
F0.011
sg6
F12.73
sg7
F0.627
sg8
g19
sg20
g21
sg10
F8.24
sa(dp55
g2
S'ARG'
p56
sg4
I31190
sg5
F1.212
sg6
F12.57
sg7
F0.476
sg8
S'HA'
p57
sg20
g21
sg10
F4.293
sa(dp58
g2
S'ARG'
p59
sg4
I28470
sg5
F-4.78
sg6
F27.53
sg7
F0.323
sg8
S'HB2'
p60
sg20
S'geminal'
p61
sg10
F1.789
sa(dp62
g2
S'ARG'
p63
sg4
I26878
sg5
F-1.126
sg6
F27.53
sg7
F0.336
sg8
S'HB3'
p64
sg20
g61
sg10
F1.756
sa(dp65
g2
S'ARG'
p66
sg4
I25181
sg5
F-6.44
sg6
F4.692
sg7
F0.274
sg8
S'HD2'
p67
sg20
g61
sg10
F3.106
sa(dp68
g2
S'ARG'
p69
sg4
I22830
sg5
F-0.69
sg6
F4.788
sg7
F0.295
sg8
S'HD3'
p70
sg20
g61
sg10
F3.089
sa(dp71
g2
S'ARG'
p72
sg4
I8731
sg5
F1.15
sg6
F116.661
sg7
F3.158
sg8
S'HE'
p73
sg20
g21
sg10
F7.469
sa(dp74
g2
S'ARG'
p75
sg4
I25624
sg5
F-1.45
sg6
F4.2
sg7
F0.287
sg8
S'HG2'
p76
sg20
g61
sg10
F1.558
sa(dp77
g2
S'ARG'
p78
sg4
I23633
sg5
F-1.298
sg6
F5.47
sg7
F0.302
sg8
S'HG3'
p79
sg20
g61
sg10
F1.537
sa(dp80
g2
S'ARG'
p81
sg4
I821
sg5
F4.41
sg6
F10.675
sg7
F0.56
sg8
S'HH11'
p82
sg20
g61
sg10
F6.915
sa(dp83
g2
S'ARG'
p84
sg4
I625
sg5
F4.41
sg6
F10.727
sg7
F0.5
sg8
S'HH12'
p85
sg20
g61
sg10
F6.846
sa(dp86
g2
S'ARG'
p87
sg4
I701
sg5
F1.233
sg6
F11.352
sg7
F0.676
sg8
S'HH21'
p88
sg20
g61
sg10
F6.801
sa(dp89
g2
S'ARG'
p90
sg4
I579
sg5
F1.233
sg6
F60.141
sg7
F2.3
sg8
S'HH22'
p91
sg20
g61
sg10
F6.877
sa(dp92
g2
S'ARG'
p93
sg4
I36557
sg5
F0.125
sg6
F177.669
sg7
F4.197
sg8
g35
sg10
F120.758
sa(dp94
g2
S'ARG'
p95
sg4
I5550
sg5
F7.218
sg6
F149.108
sg7
F13.498
sg8
S'NE'
p96
sg10
F90.604
sa(dp97
g2
S'ARG'
p98
sg4
I214
sg5
F67.6
sg6
F124.789
sg7
F13.909
sg8
S'NH1'
p99
sg10
F79.911
sa(dp100
g2
S'ARG'
p101
sg4
I188
sg5
F66.2
sg6
F128.47
sg7
F15.263
sg8
S'NH2'
p102
sg10
F79.555
sa(dp103
g2
S'ASN'
p104
sg4
I20665
sg5
F0.114
sg6
F185.3
sg7
F3.259
sg8
g9
sg10
F175.235
sa(dp105
g2
S'ASN'
p106
sg4
I28933
sg5
F2.2
sg6
F99.0
sg7
F1.989
sg8
S'CA'
p107
sg10
F53.538
sa(dp108
g2
S'ASN'
p109
sg4
I27479
sg5
F1.962
sg6
F99.0
sg7
F2.026
sg8
S'CB'
p110
sg10
F38.702
sa(dp111
g2
S'ASN'
p112
sg4
I2125
sg5
F0.0
sg6
F183.8
sg7
F7.175
sg8
S'CG'
p113
sg10
F176.396
sa(dp114
g2
S'ASN'
p115
sg4
I33343
sg5
F0.008
sg6
F448.0
sg7
F2.572
sg8
g19
sg20
g21
sg10
F8.349
sa(dp116
g2
S'ASN'
p117
sg4
I26049
sg5
F1.752
sg6
F7.11
sg7
F0.367
sg8
S'HA'
p118
sg20
g21
sg10
F4.663
sa(dp119
g2
S'ASN'
p120
sg4
I24527
sg5
F-0.773
sg6
F8.883
sg7
F0.335
sg8
S'HB2'
p121
sg20
g61
sg10
F2.801
sa(dp122
g2
S'ASN'
p123
sg4
I23670
sg5
F-0.948
sg6
F5.137
sg7
F0.365
sg8
S'HB3'
p124
sg20
g61
sg10
F2.744
sa(dp125
g2
S'ASN'
p126
sg4
I18777
sg5
F1.093
sg6
F111.32
sg7
F0.916
sg8
S'HD21'
p127
sg20
g61
sg10
F7.341
sa(dp128
g2
S'ASN'
p129
sg4
I18559
sg5
F1.467
sg6
F111.32
sg7
F0.933
sg8
S'HD22'
p130
sg20
g61
sg10
F7.148
sa(dp131
g2
S'ASN'
p132
sg4
I30667
sg5
F0.041
sg6
F208.9
sg7
F4.415
sg8
g35
sg10
F118.896
sa(dp133
g2
S'ASN'
p134
sg4
I16081
sg5
F21.038
sg6
F1114.29
sg7
F11.509
sg8
S'ND2'
p135
sg10
F112.891
sa(dp136
g2
S'ASP'
p137
sg4
I30364
sg5
F0.106
sg6
F184.14
sg7
F3.83
sg8
g9
sg10
F176.355
sa(dp138
g2
S'ASP'
p139
sg4
I41897
sg5
F5.63
sg6
F118.9
sg7
F2.157
sg8
S'CA'
p140
sg10
F54.681
sa(dp141
g2
S'ASP'
p142
sg4
I39754
sg5
F9.7
sg6
F180.89
sg7
F2.032
sg8
S'CB'
p143
sg10
F40.891
sa(dp144
g2
S'ASP'
p145
sg4
I727
sg5
F2.637
sg6
F186.5
sg7
F16.577
sg8
S'CG'
p146
sg10
F177.607
sa(dp147
g2
S'ASP'
p148
sg4
I47956
sg5
F-0.35
sg6
F17.5
sg7
F0.6
sg8
g19
sg20
g21
sg10
F8.304
sa(dp149
g2
S'ASP'
p150
sg4
I36349
sg5
F-3.75
sg6
F8.66
sg7
F0.33
sg8
S'HA'
p151
sg20
g21
sg10
F4.589
sa(dp152
g2
S'ASP'
p153
sg4
I34073
sg5
F-5.2
sg6
F37.4
sg7
F0.561
sg8
S'HB2'
p154
sg20
g61
sg10
F2.721
sa(dp155
g2
S'ASP'
p156
sg4
I32689
sg5
F-1.46
sg6
F37.2
sg7
F0.568
sg8
S'HB3'
p157
sg20
g61
sg10
F2.67
sa(dp158
g2
S'ASP'
p159
sg4
I9
sg5
F1.16
sg6
F12.3
sg7
F3.631
sg8
S'HD2'
p160
sg20
g21
sg10
F5.308
sa(dp161
g2
S'ASP'
p162
sg4
I45266
sg5
F0.061
sg6
F223.7
sg7
F4.464
sg8
g35
sg10
F120.648
sa(dp163
g2
S'CYS'
p164
sg4
I8181
sg5
F1.0
sg6
F187.591
sg7
F3.529
sg8
g9
sg10
F174.843
sa(dp165
g2
S'CYS'
p166
sg4
I11954
sg5
F30.6688
sg6
F82.3
sg7
F3.403
sg8
S'CA'
p167
sg10
F58.107
sa(dp168
g2
S'CYS'
p169
sg4
I11347
sg5
F17.99
sg6
F73.92
sg7
F6.348
sg8
S'CB'
p170
sg10
F33.117
sa(dp171
g2
S'CYS'
p172
sg4
I17331
sg5
F3.723
sg6
F12.395
sg7
F0.7
sg8
g19
sg20
g21
sg10
F8.378
sa(dp173
g2
S'CYS'
p174
sg4
I15042
sg5
F-9.858
sg6
F43.5
sg7
F1.068
sg8
S'HA'
p175
sg20
g21
sg10
F4.685
sa(dp176
g2
S'CYS'
p177
sg4
I14553
sg5
F-39.82
sg6
F363.58
sg7
F7.196
sg8
S'HB2'
p178
sg20
g61
sg10
F3.188
sa(dp179
g2
S'CYS'
p180
sg4
I14186
sg5
F-44.2
sg6
F363.58
sg7
F6.522
sg8
S'HB3'
p181
sg20
g61
sg10
F3.104
sa(dp182
g2
S'CYS'
p183
sg4
I166
sg5
F0.1
sg6
F10.7
sg7
F1.47
sg8
S'HG'
p184
sg20
g21
sg10
F2.099
sa(dp185
g2
S'CYS'
p186
sg4
I13164
sg5
F-147.0
sg6
F628.0
sg7
F21.65
sg8
g35
sg10
F120.563
sa(dp187
g2
S'GLN'
p188
sg4
I21300
sg5
F0.069
sg6
F1755.998
sg7
F11.294
sg8
g9
sg10
F176.381
sa(dp189
g2
S'GLN'
p190
sg4
I29520
sg5
F4.1
sg6
F69.63
sg7
F2.184
sg8
S'CA'
p191
sg10
F56.593
sa(dp192
g2
S'GLN'
p193
sg4
I27695
sg5
F17.41
sg6
F79.68
sg7
F2.091
sg8
S'CB'
p194
sg10
F29.211
sa(dp195
g2
S'GLN'
p196
sg4
I2022
sg5
F6.789
sg6
F183.54
sg7
F7.944
sg8
S'CD'
p197
sg10
F179.252
sa(dp198
g2
S'GLN'
p199
sg4
I19117
sg5
F2.285
sg6
F178.318
sg7
F1.829
sg8
S'CG'
p200
sg10
F33.783
sa(dp201
g2
S'GLN'
p202
sg4
I33299
sg5
F0.006
sg6
F66.542
sg7
F0.684
sg8
g19
sg20
g21
sg10
F8.218
sa(dp203
g2
S'GLN'
p204
sg4
I25740
sg5
F1.567
sg6
F7.43
sg7
F0.439
sg8
S'HA'
p205
sg20
g21
sg10
F4.268
sa(dp206
g2
S'GLN'
p207
sg4
I23494
sg5
F-1.34
sg6
F5.18
sg7
F0.273
sg8
S'HB2'
p208
sg20
g61
sg10
F2.042
sa(dp209
g2
S'GLN'
p210
sg4
I22302
sg5
F-1.42
sg6
F20.9
sg7
F0.317
sg8
S'HB3'
p211
sg20
g61
sg10
F2.012
sa(dp212
g2
S'GLN'
p213
sg4
I16963
sg5
F-3.41
sg6
F23.893
sg7
F0.508
sg8
S'HE21'
p214
sg20
g61
sg10
F7.212
sa(dp215
g2
S'GLN'
p216
sg4
I16868
sg5
F2.1
sg6
F113.695
sg7
F0.96
sg8
S'HE22'
p217
sg20
g61
sg10
F7.04
sa(dp218
g2
S'GLN'
p219
sg4
I22128
sg5
F-1.76
sg6
F33.599
sg7
F0.351
sg8
S'HG2'
p220
sg20
g61
sg10
F2.312
sa(dp221
g2
S'GLN'
p222
sg4
I20418
sg5
F-1.395
sg6
F34.946
sg7
F0.38
sg8
S'HG3'
p223
sg20
g61
sg10
F2.29
sa(dp224
g2
S'GLN'
p225
sg4
I31370
sg5
F0.079
sg6
F216.5
sg7
F3.968
sg8
g35
sg10
F119.871
sa(dp226
g2
S'GLN'
p227
sg4
I15151
sg5
F33.9
sg6
F155.0
sg7
F2.146
sg8
S'NE2'
p228
sg10
F111.86
sa(dp229
g2
S'GLU'
p230
sg4
I40322
sg5
F0.074
sg6
F184.71
sg7
F3.992
sg8
g9
sg10
F176.817
sa(dp231
g2
S'GLU'
p232
sg4
I54861
sg5
F3.77
sg6
F87.152
sg7
F2.175
sg8
S'CA'
p233
sg10
F57.322
sa(dp234
g2
S'GLU'
p235
sg4
I51286
sg5
F9.08
sg6
F181.95
sg7
F2.138
sg8
S'CB'
p236
sg10
F30.027
sa(dp237
g2
S'GLU'
p238
sg4
I751
sg5
F0.0
sg6
F198.609
sg7
F11.754
sg8
S'CD'
p239
sg10
F181.333
sa(dp240
g2
S'GLU'
p241
sg4
I35173
sg5
F6.16
sg6
F181.2
sg7
F1.784
sg8
S'CG'
p242
sg10
F36.116
sa(dp243
g2
S'GLU'
p244
sg4
I62155
sg5
F0.008
sg6
F64.682
sg7
F0.687
sg8
g19
sg20
g21
sg10
F8.332
sa(dp245
g2
S'GLU'
p246
sg4
I47447
sg5
F0.433
sg6
F31.32
sg7
F0.437
sg8
S'HA'
p247
sg20
g21
sg10
F4.247
sa(dp248
g2
S'GLU'
p249
sg4
I43261
sg5
F-1.47
sg6
F4.82
sg7
F0.224
sg8
S'HB2'
p250
sg20
g61
sg10
F2.019
sa(dp251
g2
S'GLU'
p252
sg4
I40587
sg5
F-1.633
sg6
F4.08
sg7
F0.232
sg8
S'HB3'
p253
sg20
g61
sg10
F1.994
sa(dp254
g2
S'GLU'
p255
sg4
I5
sg5
F2.727
sg6
F11.96
sg7
F3.299
sg8
S'HE2'
p256
sg20
g21
sg10
F7.171
sa(dp257
g2
S'GLU'
p258
sg4
I40309
sg5
F-0.674
sg6
F4.69
sg7
F0.224
sg8
S'HG2'
p259
sg20
g61
sg10
F2.265
sa(dp260
g2
S'GLU'
p261
sg4
I37364
sg5
F-0.1
sg6
F4.69
sg7
F0.228
sg8
S'HG3'
p262
sg20
g61
sg10
F2.244
sa(dp263
g2
S'GLU'
p264
sg4
I59032
sg5
F0.044
sg6
F429.0
sg7
F4.382
sg8
g35
sg10
F120.672
sa(dp265
g2
S'GLY'
p266
sg4
I37674
sg5
F1.0
sg6
F189.533
sg7
F3.967
sg8
g9
sg10
F173.825
sa(dp267
g2
S'GLY'
p268
sg4
I52443
sg5
F2.2
sg6
F108.3
sg7
F1.624
sg8
S'CA'
p269
sg10
F45.377
sa(dp270
g2
S'GLY'
p271
sg4
I59854
sg5
F-15.3
sg6
F112.83
sg7
F0.929
sg8
g19
sg20
g21
sg10
F8.332
sa(dp272
g2
S'GLY'
p273
sg4
I45419
sg5
F-3.4
sg6
F8.64
sg7
F0.4
sg8
S'HA2'
p274
sg20
g61
sg10
F3.963
sa(dp275
g2
S'GLY'
p276
sg4
I43279
sg5
F-3.4
sg6
F7.69
sg7
F0.414
sg8
S'HA3'
p277
sg20
g61
sg10
F3.891
sa(dp278
g2
S'GLY'
p279
sg4
I55256
sg5
F0.2
sg6
F791.0
sg7
F7.858
sg8
g35
sg10
F109.762
sa(dp280
g2
S'HIS'
p281
sg4
I10830
sg5
F1.0
sg6
F184.204
sg7
F4.876
sg8
g9
sg10
F175.11
sa(dp282
g2
S'HIS'
p283
sg4
I15550
sg5
F11.4
sg6
F176.9
sg7
F2.8
sg8
S'CA'
p284
sg10
F56.521
sa(dp285
g2
S'HIS'
p286
sg4
I14662
sg5
F17.8
sg6
F80.78
sg7
F2.418
sg8
S'CB'
p287
sg10
F30.294
sa(dp288
g2
S'HIS'
p289
sg4
I5908
sg5
F7.19
sg6
F159.946
sg7
F5.929
sg8
S'CD2'
p290
sg10
F119.917
sa(dp291
g2
S'HIS'
p292
sg4
I4641
sg5
F8.27
sg6
F166.282
sg7
F5.448
sg8
S'CE1'
p293
sg10
F137.278
sa(dp294
g2
S'HIS'
p295
sg4
I169
sg5
F60.973
sg6
F139.83
sg7
F8.018
sg8
S'CG'
p296
sg10
F131.214
sa(dp297
g2
S'HIS'
p298
sg4
I17517
sg5
F-0.3
sg6
F13.34
sg7
F0.746
sg8
g19
sg20
g21
sg10
F8.261
sa(dp299
g2
S'HIS'
p300
sg4
I13920
sg5
F0.676
sg6
F30.68
sg7
F0.614
sg8
S'HA'
p301
sg20
g21
sg10
F4.62
sa(dp302
g2
S'HIS'
p303
sg4
I13026
sg5
F-0.049
sg6
F45.897
sg7
F1.199
sg8
S'HB2'
p304
sg20
g61
sg10
F3.175
sa(dp305
g2
S'HIS'
p306
sg4
I12659
sg5
F-6.2
sg6
F38.5
sg7
F1.141
sg8
S'HB3'
p307
sg20
g61
sg10
F3.107
sa(dp308
g2
S'HIS'
p309
sg4
I841
sg5
F-15.0
sg6
F86.5
sg7
F9.354
sg8
S'HD1'
p310
sg20
g21
sg10
F10.356
sa(dp311
g2
S'HIS'
p312
sg4
I9406
sg5
F-25.85
sg6
F67.8
sg7
F3.606
sg8
S'HD2'
p313
sg20
S'aroma'
p314
sg10
F7.201
sa(dp315
g2
S'HIS'
p316
sg4
I7460
sg5
F-26.6
sg6
F43.8
sg7
F2.35
sg8
S'HE1'
p317
sg20
g314
sg10
F7.809
sa(dp318
g2
S'HIS'
p319
sg4
I325
sg5
F-15.0
sg6
F76.4
sg7
F8.532
sg8
S'HE2'
p320
sg20
g21
sg10
F11.407
sa(dp321
g2
S'HIS'
p322
sg4
I16062
sg5
F0.2
sg6
F159.135
sg7
F4.8
sg8
g35
sg10
F119.637
sa(dp323
g2
S'HIS'
p324
sg4
I642
sg5
F64.9
sg6
F261.013
sg7
F33.59
sg8
S'ND1'
p325
sg10
F193.065
sa(dp326
g2
S'HIS'
p327
sg4
I601
sg5
F17.0
sg6
F257.572
sg7
F21.09
sg8
S'NE2'
p328
sg10
F180.661
sa(dp329
g2
S'ILE'
p330
sg4
I26908
sg5
F0.087
sg6
F187.551
sg7
F4.584
sg8
g9
sg10
F175.791
sa(dp331
g2
S'ILE'
p332
sg4
I37083
sg5
F30.9
sg6
F77.93
sg7
F2.747
sg8
S'CA'
p333
sg10
F61.61
sa(dp334
g2
S'ILE'
p335
sg4
I34833
sg5
F18.1
sg6
F87.68
sg7
F2.206
sg8
S'CB'
p336
sg10
F38.605
sa(dp337
g2
S'ILE'
p338
sg4
I25751
sg5
F2.7
sg6
F79.337
sg7
F2.418
sg8
S'CD1'
p339
sg10
F13.476
sa(dp340
g2
S'ILE'
p341
sg4
I23803
sg5
F8.0
sg6
F74.78
sg7
F2.033
sg8
S'CG1'
p342
sg10
F27.705
sa(dp343
g2
S'ILE'
p344
sg4
I25321
sg5
F0.79
sg6
F114.15
sg7
F1.981
sg8
S'CG2'
p345
sg10
F17.56
sa(dp346
g2
S'ILE'
p347
sg4
I41937
sg5
F0.008
sg6
F174.747
sg7
F1.073
sg8
g19
sg20
g21
sg10
F8.271
sa(dp348
g2
S'ILE'
p349
sg4
I32043
sg5
F-9.0
sg6
F173.538
sg7
F1.105
sg8
S'HA'
p350
sg20
g21
sg10
F4.178
sa(dp351
g2
S'ILE'
p352
sg4
I30277
sg5
F-2.442
sg6
F38.7
sg7
F0.426
sg8
S'HB'
p353
sg20
g21
sg10
F1.781
sa(dp354
g2
S'ILE'
p355
sg4
I27626
sg5
F-10.1
sg6
F5.56
sg7
F0.468
sg8
S'HG12'
p356
sg20
g61
sg10
F1.261
sa(dp357
g2
S'ILE'
p358
sg4
I26587
sg5
F-10.1
sg6
F9.71
sg7
F0.503
sg8
S'HG13'
p359
sg20
g61
sg10
F1.188
sa(dp360
g2
S'ILE'
p361
sg4
I29445
sg5
F-4.15
sg6
F13.891
sg7
F0.347
sg8
S'HD11'
p362
sg20
g28
sg10
F0.668
sa(dp363
g2
g361
sg4
I29445
sg5
F-4.15
sg6
F13.891
sg7
F0.347
sg8
S'HD12'
p364
sg20
g28
sg10
F0.668
sa(dp365
g2
g361
sg4
I29445
sg5
F-4.15
sg6
F13.891
sg7
F0.347
sg8
S'HD13'
p366
sg20
g28
sg10
F0.668
sa(dp367
g2
S'ILE'
p368
sg4
I28924
sg5
F-3.62
sg6
F6.23
sg7
F0.313
sg8
S'HG21'
p369
sg20
g28
sg10
F0.767
sa(dp370
g2
g368
sg4
I28924
sg5
F-3.62
sg6
F6.23
sg7
F0.313
sg8
S'HG22'
p371
sg20
g28
sg10
F0.767
sa(dp372
g2
g368
sg4
I28924
sg5
F-3.62
sg6
F6.23
sg7
F0.313
sg8
S'HG23'
p373
sg20
g28
sg10
F0.767
sa(dp374
g2
S'ILE'
p375
sg4
I39554
sg5
F0.0
sg6
F531.0
sg7
F6.201
sg8
g35
sg10
F121.435
sa(dp376
g2
S'LEU'
p377
sg4
I44207
sg5
F0.071
sg6
F189.78
sg7
F3.65
sg8
g9
sg10
F176.977
sa(dp378
g2
S'LEU'
p379
sg4
I60917
sg5
F14.371
sg6
F158.32
sg7
F2.255
sg8
S'CA'
p380
sg10
F55.646
sa(dp381
g2
S'LEU'
p382
sg4
I57258
sg5
F16.38
sg6
F93.18
sg7
F2.039
sg8
S'CB'
p383
sg10
F42.289
sa(dp384
g2
S'LEU'
p385
sg4
I40990
sg5
F0.683
sg6
F120.7
sg7
F2.028
sg8
S'CD1'
p386
sg10
F24.704
sa(dp387
g2
S'LEU'
p388
sg4
I39113
sg5
F0.28
sg6
F116.3
sg7
F2.109
sg8
S'CD2'
p389
sg10
F24.103
sa(dp390
g2
S'LEU'
p391
sg4
I36918
sg5
F15.3
sg6
F75.28
sg7
F1.521
sg8
S'CG'
p392
sg10
F26.809
sa(dp393
g2
S'LEU'
p394
sg4
I69195
sg5
F-0.3
sg6
F125.18
sg7
F0.795
sg8
g19
sg20
g21
sg10
F8.225
sa(dp395
g2
S'LEU'
p396
sg4
I52733
sg5
F0.507
sg6
F119.411
sg7
F0.691
sg8
S'HA'
p397
sg20
g21
sg10
F4.31
sa(dp398
g2
S'LEU'
p399
sg4
I48651
sg5
F-1.522
sg6
F8.02
sg7
F0.366
sg8
S'HB2'
p400
sg20
g61
sg10
F1.607
sa(dp401
g2
S'LEU'
p402
sg4
I46600
sg5
F-1.79
sg6
F8.39
sg7
F0.382
sg8
S'HB3'
p403
sg20
g61
sg10
F1.518
sa(dp404
g2
S'LEU'
p405
sg4
I43475
sg5
F-2.08
sg6
F5.7
sg7
F0.346
sg8
S'HG'
p406
sg20
g21
sg10
F1.503
sa(dp407
g2
S'LEU'
p408
sg4
I48387
sg5
F-3.42
sg6
F30.176
sg7
F0.345
sg8
S'HD11'
p409
sg20
g28
sg10
F0.747
sa(dp410
g2
g408
sg4
I48387
sg5
F-3.42
sg6
F30.176
sg7
F0.345
sg8
S'HD12'
p411
sg20
g28
sg10
F0.747
sa(dp412
g2
g408
sg4
I48387
sg5
F-3.42
sg6
F30.176
sg7
F0.345
sg8
S'HD13'
p413
sg20
g28
sg10
F0.747
sa(dp414
g2
S'LEU'
p415
sg4
I46555
sg5
F-3.42
sg6
F24.504
sg7
F0.374
sg8
S'HD21'
p416
sg20
g28
sg10
F0.725
sa(dp417
g2
g415
sg4
I46555
sg5
F-3.42
sg6
F24.504
sg7
F0.374
sg8
S'HD22'
p418
sg20
g28
sg10
F0.725
sa(dp419
g2
g415
sg4
I46555
sg5
F-3.42
sg6
F24.504
sg7
F0.374
sg8
S'HD23'
p420
sg20
g28
sg10
F0.725
sa(dp421
g2
S'LEU'
p422
sg4
I64938
sg5
F0.044
sg6
F627.0
sg7
F8.978
sg8
g35
sg10
F122.003
sa(dp423
g2
S'LYS'
p424
sg4
I36173
sg5
F0.112
sg6
F996.253
sg7
F6.358
sg8
g9
sg10
F176.591
sa(dp425
g2
S'LYS'
p426
sg4
I50111
sg5
F22.02
sg6
F86.716
sg7
F2.272
sg8
S'CA'
p427
sg10
F56.935
sa(dp428
g2
S'LYS'
p429
sg4
I46864
sg5
F-26.686
sg6
F229.2
sg7
F2.227
sg8
S'CB'
p430
sg10
F32.81
sa(dp431
g2
S'LYS'
p432
sg4
I29403
sg5
F15.366
sg6
F77.48
sg7
F1.507
sg8
S'CD'
p433
sg10
F28.969
sa(dp434
g2
S'LYS'
p435
sg4
I28495
sg5
F12.027
sg6
F89.98
sg7
F1.451
sg8
S'CE'
p436
sg10
F41.896
sa(dp437
g2
S'LYS'
p438
sg4
I31094
sg5
F2.9
sg6
F77.38
sg7
F1.615
sg8
S'CG'
p439
sg10
F24.918
sa(dp440
g2
S'LYS'
p441
sg4
I58906
sg5
F0.002
sg6
F64.423
sg7
F0.664
sg8
g19
sg20
g21
sg10
F8.178
sa(dp442
g2
S'LYS'
p443
sg4
I45467
sg5
F0.265
sg6
F32.65
sg7
F0.466
sg8
S'HA'
p444
sg20
g21
sg10
F4.264
sa(dp445
g2
S'LYS'
p446
sg4
I41062
sg5
F-1.416
sg6
F35.97
sg7
F0.319
sg8
S'HB2'
p447
sg20
g61
sg10
F1.774
sa(dp448
g2
S'LYS'
p449
sg4
I38519
sg5
F-1.404
sg6
F35.97
sg7
F0.334
sg8
S'HB3'
p450
sg20
g61
sg10
F1.744
sa(dp451
g2
S'LYS'
p452
sg4
I33176
sg5
F-1.68
sg6
F119.62
sg7
F0.751
sg8
S'HD2'
p453
sg20
g61
sg10
F1.609
sa(dp454
g2
S'LYS'
p455
sg4
I29506
sg5
F-2.02
sg6
F41.68
sg7
F0.369
sg8
S'HD3'
p456
sg20
g61
sg10
F1.595
sa(dp457
g2
S'LYS'
p458
sg4
I32694
sg5
F-0.493
sg6
F8.371
sg7
F0.217
sg8
S'HE2'
p459
sg20
g61
sg10
F2.91
sa(dp460
g2
S'LYS'
p461
sg4
I28496
sg5
F-0.046
sg6
F6.83
sg7
F0.223
sg8
S'HE3'
p462
sg20
g61
sg10
F2.903
sa(dp463
g2
S'LYS'
p464
sg4
I37233
sg5
F-1.447
sg6
F29.88
sg7
F0.312
sg8
S'HG2'
p465
sg20
g61
sg10
F1.364
sa(dp466
g2
S'LYS'
p467
sg4
I34123
sg5
F-1.83
sg6
F29.88
sg7
F0.326
sg8
S'HG3'
p468
sg20
g61
sg10
F1.348
sa(dp469
g2
S'LYS'
p470
sg4
I54081
sg5
F0.041
sg6
F217.0
sg7
F4.225
sg8
g35
sg10
F121.023
sa(dp471
g2
S'LYS'
p472
sg4
I208
sg5
F1.95
sg6
F177.2
sg7
F30.664
sg8
S'NZ'
p473
sg10
F48.135
sa(dp474
g2
S'LYS'
p475
sg4
I1284
sg5
F-10.9
sg6
F10.506
sg7
F1.147
sg8
S'HZ1'
p476
sg20
g61
sg10
F7.313
sa(dp477
g2
g475
sg4
I1284
sg5
F-10.9
sg6
F10.506
sg7
F1.147
sg8
S'HZ2'
p478
sg20
g61
sg10
F7.313
sa(dp479
g2
S'MET'
p480
sg4
I10752
sg5
F2.2
sg6
F183.25
sg7
F3.854
sg8
g9
sg10
F176.138
sa(dp481
g2
S'MET'
p482
sg4
I15138
sg5
F4.37
sg6
F85.327
sg7
F2.338
sg8
S'CA'
p483
sg10
F56.129
sa(dp484
g2
S'MET'
p485
sg4
I14032
sg5
F0.2
sg6
F83.38
sg7
F2.508
sg8
S'CB'
p486
sg10
F32.988
sa(dp487
g2
S'MET'
p488
sg4
I7031
sg5
F8.9
sg6
F88.2
sg7
F2.736
sg8
S'CE'
p489
sg10
F17.206
sa(dp490
g2
S'MET'
p491
sg4
I9038
sg5
F2.3
sg6
F81.18
sg7
F1.706
sg8
S'CG'
p492
sg10
F32.046
sa(dp493
g2
S'MET'
p494
sg4
I16373
sg5
F-0.21
sg6
F19.9722
sg7
F0.625
sg8
g19
sg20
g21
sg10
F8.26
sa(dp495
g2
S'MET'
p496
sg4
I12988
sg5
F-0.93
sg6
F313.565
sg7
F2.756
sg8
S'HA'
p497
sg20
g21
sg10
F4.423
sa(dp498
g2
S'MET'
p499
sg4
I11698
sg5
F-27.312
sg6
F33.75
sg7
F0.632
sg8
S'HB2'
p500
sg20
g61
sg10
F2.021
sa(dp501
g2
S'MET'
p502
sg4
I11022
sg5
F-27.312
sg6
F12.94
sg7
F0.563
sg8
S'HB3'
p503
sg20
g61
sg10
F1.99
sa(dp504
g2
S'MET'
p505
sg4
I10823
sg5
F-33.86
sg6
F32.7
sg7
F1.633
sg8
S'HG2'
p506
sg20
g61
sg10
F2.368
sa(dp507
g2
S'MET'
p508
sg4
I10200
sg5
F-33.86
sg6
F31.7
sg7
F1.763
sg8
S'HG3'
p509
sg20
g61
sg10
F2.338
sa(dp510
g2
S'MET'
p511
sg4
I7978
sg5
F-24.86
sg6
F10.2
sg7
F1.786
sg8
S'HE1'
p512
sg20
g28
sg10
F1.733
sa(dp513
g2
g511
sg4
I7978
sg5
F-24.86
sg6
F10.2
sg7
F1.786
sg8
S'HE2'
p514
sg20
g28
sg10
F1.733
sa(dp515
g2
g511
sg4
I7978
sg5
F-24.86
sg6
F10.2
sg7
F1.786
sg8
S'HE3'
p516
sg20
g28
sg10
F1.733
sa(dp517
g2
S'MET'
p518
sg4
I15555
sg5
F0.2
sg6
F222.5
sg7
F4.873
sg8
g35
sg10
F120.064
sa(dp519
g2
S'PHE'
p520
sg4
I18932
sg5
F0.088
sg6
F184.929
sg7
F3.422
sg8
g9
sg10
F175.439
sa(dp521
g2
S'PHE'
p522
sg4
I26056
sg5
F4.917
sg6
F73.43
sg7
F2.653
sg8
S'CA'
p523
sg10
F58.109
sa(dp524
g2
S'PHE'
p525
sg4
I24594
sg5
F21.4
sg6
F137.0
sg7
F2.348
sg8
S'CB'
p526
sg10
F39.978
sa(dp527
g2
S'PHE'
p528
sg4
I10505
sg5
F7.16
sg6
F731.37
sg7
F7.418
sg8
S'CD1'
p529
sg10
F131.374
sa(dp530
g2
S'PHE'
p531
sg4
I7641
sg5
F7.16
sg6
F731.37
sg7
F8.32
sg8
S'CD2'
p532
sg10
F131.393
sa(dp533
g2
S'PHE'
p534
sg4
I9190
sg5
F0.0
sg6
F144.992
sg7
F4.353
sg8
S'CE1'
p535
sg10
F130.467
sa(dp536
g2
S'PHE'
p537
sg4
I6691
sg5
F7.472
sg6
F139.7
sg7
F3.899
sg8
S'CE2'
p538
sg10
F130.538
sa(dp539
g2
S'PHE'
p540
sg4
I286
sg5
F7.229
sg6
F152.844
sg7
F12.244
sg8
S'CG'
p541
sg10
F137.226
sa(dp542
g2
S'PHE'
p543
sg4
I7065
sg5
F7.351
sg6
F138.6
sg7
F3.754
sg8
S'CZ'
p544
sg10
F129.041
sa(dp545
g2
S'PHE'
p546
sg4
I30015
sg5
F-0.5
sg6
F175.066
sg7
F1.212
sg8
g19
sg20
g21
sg10
F8.349
sa(dp547
g2
S'PHE'
p548
sg4
I22810
sg5
F1.45
sg6
F59.7
sg7
F0.684
sg8
S'HA'
p549
sg20
g21
sg10
F4.621
sa(dp550
g2
S'PHE'
p551
sg4
I21407
sg5
F0.159
sg6
F7.979
sg7
F0.385
sg8
S'HB2'
p552
sg20
g61
sg10
F2.99
sa(dp553
g2
S'PHE'
p554
sg4
I20858
sg5
F-0.212
sg6
F12.72
sg7
F0.408
sg8
S'HB3'
p555
sg20
g61
sg10
F2.931
sa(dp556
g2
S'PHE'
p557
sg4
I18211
sg5
F0.603
sg6
F12.154
sg7
F0.417
sg8
S'HD1'
p558
sg20
S'aroma-opposite'
p559
sg10
F7.034
sa(dp560
g2
S'PHE'
p561
sg4
I15323
sg5
F0.603
sg6
F12.154
sg7
F0.435
sg8
S'HD2'
p562
sg20
g559
sg10
F7.031
sa(dp563
g2
S'PHE'
p564
sg4
I16002
sg5
F-2.838
sg6
F14.08
sg7
F0.48
sg8
S'HE1'
p565
sg20
g559
sg10
F7.054
sa(dp566
g2
S'PHE'
p567
sg4
I13675
sg5
F0.136
sg6
F12.9
sg7
F0.473
sg8
S'HE2'
p568
sg20
g559
sg10
F7.052
sa(dp569
g2
S'PHE'
p570
sg4
I11439
sg5
F-7.14
sg6
F43.623
sg7
F0.768
sg8
S'HZ'
p571
sg20
g314
sg10
F6.992
sa(dp572
g2
S'PHE'
p573
sg4
I28025
sg5
F0.067
sg6
F229.0
sg7
F4.868
sg8
g35
sg10
F120.382
sa(dp574
g2
S'PRO'
p575
sg4
I19825
sg5
F0.047
sg6
F183.517
sg7
F3.653
sg8
g9
sg10
F176.671
sa(dp576
g2
S'PRO'
p577
sg4
I28773
sg5
F4.186
sg6
F177.787
sg7
F2.908
sg8
S'CA'
p578
sg10
F63.353
sa(dp579
g2
S'PRO'
p580
sg4
I27061
sg5
F6.11
sg6
F81.08
sg7
F1.739
sg8
S'CB'
p581
sg10
F31.875
sa(dp582
g2
S'PRO'
p583
sg4
I19240
sg5
F4.987
sg6
F98.58
sg7
F1.888
sg8
S'CD'
p584
sg10
F50.31
sa(dp585
g2
S'PRO'
p586
sg4
I19115
sg5
F18.28
sg6
F76.28
sg7
F1.766
sg8
S'CG'
p587
sg10
F27.239
sa(dp588
g2
S'PRO'
p589
sg4
I2
sg5
F60.97
sg6
F63.11
sg7
F1.513
sg8
g19
sg20
g21
sg10
F62.04
sa(dp590
g2
S'PRO'
p591
sg4
I25927
sg5
F0.741
sg6
F135.8
sg7
F0.89
sg8
S'HA'
p592
sg20
g21
sg10
F4.389
sa(dp593
g2
S'PRO'
p594
sg4
I24211
sg5
F-1.501
sg6
F5.63
sg7
F0.374
sg8
S'HB2'
p595
sg20
g61
sg10
F2.068
sa(dp596
g2
S'PRO'
p597
sg4
I23405
sg5
F-3.48
sg6
F6.1
sg7
F0.387
sg8
S'HB3'
p598
sg20
g61
sg10
F1.994
sa(dp599
g2
S'PRO'
p600
sg4
I22618
sg5
F-6.56
sg6
F7.67
sg7
F0.463
sg8
S'HD2'
p601
sg20
g61
sg10
F3.632
sa(dp602
g2
S'PRO'
p603
sg4
I21790
sg5
F-6.56
sg6
F6.3
sg7
F0.485
sg8
S'HD3'
p604
sg20
g61
sg10
F3.595
sa(dp605
g2
S'PRO'
p606
sg4
I21989
sg5
F-2.35
sg6
F4.92
sg7
F0.346
sg8
S'HG2'
p607
sg20
g61
sg10
F1.917
sa(dp608
g2
S'PRO'
p609
sg4
I20352
sg5
F-1.52
sg6
F4.92
sg7
F0.36
sg8
S'HG3'
p610
sg20
g61
sg10
F1.891
sa(dp611
g2
S'PRO'
p612
sg4
I946
sg5
F31.27
sg6
F430.0
sg7
F35.824
sg8
g35
sg10
F135.994
sa(dp613
g2
S'SER'
p614
sg4
I32500
sg5
F0.0
sg6
F197.1
sg7
F3.204
sg8
g9
sg10
F174.601
sa(dp615
g2
S'SER'
p616
sg4
I45339
sg5
F24.402
sg6
F175.2
sg7
F2.219
sg8
S'CA'
p617
sg10
F58.716
sa(dp618
g2
S'SER'
p619
sg4
I42234
sg5
F-939.28
sg6
F171.73
sg7
F5.383
sg8
S'CB'
p620
sg10
F63.713
sa(dp621
g2
S'SER'
p622
sg4
I50449
sg5
F-15.3
sg6
F13.13
sg7
F0.615
sg8
g19
sg20
g21
sg10
F8.279
sa(dp623
g2
S'SER'
p624
sg4
I39760
sg5
F1.43
sg6
F58.739
sg7
F0.497
sg8
S'HA'
p625
sg20
g21
sg10
F4.483
sa(dp626
g2
S'SER'
p627
sg4
I36618
sg5
F0.61
sg6
F8.198
sg7
F0.279
sg8
S'HB2'
p628
sg20
g61
sg10
F3.868
sa(dp629
g2
S'SER'
p630
sg4
I33894
sg5
F0.61
sg6
F7.77
sg7
F0.296
sg8
S'HB3'
p631
sg20
g61
sg10
F3.841
sa(dp632
g2
S'SER'
p633
sg4
I678
sg5
F0.13
sg6
F11.36
sg7
F1.205
sg8
S'HG'
p634
sg20
g21
sg10
F5.518
sa(dp635
g2
S'SER'
p636
sg4
I46855
sg5
F0.0
sg6
F227.5
sg7
F3.939
sg8
g35
sg10
F116.287
sa(dp637
g2
S'THR'
p638
sg4
I27922
sg5
F11.847
sg6
F185.918
sg7
F4.246
sg8
g9
sg10
F174.464
sa(dp639
g2
S'THR'
p640
sg4
I38914
sg5
F34.443
sg6
F92.659
sg7
F2.658
sg8
S'CA'
p641
sg10
F62.245
sa(dp642
g2
S'THR'
p643
sg4
I36242
sg5
F-939.28
sg6
F629.206
sg7
F6.601
sg8
S'CB'
p644
sg10
F69.599
sa(dp645
g2
S'THR'
p646
sg4
I25736
sg5
F10.907
sg6
F175.6
sg7
F1.984
sg8
S'CG2'
p647
sg10
F21.591
sa(dp648
g2
S'THR'
p649
sg4
I44831
sg5
F0.02
sg6
F175.5
sg7
F1.139
sg8
g19
sg20
g21
sg10
F8.244
sa(dp650
g2
S'THR'
p651
sg4
I34443
sg5
F0.87
sg6
F54.9
sg7
F0.556
sg8
S'HA'
p652
sg20
g21
sg10
F4.458
sa(dp653
g2
S'THR'
p654
sg4
I31798
sg5
F0.087
sg6
F73.47
sg7
F0.837
sg8
S'HB'
p655
sg20
g21
sg10
F4.172
sa(dp656
g2
S'THR'
p657
sg4
I1227
sg5
F0.265
sg6
F11.01
sg7
F1.322
sg8
S'HG1'
p658
sg20
g21
sg10
F5.311
sa(dp659
g2
S'THR'
p660
sg4
I31493
sg5
F-12.1
sg6
F22.21
sg7
F0.331
sg8
S'HG21'
p661
sg20
g28
sg10
F1.139
sa(dp662
g2
g660
sg4
I31493
sg5
F-12.1
sg6
F22.21
sg7
F0.331
sg8
S'HG22'
p663
sg20
g28
sg10
F1.139
sa(dp664
g2
g660
sg4
I31493
sg5
F-12.1
sg6
F22.21
sg7
F0.331
sg8
S'HG23'
p665
sg20
g28
sg10
F1.139
sa(dp666
g2
S'THR'
p667
sg4
I41840
sg5
F0.0
sg6
F402.0
sg7
F6.833
sg8
g35
sg10
F115.489
sa(dp668
g2
S'TRP'
p669
sg4
I6074
sg5
F10.353
sg6
F184.3
sg7
F3.89
sg8
g9
sg10
F176.127
sa(dp670
g2
S'TRP'
p671
sg4
I8367
sg5
F28.7436
sg6
F177.913
sg7
F2.987
sg8
S'CA'
p672
sg10
F57.707
sa(dp673
g2
S'TRP'
p674
sg4
I7908
sg5
F1.6
sg6
F123.643
sg7
F2.941
sg8
S'CB'
p675
sg10
F30.1
sa(dp676
g2
S'TRP'
p677
sg4
I4114
sg5
F30.236
sg6
F158.329
sg7
F4.345
sg8
S'CD1'
p678
sg10
F126.283
sa(dp679
g2
S'TRP'
p680
sg4
I141
sg5
F120.2
sg6
F155.174
sg7
F2.94
sg8
S'CD2'
p681
sg10
F128.394
sa(dp682
g2
S'TRP'
p683
sg4
I178
sg5
F113.888
sg6
F177.71
sg7
F6.987
sg8
S'CE2'
p684
sg10
F138.222
sa(dp685
g2
S'TRP'
p686
sg4
I3486
sg5
F-10.872
sg6
F174.807
sg7
F5.224
sg8
S'CE3'
p687
sg10
F120.128
sa(dp688
g2
S'TRP'
p689
sg4
I205
sg5
F25.208
sg6
F116.526
sg7
F8.958
sg8
S'CG'
p690
sg10
F109.96
sa(dp691
g2
S'TRP'
p692
sg4
I3680
sg5
F-6.333
sg6
F160.818
sg7
F5.066
sg8
S'CH2'
p693
sg10
F123.516
sa(dp694
g2
S'TRP'
p695
sg4
I3943
sg5
F7.375
sg6
F144.03
sg7
F4.254
sg8
S'CZ2'
p696
sg10
F114.032
sa(dp697
g2
S'TRP'
p698
sg4
I3524
sg5
F-8.702
sg6
F161.54
sg7
F4.868
sg8
S'CZ3'
p699
sg10
F121.095
sa(dp700
g2
S'TRP'
p701
sg4
I10154
sg5
F5.16
sg6
F59.402
sg7
F0.93
sg8
g19
sg20
g21
sg10
F8.28
sa(dp702
g2
S'TRP'
p703
sg4
I7779
sg5
F2.243
sg6
F11.414
sg7
F0.54
sg8
S'HA'
p704
sg20
g21
sg10
F4.682
sa(dp705
g2
S'TRP'
p706
sg4
I7384
sg5
F0.42
sg6
F5.35
sg7
F0.355
sg8
S'HB2'
p707
sg20
g61
sg10
F3.174
sa(dp708
g2
S'TRP'
p709
sg4
I7181
sg5
F-0.3776
sg6
F4.44
sg7
F0.374
sg8
S'HB3'
p710
sg20
g61
sg10
F3.112
sa(dp711
g2
S'TRP'
p712
sg4
I6628
sg5
F2.4271
sg6
F10.75
sg7
F0.365
sg8
S'HD1'
p713
sg20
g314
sg10
F7.126
sa(dp714
g2
S'TRP'
p715
sg4
I7182
sg5
F-1.279
sg6
F18.0
sg7
F0.718
sg8
S'HE1'
p716
sg20
g21
sg10
F10.074
sa(dp717
g2
S'TRP'
p718
sg4
I5849
sg5
F1.85
sg6
F10.815
sg7
F0.536
sg8
S'HE3'
p719
sg20
g314
sg10
F7.284
sa(dp720
g2
S'TRP'
p721
sg4
I5797
sg5
F2.84
sg6
F10.9
sg7
F0.478
sg8
S'HH2'
p722
sg20
g314
sg10
F6.943
sa(dp723
g2
S'TRP'
p724
sg4
I6270
sg5
F2.63
sg6
F10.81
sg7
F0.43
sg8
S'HZ2'
p725
sg20
g314
sg10
F7.26
sa(dp726
g2
S'TRP'
p727
sg4
I5657
sg5
F0.76
sg6
F8.898
sg7
F0.497
sg8
S'HZ3'
p728
sg20
g314
sg10
F6.836
sa(dp729
g2
S'TRP'
p730
sg4
I9099
sg5
F25.8
sg6
F224.6
sg7
F4.846
sg8
g35
sg10
F121.664
sa(dp731
g2
S'TRP'
p732
sg4
I5795
sg5
F0.53
sg6
F249.5
sg7
F3.909
sg8
S'NE1'
p733
sg10
F129.214
sa(dp734
g2
S'TYR'
p735
sg4
I15592
sg5
F2.2
sg6
F184.78
sg7
F4.705
sg8
g9
sg10
F175.316
sa(dp736
g2
S'TYR'
p737
sg4
I21816
sg5
F2.2
sg6
F69.56
sg7
F2.613
sg8
S'CA'
p738
sg10
F58.127
sa(dp739
g2
S'TYR'
p740
sg4
I20343
sg5
F18.38
sg6
F175.51
sg7
F2.729
sg8
S'CB'
p741
sg10
F39.324
sa(dp742
g2
S'TYR'
p743
sg4
I9563
sg5
F19.589
sg6
F733.91
sg7
F16.948
sg8
S'CD1'
p744
sg10
F132.866
sa(dp745
g2
S'TYR'
p746
sg4
I6542
sg5
F19.589
sg6
F733.91
sg7
F20.211
sg8
S'CD2'
p747
sg10
F133.072
sa(dp748
g2
S'TYR'
p749
sg4
I9490
sg5
F40.435
sg6
F177.717
sg7
F3.795
sg8
S'CE1'
p750
sg10
F117.734
sa(dp751
g2
S'TYR'
p752
sg4
I6493
sg5
F34.1221
sg6
F154.1
sg7
F3.031
sg8
S'CE2'
p753
sg10
F117.779
sa(dp754
g2
S'TYR'
p755
sg4
I266
sg5
F7.113
sg6
F175.115
sg7
F12.173
sg8
S'CG'
p756
sg10
F128.403
sa(dp757
g2
S'TYR'
p758
sg4
I216
sg5
F6.839
sg6
F165.718
sg7
F16.034
sg8
S'CZ'
p759
sg10
F154.991
sa(dp760
g2
S'TYR'
p761
sg4
I25862
sg5
F0.02
sg6
F12.009
sg7
F0.739
sg8
g19
sg20
g21
sg10
F8.304
sa(dp762
g2
S'TYR'
p763
sg4
I19854
sg5
F0.442
sg6
F7.16
sg7
F0.569
sg8
S'HA'
p764
sg20
g21
sg10
F4.615
sa(dp765
g2
S'TYR'
p766
sg4
I18588
sg5
F-21.23
sg6
F23.28
sg7
F0.487
sg8
S'HB2'
p767
sg20
g61
sg10
F2.893
sa(dp768
g2
S'TYR'
p769
sg4
I18171
sg5
F-21.23
sg6
F23.28
sg7
F0.505
sg8
S'HB3'
p770
sg20
g61
sg10
F2.831
sa(dp771
g2
S'TYR'
p772
sg4
I16267
sg5
F0.19
sg6
F9.39
sg7
F0.387
sg8
S'HD1'
p773
sg20
g559
sg10
F6.913
sa(dp774
g2
S'TYR'
p775
sg4
I13742
sg5
F0.5522
sg6
F10.499
sg7
F0.394
sg8
S'HD2'
p776
sg20
g559
sg10
F6.911
sa(dp777
g2
S'TYR'
p778
sg4
I15485
sg5
F0.08
sg6
F11.8
sg7
F0.319
sg8
S'HE1'
p779
sg20
g559
sg10
F6.69
sa(dp780
g2
S'TYR'
p781
sg4
I13214
sg5
F0.43
sg6
F11.7
sg7
F0.33
sg8
S'HE2'
p782
sg20
g559
sg10
F6.689
sa(dp783
g2
S'TYR'
p784
sg4
I363
sg5
F-0.788
sg6
F31.0
sg7
F2.201
sg8
S'HH'
p785
sg20
g21
sg10
F9.162
sa(dp786
g2
S'TYR'
p787
sg4
I23572
sg5
F0.2
sg6
F818.0
sg7
F14.047
sg8
g35
sg10
F120.877
sa(dp788
g2
S'VAL'
p789
sg4
I35667
sg5
F1.0
sg6
F205.699
sg7
F3.242
sg8
g9
sg10
F175.638
sa(dp790
g2
S'VAL'
p791
sg4
I48856
sg5
F29.564
sg6
F91.707
sg7
F2.903
sg8
S'CA'
p792
sg10
F62.529
sa(dp793
g2
S'VAL'
p794
sg4
I45470
sg5
F17.099
sg6
F175.751
sg7
F2.103
sg8
S'CB'
p795
sg10
F32.746
sa(dp796
g2
S'VAL'
p797
sg4
I33534
sg5
F-7.4
sg6
F117.16
sg7
F1.897
sg8
S'CG1'
p798
sg10
F21.527
sa(dp799
g2
S'VAL'
p800
sg4
I32334
sg5
F-5.648
sg6
F121.47
sg7
F2.043
sg8
S'CG2'
p801
sg10
F21.324
sa(dp802
g2
S'VAL'
p803
sg4
I55381
sg5
F-0.41
sg6
F15.05
sg7
F0.687
sg8
g19
sg20
g21
sg10
F8.28
sa(dp804
g2
S'VAL'
p805
sg4
I42441
sg5
F-2.83
sg6
F54.971
sg7
F0.646
sg8
S'HA'
p806
sg20
g21
sg10
F4.172
sa(dp807
g2
S'VAL'
p808
sg4
I39770
sg5
F-27.48
sg6
F31.75
sg7
F0.474
sg8
S'HB'
p809
sg20
g21
sg10
F1.976
sa(dp810
g2
S'VAL'
p811
sg4
I39325
sg5
F-27.2
sg6
F24.2
sg7
F0.35
sg8
S'HG11'
p812
sg20
g28
sg10
F0.82
sa(dp813
g2
g811
sg4
I39325
sg5
F-27.2
sg6
F24.2
sg7
F0.35
sg8
S'HG12'
p814
sg20
g28
sg10
F0.82
sa(dp815
g2
g811
sg4
I39325
sg5
F-27.2
sg6
F24.2
sg7
F0.35
sg8
S'HG13'
p816
sg20
g28
sg10
F0.82
sa(dp817
g2
S'VAL'
p818
sg4
I38582
sg5
F-27.2
sg6
F56.56
sg7
F0.462
sg8
S'HG21'
p819
sg20
g28
sg10
F0.8
sa(dp820
g2
g818
sg4
I38582
sg5
F-27.2
sg6
F56.56
sg7
F0.462
sg8
S'HG22'
p821
sg20
g28
sg10
F0.8
sa(dp822
g2
g818
sg4
I38582
sg5
F-27.2
sg6
F56.56
sg7
F0.462
sg8
S'HG23'
p823
sg20
g28
sg10
F0.8
sa(dp824
g2
S'VAL'
p825
sg4
I52437
sg5
F0.2
sg6
F529.0
sg7
F8.171
sg8
g35
sg10
F121.205
sa.