(lp0
(dp1
S'comp_id'
p2
S'DA'
p3
sS'count'
p4
I110
sS'min'
p5
F81.5
sS'max'
p6
F91.903
sS'std'
p7
F1.242
sS'atom_id'
p8
S"C1'"
p9
sS'avg'
p10
F85.344
sa(dp11
g2
S'DA'
p12
sg4
I97
sg5
F151.0
sg6
F159.328
sg7
F1.307
sg8
S'C2'
p13
sg10
F154.916
sa(dp14
g2
S'DA'
p15
sg4
I98
sg5
F36.228
sg6
F42.934
sg7
F0.905
sg8
S"C2'"
p16
sg10
F40.601
sa(dp17
g2
S'DA'
p18
sg4
I93
sg5
F72.71
sg6
F83.26
sg7
F1.625
sg8
S"C3'"
p19
sg10
F78.617
sa(dp20
g2
S'DA'
p21
sg4
I2
sg5
F150.3
sg6
F150.6
sg7
F0.212
sg8
S'C4'
p22
sg10
F150.45
sa(dp23
g2
S'DA'
p24
sg4
I43
sg5
F84.943
sg6
F91.33
sg7
F1.102
sg8
S"C4'"
p25
sg10
F87.543
sa(dp26
g2
S'DA'
p27
sg4
I2
sg5
F119.8
sg6
F119.9
sg7
F0.071
sg8
S'C5'
p28
sg10
F119.85
sa(dp29
g2
S'DA'
p30
sg4
I38
sg5
F47.77
sg6
F70.96
sg7
F3.56
sg8
S"C5'"
p31
sg10
F67.505
sa(dp32
g2
S'DA'
p33
sg4
I2
sg5
F157.0
sg6
F157.4
sg7
F0.283
sg8
S'C6'
p34
sg10
F157.2
sa(dp35
g2
S'DA'
p36
sg4
I107
sg5
F138.0
sg6
F142.7
sg7
F0.932
sg8
S'C8'
p37
sg10
F141.407
sa(dp38
g2
S'DA'
p39
sg4
I916
sg5
F4.19
sg6
F8.5
sg7
F0.341
sg8
S"H1'"
p40
sS'h_desc'
p41
S'isolated'
p42
sg10
F6.028
sa(dp43
g2
S'DA'
p44
sg4
I770
sg5
F2.601
sg6
F8.64
sg7
F0.873
sg8
S'H2'
p45
sg41
S'aroma'
p46
sg10
F7.465
sa(dp47
g2
S'DA'
p48
sg4
I913
sg5
F1.445
sg6
F4.82
sg7
F0.362
sg8
S"H2'"
p49
sg41
S'geminal'
p50
sg10
F2.666
sa(dp51
g2
S'DA'
p52
sg4
I897
sg5
F0.575
sg6
F6.89
sg7
F0.377
sg8
S"H2''"
p53
sg41
g50
sg10
F2.806
sa(dp54
g2
S'DA'
p55
sg4
I878
sg5
F4.0
sg6
F6.04
sg7
F0.193
sg8
S"H3'"
p56
sg41
g42
sg10
F4.94
sa(dp57
g2
S'DA'
p58
sg4
I696
sg5
F2.076
sg6
F9.13
sg7
F0.364
sg8
S"H4'"
p59
sg41
g42
sg10
F4.342
sa(dp60
g2
S'DA'
p61
sg4
I403
sg5
F2.909
sg6
F5.95
sg7
F0.302
sg8
S"H5'"
p62
sg41
g50
sg10
F4.065
sa(dp63
g2
S'DA'
p64
sg4
I360
sg5
F2.956
sg6
F8.41
sg7
F0.471
sg8
S"H5''"
p65
sg41
g50
sg10
F4.079
sa(dp66
g2
S'DA'
p67
sg4
I125
sg5
F2.557
sg6
F13.4
sg7
F1.225
sg8
S'H61'
p68
sg41
g50
sg10
F6.81
sa(dp69
g2
S'DA'
p70
sg4
I124
sg5
F5.525
sg6
F12.9
sg7
F1.133
sg8
S'H62'
p71
sg41
g50
sg10
F6.972
sa(dp72
g2
S'DA'
p73
sg4
I921
sg5
F2.35
sg6
F9.1
sg7
F0.902
sg8
S'H8'
p74
sg41
g46
sg10
F7.984
sa(dp75
g2
S'DA'
p76
sg4
I3
sg5
F223.4
sg6
F227.0
sg7
F1.8
sg8
S'N1'
p77
sg10
F225.2
sa(dp78
g2
S'DA'
p79
sg4
I3
sg5
F214.5
sg6
F216.4
sg7
F1.069
sg8
S'N3'
p80
sg10
F215.733
sa(dp81
g2
S'DA'
p82
sg4
I9
sg5
F77.4
sg6
F81.7
sg7
F1.285
sg8
S'N6'
p83
sg10
F80.222
sa(dp84
g2
S'DA'
p85
sg4
I2
sg5
F233.5
sg6
F234.1
sg7
F0.424
sg8
S'N7'
p86
sg10
F233.8
sa(dp87
g2
S'DA'
p88
sg4
I1
sg5
F170.2
sg6
F170.2
sg7
Nsg8
S'N9'
p89
sg10
F170.2
sa(dp90
g2
S'DA'
p91
sg4
I198
sg5
F-45.291
sg6
F35.48
sg7
F6.275
sg8
S'P'
p92
sg10
F-3.119
sa(dp93
g2
S'DC'
p94
sg4
I116
sg5
F77.9
sg6
F88.53
sg7
F1.76
sg8
S"C1'"
p95
sg10
F86.995
sa(dp96
g2
S'DC'
p97
sg4
I2
sg5
F158.8
sg6
F159.2
sg7
F0.283
sg8
S'C2'
p98
sg10
F159.0
sa(dp99
g2
S'DC'
p100
sg4
I87
sg5
F30.62
sg6
F42.27
sg7
F1.543
sg8
S"C2'"
p101
sg10
F40.395
sa(dp102
g2
S'DC'
p103
sg4
I100
sg5
F66.41
sg6
F80.3
sg7
F2.758
sg8
S"C3'"
p104
sg10
F76.58
sa(dp105
g2
S'DC'
p106
sg4
I2
sg5
F167.8
sg6
F168.0
sg7
F0.141
sg8
S'C4'
p107
sg10
F167.9
sa(dp108
g2
S'DC'
p109
sg4
I34
sg5
F77.8
sg6
F88.39
sg7
F2.291
sg8
S"C4'"
p110
sg10
F85.73
sa(dp111
g2
S'DC'
p112
sg4
I107
sg5
F84.55
sg6
F99.9
sg7
F2.413
sg8
S'C5'
p113
sg10
F98.023
sa(dp114
g2
S'DC'
p115
sg4
I32
sg5
F59.3
sg6
F71.72
sg7
F2.676
sg8
S"C5'"
p116
sg10
F66.268
sa(dp117
g2
S'DC'
p118
sg4
I105
sg5
F133.73
sg6
F144.7
sg7
F1.784
sg8
S'C6'
p119
sg10
F142.652
sa(dp120
g2
S'DC'
p121
sg4
I1064
sg5
F2.165
sg6
F6.57
sg7
F0.745
sg8
S"H1'"
p122
sg41
g42
sg10
F5.695
sa(dp123
g2
S'DC'
p124
sg4
I1064
sg5
F-29.45
sg6
F6.934
sg7
F1.535
sg8
S"H2'"
p125
sg41
g50
sg10
F2.129
sa(dp126
g2
S'DC'
p127
sg4
I1033
sg5
F-20.82
sg6
F8.481
sg7
F1.179
sg8
S"H2''"
p128
sg41
g50
sg10
F2.394
sa(dp129
g2
S'DC'
p130
sg4
I996
sg5
F-7.37
sg6
F8.615
sg7
F0.706
sg8
S"H3'"
p131
sg41
g42
sg10
F4.716
sa(dp132
g2
S'DC'
p133
sg4
I791
sg5
F-38.59
sg6
F28.54
sg7
F2.588
sg8
S"H4'"
p134
sg41
g42
sg10
F4.186
sa(dp135
g2
S'DC'
p136
sg4
I501
sg5
F-0.26
sg6
F12.08
sg7
F1.195
sg8
S'H41'
p137
sg41
g50
sg10
F7.337
sa(dp138
g2
S'DC'
p139
sg4
I502
sg5
F-0.26
sg6
F10.48
sg7
F1.053
sg8
S'H42'
p140
sg41
g50
sg10
F7.397
sa(dp141
g2
S'DC'
p142
sg4
I1060
sg5
F-6.22
sg6
F8.253
sg7
F0.961
sg8
S'H5'
p143
sg41
g46
sg10
F5.361
sa(dp144
g2
S'DC'
p145
sg4
I442
sg5
F-18.35
sg6
F11.19
sg7
F1.838
sg8
S"H5'"
p146
sg41
g50
sg10
F4.182
sa(dp147
g2
S'DC'
p148
sg4
I353
sg5
F-41.21
sg6
F15.96
sg7
F3.633
sg8
S"H5''"
p149
sg41
g50
sg10
F3.99
sa(dp150
g2
S'DC'
p151
sg4
I1072
sg5
F-14.72
sg6
F8.305
sg7
F1.06
sg8
S'H6'
p152
sg41
g46
sg10
F7.329
sa(dp153
g2
S'DC'
p154
sg4
I1
sg5
F150.7
sg6
F150.7
sg7
Nsg8
S'N1'
p155
sg10
F150.7
sa(dp156
g2
S'DC'
p157
sg4
I1
sg5
F196.3
sg6
F196.3
sg7
Nsg8
S'N3'
p158
sg10
F196.3
sa(dp159
g2
S'DC'
p160
sg4
I16
sg5
F95.1
sg6
F100.405
sg7
F1.333
sg8
S'N4'
p161
sg10
F98.29
sa(dp162
g2
S'DC'
p163
sg4
I269
sg5
F-14.2
sg6
F52.721
sg7
F8.013
sg8
g92
sg10
F-1.942
sa(dp164
g2
S'DG'
p165
sg4
I130
sg5
F74.9
sg6
F91.82
sg7
F2.027
sg8
S"C1'"
p166
sg10
F85.338
sa(dp167
g2
S'DG'
p168
sg4
I2
sg5
F156.5
sg6
F156.7
sg7
F0.141
sg8
S'C2'
p169
sg10
F156.6
sa(dp170
g2
S'DG'
p171
sg4
I95
sg5
F33.12
sg6
F49.0
sg7
F1.953
sg8
S"C2'"
p172
sg10
F40.439
sa(dp173
g2
S'DG'
p174
sg4
I108
sg5
F67.72
sg6
F81.407
sg7
F2.252
sg8
S"C3'"
p175
sg10
F77.852
sa(dp176
g2
S'DG'
p177
sg4
I2
sg5
F153.1
sg6
F154.0
sg7
F0.636
sg8
S'C4'
p178
sg10
F153.55
sa(dp179
g2
S'DG'
p180
sg4
I46
sg5
F77.6
sg6
F90.64
sg7
F1.851
sg8
S"C4'"
p181
sg10
F87.33
sa(dp182
g2
S'DG'
p183
sg4
I2
sg5
F117.4
sg6
F117.6
sg7
F0.141
sg8
S'C5'
p184
sg10
F117.5
sa(dp185
g2
S'DG'
p186
sg4
I41
sg5
F58.5
sg6
F71.42
sg7
F2.289
sg8
S"C5'"
p187
sg10
F67.489
sa(dp188
g2
S'DG'
p189
sg4
I2
sg5
F161.0
sg6
F161.4
sg7
F0.283
sg8
S'C6'
p190
sg10
F161.2
sa(dp191
g2
S'DG'
p192
sg4
I120
sg5
F134.5
sg6
F142.928
sg7
F1.512
sg8
S'C8'
p193
sg10
F138.364
sa(dp194
g2
S'DG'
p195
sg4
I983
sg5
F-2.91
sg6
F13.76
sg7
F2.324
sg8
S'H1'
p196
sg41
g42
sg10
F11.572
sa(dp197
g2
S'DG'
p198
sg4
I1575
sg5
F2.525
sg6
F12.453
sg7
F0.48
sg8
S"H1'"
p199
sg41
g42
sg10
F5.883
sa(dp200
g2
S'DG'
p201
sg4
I1561
sg5
F0.63
sg6
F8.23
sg7
F0.44
sg8
S"H2'"
p202
sg41
g50
sg10
F2.671
sa(dp203
g2
S'DG'
p204
sg4
I1521
sg5
F1.16
sg6
F11.5
sg7
F0.453
sg8
S"H2''"
p205
sg41
g50
sg10
F2.715
sa(dp206
g2
S'DG'
p207
sg4
I198
sg5
F-26.86
sg6
F18.44
sg7
F3.554
sg8
S'H21'
p208
sg41
g50
sg10
F6.97
sa(dp209
g2
S'DG'
p210
sg4
I209
sg5
F-26.86
sg6
F18.44
sg7
F3.461
sg8
S'H22'
p211
sg41
g50
sg10
F5.942
sa(dp212
g2
S'DG'
p213
sg4
I1501
sg5
F0.0
sg6
F13.239
sg7
F0.749
sg8
S"H3'"
p214
sg41
g42
sg10
F4.968
sa(dp215
g2
S'DG'
p216
sg4
I1262
sg5
F0.0
sg6
F13.263
sg7
F1.078
sg8
S"H4'"
p217
sg41
g42
sg10
F4.471
sa(dp218
g2
S'DG'
p219
sg4
I736
sg5
F0.0
sg6
F7.82
sg7
F0.379
sg8
S"H5'"
p220
sg41
g50
sg10
F4.111
sa(dp221
g2
S'DG'
p222
sg4
I601
sg5
F0.0
sg6
F7.76
sg7
F0.378
sg8
S"H5''"
p223
sg41
g50
sg10
F4.09
sa(dp224
g2
S'DG'
p225
sg4
I1569
sg5
F6.07
sg6
F9.31
sg7
F0.251
sg8
S'H8'
p226
sg41
g46
sg10
F7.778
sa(dp227
g2
S'DG'
p228
sg4
I10
sg5
F146.7
sg6
F147.7
sg7
F0.286
sg8
S'N1'
p229
sg10
F147.08
sa(dp230
g2
S'DG'
p231
sg4
I5
sg5
F75.1
sg6
F76.1
sg7
F0.377
sg8
S'N2'
p232
sg10
F75.52
sa(dp233
g2
S'DG'
p234
sg4
I4
sg5
F236.9
sg6
F238.3
sg7
F0.685
sg8
S'N7'
p235
sg10
F237.275
sa(dp236
g2
S'DG'
p237
sg4
I1
sg5
F168.5
sg6
F168.5
sg7
Nsg8
S'N9'
p238
sg10
F168.5
sa(dp239
g2
S'DG'
p240
sg4
I346
sg5
F-20.919
sg6
F47.102
sg7
F7.626
sg8
g92
sg10
F-1.672
sa(dp241
g2
S'DT'
p242
sg4
I198
sg5
F80.6
sg6
F92.218
sg7
F1.266
sg8
S"C1'"
p243
sg10
F87.098
sa(dp244
g2
S'DT'
p245
sg4
I2
sg5
F152.9
sg6
F153.4
sg7
F0.354
sg8
S'C2'
p246
sg10
F153.15
sa(dp247
g2
S'DT'
p248
sg4
I173
sg5
F34.38
sg6
F42.958
sg7
F0.833
sg8
S"C2'"
p249
sg10
F40.117
sa(dp250
g2
S'DT'
p251
sg4
I183
sg5
F71.58
sg6
F80.1
sg7
F1.736
sg8
S"C3'"
p252
sg10
F77.441
sa(dp253
g2
S'DT'
p254
sg4
I2
sg5
F168.5
sg6
F169.1
sg7
F0.424
sg8
S'C4'
p255
sg10
F168.8
sa(dp256
g2
S'DT'
p257
sg4
I49
sg5
F78.8
sg6
F89.313
sg7
F1.657
sg8
S"C4'"
p258
sg10
F86.594
sa(dp259
g2
S'DT'
p260
sg4
I9
sg5
F14.3
sg6
F113.6
sg7
F43.636
sg8
S'C5'
p261
sg10
F36.433
sa(dp262
g2
S'DT'
p263
sg4
I45
sg5
F59.4
sg6
F68.4
sg7
F1.927
sg8
S"C5'"
p264
sg10
F66.414
sa(dp265
g2
S'DT'
p266
sg4
I205
sg5
F135.8
sg6
F143.6
sg7
F0.832
sg8
S'C6'
p267
sg10
F139.242
sa(dp268
g2
S'DT'
p269
sg4
I37
sg5
F13.52
sg6
F14.9
sg7
F0.388
sg8
S'C7'
p270
sg10
F14.325
sa(dp271
g2
S'DT'
p272
sg4
I1195
sg5
F1.654
sg6
F6.724
sg7
F0.568
sg8
S"H1'"
p273
sg41
g42
sg10
F5.857
sa(dp274
g2
S'DT'
p275
sg4
I1193
sg5
F0.504
sg6
F6.206
sg7
F0.494
sg8
S"H2'"
p276
sg41
g50
sg10
F2.161
sa(dp277
g2
S'DT'
p278
sg4
I1167
sg5
F0.78
sg6
F4.874
sg7
F0.378
sg8
S"H2''"
p279
sg41
g50
sg10
F2.397
sa(dp280
g2
S'DT'
p281
sg4
I477
sg5
F2.123
sg6
F14.53
sg7
F2.072
sg8
S'H3'
p282
sg41
g42
sg10
F12.846
sa(dp283
g2
S'DT'
p284
sg4
I1133
sg5
F3.79
sg6
F14.11
sg7
F0.503
sg8
S"H3'"
p285
sg41
g42
sg10
F4.797
sa(dp286
g2
S'DT'
p287
sg4
I841
sg5
F2.0
sg6
F14.15
sg7
F0.582
sg8
S"H4'"
p288
sg41
g42
sg10
F4.147
sa(dp289
g2
S'DT'
p290
sg4
I540
sg5
F2.541
sg6
F14.197
sg7
F1.643
sg8
S"H5'"
p291
sg41
g50
sg10
F4.239
sa(dp292
g2
S'DT'
p293
sg4
I474
sg5
F0.98
sg6
F7.19
sg7
F0.396
sg8
S"H5''"
p294
sg41
g50
sg10
F3.973
sa(dp295
g2
S'DT'
p296
sg4
I1199
sg5
F1.61
sg6
F8.33
sg7
F0.326
sg8
S'H6'
p297
sg41
g46
sg10
F7.338
sa(dp298
g2
S'DT'
p299
sg4
I1039
sg5
F0.18
sg6
F7.525
sg7
F0.428
sg8
S'H71'
p300
sg41
S'methyl'
p301
sg10
F1.587
sa(dp302
g2
g299
sg4
I1039
sg5
F0.18
sg6
F7.525
sg7
F0.428
sg8
S'H72'
p303
sg41
g301
sg10
F1.587
sa(dp304
g2
g299
sg4
I1039
sg5
F0.18
sg6
F7.525
sg7
F0.428
sg8
S'H73'
p305
sg41
g301
sg10
F1.587
sa(dp306
g2
S'DT'
p307
sg4
I1
sg5
F142.9
sg6
F142.9
sg7
Nsg8
S'N1'
p308
sg10
F142.9
sa(dp309
g2
S'DT'
p310
sg4
I22
sg5
F158.4
sg6
F160.5
sg7
F0.697
sg8
S'N3'
p311
sg10
F159.327
sa(dp312
g2
S'DT'
p313
sg4
I225
sg5
F-5.65
sg6
F47.785
sg7
F8.611
sg8
g92
sg10
F-1.181
sa.