(lp0
(dp1
S'comp_id'
p2
S'DA'
p3
sS'count'
p4
I110
sS'min'
p5
F81.5
sS'max'
p6
F91.903
sS'std'
p7
F1.242
sS'atom_id'
p8
S"C1'"
p9
sS'avg'
p10
F85.344
sa(dp11
g2
S'DA'
p12
sg4
I97
sg5
F151.0
sg6
F159.328
sg7
F1.307
sg8
S'C2'
p13
sg10
F154.916
sa(dp14
g2
S'DA'
p15
sg4
I98
sg5
F36.228
sg6
F42.934
sg7
F0.905
sg8
S"C2'"
p16
sg10
F40.601
sa(dp17
g2
S'DA'
p18
sg4
I93
sg5
F72.71
sg6
F83.26
sg7
F1.625
sg8
S"C3'"
p19
sg10
F78.617
sa(dp20
g2
S'DA'
p21
sg4
I2
sg5
F150.3
sg6
F150.6
sg7
F0.212
sg8
S'C4'
p22
sg10
F150.45
sa(dp23
g2
S'DA'
p24
sg4
I43
sg5
F84.943
sg6
F91.33
sg7
F1.102
sg8
S"C4'"
p25
sg10
F87.543
sa(dp26
g2
S'DA'
p27
sg4
I2
sg5
F119.8
sg6
F119.9
sg7
F0.071
sg8
S'C5'
p28
sg10
F119.85
sa(dp29
g2
S'DA'
p30
sg4
I38
sg5
F47.77
sg6
F70.96
sg7
F3.56
sg8
S"C5'"
p31
sg10
F67.505
sa(dp32
g2
S'DA'
p33
sg4
I2
sg5
F157.0
sg6
F157.4
sg7
F0.283
sg8
S'C6'
p34
sg10
F157.2
sa(dp35
g2
S'DA'
p36
sg4
I107
sg5
F138.0
sg6
F142.7
sg7
F0.932
sg8
S'C8'
p37
sg10
F141.407
sa(dp38
g2
S'DA'
p39
sg4
I916
sg5
F4.19
sg6
F8.5
sg7
F0.341
sg8
S"H1'"
p40
sS'h_desc'
p41
S'isolated'
p42
sg10
F6.028
sa(dp43
g2
S'DA'
p44
sg4
I770
sg5
F2.601
sg6
F8.64
sg7
F0.873
sg8
S'H2'
p45
sg41
g42
sg10
F7.465
sa(dp46
g2
S'DA'
p47
sg4
I913
sg5
F1.445
sg6
F4.82
sg7
F0.362
sg8
S"H2'"
p48
sg41
g42
sg10
F2.666
sa(dp49
g2
S'DA'
p50
sg4
I897
sg5
F0.575
sg6
F6.89
sg7
F0.377
sg8
S"H2''"
p51
sg41
g42
sg10
F2.806
sa(dp52
g2
S'DA'
p53
sg4
I878
sg5
F4.0
sg6
F6.04
sg7
F0.193
sg8
S"H3'"
p54
sg41
g42
sg10
F4.94
sa(dp55
g2
S'DA'
p56
sg4
I696
sg5
F2.076
sg6
F9.13
sg7
F0.364
sg8
S"H4'"
p57
sg41
g42
sg10
F4.342
sa(dp58
g2
S'DA'
p59
sg4
I403
sg5
F2.909
sg6
F5.95
sg7
F0.302
sg8
S"H5'"
p60
sg41
g42
sg10
F4.065
sa(dp61
g2
S'DA'
p62
sg4
I360
sg5
F2.956
sg6
F8.41
sg7
F0.471
sg8
S"H5''"
p63
sg41
g42
sg10
F4.079
sa(dp64
g2
S'DA'
p65
sg4
I125
sg5
F2.557
sg6
F13.4
sg7
F1.225
sg8
S'H61'
p66
sg41
S'genimal'
p67
sg10
F6.81
sa(dp68
g2
S'DA'
p69
sg4
I124
sg5
F5.525
sg6
F12.9
sg7
F1.133
sg8
S'H62'
p70
sg41
g67
sg10
F6.972
sa(dp71
g2
S'DA'
p72
sg4
I921
sg5
F2.35
sg6
F9.1
sg7
F0.902
sg8
S'H8'
p73
sg41
g42
sg10
F7.984
sa(dp74
g2
S'DA'
p75
sg4
I3
sg5
F223.4
sg6
F227.0
sg7
F1.8
sg8
S'N1'
p76
sg10
F225.2
sa(dp77
g2
S'DA'
p78
sg4
I3
sg5
F214.5
sg6
F216.4
sg7
F1.069
sg8
S'N3'
p79
sg10
F215.733
sa(dp80
g2
S'DA'
p81
sg4
I9
sg5
F77.4
sg6
F81.7
sg7
F1.285
sg8
S'N6'
p82
sg10
F80.222
sa(dp83
g2
S'DA'
p84
sg4
I2
sg5
F233.5
sg6
F234.1
sg7
F0.424
sg8
S'N7'
p85
sg10
F233.8
sa(dp86
g2
S'DA'
p87
sg4
I1
sg5
F170.2
sg6
F170.2
sg7
Nsg8
S'N9'
p88
sg10
F170.2
sa(dp89
g2
S'DA'
p90
sg4
I198
sg5
F-45.291
sg6
F35.48
sg7
F6.275
sg8
S'P'
p91
sg10
F-3.119
sa(dp92
g2
S'DC'
p93
sg4
I116
sg5
F77.9
sg6
F88.53
sg7
F1.76
sg8
S"C1'"
p94
sg10
F86.995
sa(dp95
g2
S'DC'
p96
sg4
I2
sg5
F158.8
sg6
F159.2
sg7
F0.283
sg8
S'C2'
p97
sg10
F159.0
sa(dp98
g2
S'DC'
p99
sg4
I87
sg5
F30.62
sg6
F42.27
sg7
F1.543
sg8
S"C2'"
p100
sg10
F40.395
sa(dp101
g2
S'DC'
p102
sg4
I100
sg5
F66.41
sg6
F80.3
sg7
F2.758
sg8
S"C3'"
p103
sg10
F76.58
sa(dp104
g2
S'DC'
p105
sg4
I2
sg5
F167.8
sg6
F168.0
sg7
F0.141
sg8
S'C4'
p106
sg10
F167.9
sa(dp107
g2
S'DC'
p108
sg4
I34
sg5
F77.8
sg6
F88.39
sg7
F2.291
sg8
S"C4'"
p109
sg10
F85.73
sa(dp110
g2
S'DC'
p111
sg4
I107
sg5
F84.55
sg6
F99.9
sg7
F2.413
sg8
S'C5'
p112
sg10
F98.023
sa(dp113
g2
S'DC'
p114
sg4
I32
sg5
F59.3
sg6
F71.72
sg7
F2.676
sg8
S"C5'"
p115
sg10
F66.268
sa(dp116
g2
S'DC'
p117
sg4
I105
sg5
F133.73
sg6
F144.7
sg7
F1.784
sg8
S'C6'
p118
sg10
F142.652
sa(dp119
g2
S'DC'
p120
sg4
I1064
sg5
F2.165
sg6
F6.57
sg7
F0.745
sg8
S"H1'"
p121
sg41
g42
sg10
F5.695
sa(dp122
g2
S'DC'
p123
sg4
I1064
sg5
F-29.45
sg6
F6.934
sg7
F1.535
sg8
S"H2'"
p124
sg41
g42
sg10
F2.129
sa(dp125
g2
S'DC'
p126
sg4
I1033
sg5
F-20.82
sg6
F8.481
sg7
F1.179
sg8
S"H2''"
p127
sg41
g42
sg10
F2.394
sa(dp128
g2
S'DC'
p129
sg4
I996
sg5
F-7.37
sg6
F8.615
sg7
F0.706
sg8
S"H3'"
p130
sg41
g42
sg10
F4.716
sa(dp131
g2
S'DC'
p132
sg4
I791
sg5
F-38.59
sg6
F28.54
sg7
F2.588
sg8
S"H4'"
p133
sg41
g42
sg10
F4.186
sa(dp134
g2
S'DC'
p135
sg4
I501
sg5
F-0.26
sg6
F12.08
sg7
F1.195
sg8
S'H41'
p136
sg41
g67
sg10
F7.337
sa(dp137
g2
S'DC'
p138
sg4
I502
sg5
F-0.26
sg6
F10.48
sg7
F1.053
sg8
S'H42'
p139
sg41
g67
sg10
F7.397
sa(dp140
g2
S'DC'
p141
sg4
I1060
sg5
F-6.22
sg6
F8.253
sg7
F0.961
sg8
S'H5'
p142
sg41
g42
sg10
F5.361
sa(dp143
g2
S'DC'
p144
sg4
I442
sg5
F-18.35
sg6
F11.19
sg7
F1.838
sg8
S"H5'"
p145
sg41
g42
sg10
F4.182
sa(dp146
g2
S'DC'
p147
sg4
I353
sg5
F-41.21
sg6
F15.96
sg7
F3.633
sg8
S"H5''"
p148
sg41
g42
sg10
F3.99
sa(dp149
g2
S'DC'
p150
sg4
I1072
sg5
F-14.72
sg6
F8.305
sg7
F1.06
sg8
S'H6'
p151
sg41
g42
sg10
F7.329
sa(dp152
g2
S'DC'
p153
sg4
I1
sg5
F150.7
sg6
F150.7
sg7
Nsg8
S'N1'
p154
sg10
F150.7
sa(dp155
g2
S'DC'
p156
sg4
I1
sg5
F196.3
sg6
F196.3
sg7
Nsg8
S'N3'
p157
sg10
F196.3
sa(dp158
g2
S'DC'
p159
sg4
I16
sg5
F95.1
sg6
F100.405
sg7
F1.333
sg8
S'N4'
p160
sg10
F98.29
sa(dp161
g2
S'DC'
p162
sg4
I269
sg5
F-14.2
sg6
F52.721
sg7
F8.013
sg8
g91
sg10
F-1.942
sa(dp163
g2
S'DG'
p164
sg4
I130
sg5
F74.9
sg6
F91.82
sg7
F2.027
sg8
S"C1'"
p165
sg10
F85.338
sa(dp166
g2
S'DG'
p167
sg4
I2
sg5
F156.5
sg6
F156.7
sg7
F0.141
sg8
S'C2'
p168
sg10
F156.6
sa(dp169
g2
S'DG'
p170
sg4
I95
sg5
F33.12
sg6
F49.0
sg7
F1.953
sg8
S"C2'"
p171
sg10
F40.439
sa(dp172
g2
S'DG'
p173
sg4
I108
sg5
F67.72
sg6
F81.407
sg7
F2.252
sg8
S"C3'"
p174
sg10
F77.852
sa(dp175
g2
S'DG'
p176
sg4
I2
sg5
F153.1
sg6
F154.0
sg7
F0.636
sg8
S'C4'
p177
sg10
F153.55
sa(dp178
g2
S'DG'
p179
sg4
I46
sg5
F77.6
sg6
F90.64
sg7
F1.851
sg8
S"C4'"
p180
sg10
F87.33
sa(dp181
g2
S'DG'
p182
sg4
I2
sg5
F117.4
sg6
F117.6
sg7
F0.141
sg8
S'C5'
p183
sg10
F117.5
sa(dp184
g2
S'DG'
p185
sg4
I41
sg5
F58.5
sg6
F71.42
sg7
F2.289
sg8
S"C5'"
p186
sg10
F67.489
sa(dp187
g2
S'DG'
p188
sg4
I2
sg5
F161.0
sg6
F161.4
sg7
F0.283
sg8
S'C6'
p189
sg10
F161.2
sa(dp190
g2
S'DG'
p191
sg4
I120
sg5
F134.5
sg6
F142.928
sg7
F1.512
sg8
S'C8'
p192
sg10
F138.364
sa(dp193
g2
S'DG'
p194
sg4
I983
sg5
F-2.91
sg6
F13.76
sg7
F2.324
sg8
S'H1'
p195
sg41
g42
sg10
F11.572
sa(dp196
g2
S'DG'
p197
sg4
I1575
sg5
F2.525
sg6
F12.453
sg7
F0.48
sg8
S"H1'"
p198
sg41
g42
sg10
F5.883
sa(dp199
g2
S'DG'
p200
sg4
I1561
sg5
F0.63
sg6
F8.23
sg7
F0.44
sg8
S"H2'"
p201
sg41
g42
sg10
F2.671
sa(dp202
g2
S'DG'
p203
sg4
I1521
sg5
F1.16
sg6
F11.5
sg7
F0.453
sg8
S"H2''"
p204
sg41
g42
sg10
F2.715
sa(dp205
g2
S'DG'
p206
sg4
I198
sg5
F-26.86
sg6
F18.44
sg7
F3.554
sg8
S'H21'
p207
sg41
g67
sg10
F6.97
sa(dp208
g2
S'DG'
p209
sg4
I209
sg5
F-26.86
sg6
F18.44
sg7
F3.461
sg8
S'H22'
p210
sg41
g67
sg10
F5.942
sa(dp211
g2
S'DG'
p212
sg4
I1501
sg5
F0.0
sg6
F13.239
sg7
F0.749
sg8
S"H3'"
p213
sg41
g42
sg10
F4.968
sa(dp214
g2
S'DG'
p215
sg4
I1262
sg5
F0.0
sg6
F13.263
sg7
F1.078
sg8
S"H4'"
p216
sg41
g42
sg10
F4.471
sa(dp217
g2
S'DG'
p218
sg4
I736
sg5
F0.0
sg6
F7.82
sg7
F0.379
sg8
S"H5'"
p219
sg41
g42
sg10
F4.111
sa(dp220
g2
S'DG'
p221
sg4
I601
sg5
F0.0
sg6
F7.76
sg7
F0.378
sg8
S"H5''"
p222
sg41
g42
sg10
F4.09
sa(dp223
g2
S'DG'
p224
sg4
I1569
sg5
F6.07
sg6
F9.31
sg7
F0.251
sg8
S'H8'
p225
sg41
g42
sg10
F7.778
sa(dp226
g2
S'DG'
p227
sg4
I10
sg5
F146.7
sg6
F147.7
sg7
F0.286
sg8
S'N1'
p228
sg10
F147.08
sa(dp229
g2
S'DG'
p230
sg4
I5
sg5
F75.1
sg6
F76.1
sg7
F0.377
sg8
S'N2'
p231
sg10
F75.52
sa(dp232
g2
S'DG'
p233
sg4
I4
sg5
F236.9
sg6
F238.3
sg7
F0.685
sg8
S'N7'
p234
sg10
F237.275
sa(dp235
g2
S'DG'
p236
sg4
I1
sg5
F168.5
sg6
F168.5
sg7
Nsg8
S'N9'
p237
sg10
F168.5
sa(dp238
g2
S'DG'
p239
sg4
I346
sg5
F-20.919
sg6
F47.102
sg7
F7.626
sg8
g91
sg10
F-1.672
sa(dp240
g2
S'DT'
p241
sg4
I198
sg5
F80.6
sg6
F92.218
sg7
F1.266
sg8
S"C1'"
p242
sg10
F87.098
sa(dp243
g2
S'DT'
p244
sg4
I2
sg5
F152.9
sg6
F153.4
sg7
F0.354
sg8
S'C2'
p245
sg10
F153.15
sa(dp246
g2
S'DT'
p247
sg4
I173
sg5
F34.38
sg6
F42.958
sg7
F0.833
sg8
S"C2'"
p248
sg10
F40.117
sa(dp249
g2
S'DT'
p250
sg4
I183
sg5
F71.58
sg6
F80.1
sg7
F1.736
sg8
S"C3'"
p251
sg10
F77.441
sa(dp252
g2
S'DT'
p253
sg4
I2
sg5
F168.5
sg6
F169.1
sg7
F0.424
sg8
S'C4'
p254
sg10
F168.8
sa(dp255
g2
S'DT'
p256
sg4
I49
sg5
F78.8
sg6
F89.313
sg7
F1.657
sg8
S"C4'"
p257
sg10
F86.594
sa(dp258
g2
S'DT'
p259
sg4
I9
sg5
F14.3
sg6
F113.6
sg7
F43.636
sg8
S'C5'
p260
sg10
F36.433
sa(dp261
g2
S'DT'
p262
sg4
I45
sg5
F59.4
sg6
F68.4
sg7
F1.927
sg8
S"C5'"
p263
sg10
F66.414
sa(dp264
g2
S'DT'
p265
sg4
I205
sg5
F135.8
sg6
F143.6
sg7
F0.832
sg8
S'C6'
p266
sg10
F139.242
sa(dp267
g2
S'DT'
p268
sg4
I37
sg5
F13.52
sg6
F14.9
sg7
F0.388
sg8
S'C7'
p269
sg10
F14.325
sa(dp270
g2
S'DT'
p271
sg4
I1195
sg5
F1.654
sg6
F6.724
sg7
F0.568
sg8
S"H1'"
p272
sg41
g42
sg10
F5.857
sa(dp273
g2
S'DT'
p274
sg4
I1193
sg5
F0.504
sg6
F6.206
sg7
F0.494
sg8
S"H2'"
p275
sg41
g42
sg10
F2.161
sa(dp276
g2
S'DT'
p277
sg4
I1167
sg5
F0.78
sg6
F4.874
sg7
F0.378
sg8
S"H2''"
p278
sg41
g42
sg10
F2.397
sa(dp279
g2
S'DT'
p280
sg4
I477
sg5
F2.123
sg6
F14.53
sg7
F2.072
sg8
S'H3'
p281
sg41
g42
sg10
F12.846
sa(dp282
g2
S'DT'
p283
sg4
I1133
sg5
F3.79
sg6
F14.11
sg7
F0.503
sg8
S"H3'"
p284
sg41
g42
sg10
F4.797
sa(dp285
g2
S'DT'
p286
sg4
I841
sg5
F2.0
sg6
F14.15
sg7
F0.582
sg8
S"H4'"
p287
sg41
g42
sg10
F4.147
sa(dp288
g2
S'DT'
p289
sg4
I540
sg5
F2.541
sg6
F14.197
sg7
F1.643
sg8
S"H5'"
p290
sg41
g42
sg10
F4.239
sa(dp291
g2
S'DT'
p292
sg4
I474
sg5
F0.98
sg6
F7.19
sg7
F0.396
sg8
S"H5''"
p293
sg41
g42
sg10
F3.973
sa(dp294
g2
S'DT'
p295
sg4
I1199
sg5
F1.61
sg6
F8.33
sg7
F0.326
sg8
S'H6'
p296
sg41
g42
sg10
F7.338
sa(dp297
g2
S'DT'
p298
sg4
I1039
sg5
F0.18
sg6
F7.525
sg7
F0.428
sg8
S'H71'
p299
sg41
S'methyl'
p300
sg10
F1.587
sa(dp301
g2
g298
sg4
I1039
sg5
F0.18
sg6
F7.525
sg7
F0.428
sg8
S'H72'
p302
sg41
g300
sg10
F1.587
sa(dp303
g2
g298
sg4
I1039
sg5
F0.18
sg6
F7.525
sg7
F0.428
sg8
S'H73'
p304
sg41
g300
sg10
F1.587
sa(dp305
g2
S'DT'
p306
sg4
I1
sg5
F142.9
sg6
F142.9
sg7
Nsg8
S'N1'
p307
sg10
F142.9
sa(dp308
g2
S'DT'
p309
sg4
I22
sg5
F158.4
sg6
F160.5
sg7
F0.697
sg8
S'N3'
p310
sg10
F159.327
sa(dp311
g2
S'DT'
p312
sg4
I225
sg5
F-5.65
sg6
F47.785
sg7
F8.611
sg8
g91
sg10
F-1.181
sa.