(lp0
(dp1
S'comp_id'
p2
S'DA'
p3
sS'count'
p4
I94
sS'min'
p5
F82.9
sS'max'
p6
F91.903
sS'std'
p7
F0.975
sS'atom_id'
p8
S"C1'"
p9
sS'avg'
p10
F85.469
sa(dp11
g2
S'DA'
p12
sg4
I84
sg5
F153.1
sg6
F159.328
sg7
F1.126
sg8
S'C2'
p13
sg10
F155.12
sa(dp14
g2
S'DA'
p15
sg4
I90
sg5
F36.228
sg6
F42.934
sg7
F0.773
sg8
S"C2'"
p16
sg10
F40.451
sa(dp17
g2
S'DA'
p18
sg4
I78
sg5
F76.1
sg6
F80.2
sg7
F0.674
sg8
S"C3'"
p19
sg10
F78.84
sa(dp20
g2
S'DA'
p21
sg4
I2
sg5
F150.3
sg6
F150.6
sg7
F0.212
sg8
S'C4'
p22
sg10
F150.45
sa(dp23
g2
S'DA'
p24
sg4
I35
sg5
F84.943
sg6
F88.707
sg7
F0.669
sg8
S"C4'"
p25
sg10
F87.226
sa(dp26
g2
S'DA'
p27
sg4
I2
sg5
F119.8
sg6
F119.9
sg7
F0.071
sg8
S'C5'
p28
sg10
F119.85
sa(dp29
g2
S'DA'
p30
sg4
I30
sg5
F47.77
sg6
F69.708
sg7
F3.864
sg8
S"C5'"
p31
sg10
F67.102
sa(dp32
g2
S'DA'
p33
sg4
I2
sg5
F157.0
sg6
F157.4
sg7
F0.283
sg8
S'C6'
p34
sg10
F157.2
sa(dp35
g2
S'DA'
p36
sg4
I91
sg5
F139.0
sg6
F142.7
sg7
F0.667
sg8
S'C8'
p37
sg10
F141.564
sa(dp38
g2
S'DA'
p39
sg4
I658
sg5
F5.19
sg6
F6.69
sg7
F0.239
sg8
S"H1'"
p40
sg10
F6.066
sa(dp41
g2
S'DA'
p42
sg4
I550
sg5
F6.226
sg6
F8.53
sg7
F0.366
sg8
S'H2'
p43
sg10
F7.615
sa(dp44
g2
S'DA'
p45
sg4
I653
sg5
F1.603
sg6
F3.21
sg7
F0.203
sg8
S"H2'"
p46
sg10
F2.617
sa(dp47
g2
S'DA'
p48
sg4
I648
sg5
F0.575
sg6
F3.34
sg7
F0.223
sg8
S"H2''"
p49
sg10
F2.769
sa(dp50
g2
S'DA'
p51
sg4
I640
sg5
F4.02
sg6
F6.04
sg7
F0.149
sg8
S"H3'"
p52
sg10
F4.963
sa(dp53
g2
S'DA'
p54
sg4
I489
sg5
F2.076
sg6
F5.2
sg7
F0.23
sg8
S"H4'"
p55
sg10
F4.34
sa(dp56
g2
S'DA'
p57
sg4
I273
sg5
F2.909
sg6
F5.69
sg7
F0.244
sg8
S"H5'"
p58
sg10
F4.055
sa(dp59
g2
S'DA'
p60
sg4
I237
sg5
F3.086
sg6
F4.46
sg7
F0.196
sg8
S"H5''"
p61
sg10
F4.037
sa(dp62
g2
S'DA'
p63
sg4
I82
sg5
F5.62
sg6
F13.4
sg7
F1.218
sg8
S'H61'
p64
sg10
F7.064
sa(dp65
g2
S'DA'
p66
sg4
I82
sg5
F5.66
sg6
F12.9
sg7
F1.171
sg8
S'H62'
p67
sg10
F6.777
sa(dp68
g2
S'DA'
p69
sg4
I663
sg5
F6.95
sg6
F9.1
sg7
F0.224
sg8
S'H8'
p70
sg10
F8.134
sa(dp71
g2
S'DA'
p72
sg4
I3
sg5
F223.4
sg6
F227.0
sg7
F1.8
sg8
S'N1'
p73
sg10
F225.2
sa(dp74
g2
S'DA'
p75
sg4
I3
sg5
F214.5
sg6
F216.4
sg7
F1.069
sg8
S'N3'
p76
sg10
F215.733
sa(dp77
g2
S'DA'
p78
sg4
I9
sg5
F77.4
sg6
F81.7
sg7
F1.285
sg8
S'N6'
p79
sg10
F80.222
sa(dp80
g2
S'DA'
p81
sg4
I2
sg5
F233.5
sg6
F234.1
sg7
F0.424
sg8
S'N7'
p82
sg10
F233.8
sa(dp83
g2
S'DA'
p84
sg4
I1
sg5
F170.2
sg6
F170.2
sg7
Nsg8
S'N9'
p85
sg10
F170.2
sa(dp86
g2
S'DA'
p87
sg4
I172
sg5
F-45.291
sg6
F35.48
sg7
F6.678
sg8
S'P'
p88
sg10
F-3.048
sa(dp89
g2
S'DC'
p90
sg4
I95
sg5
F77.9
sg6
F88.5
sg7
F1.637
sg8
S"C1'"
p91
sg10
F87.232
sa(dp92
g2
S'DC'
p93
sg4
I2
sg5
F158.8
sg6
F159.2
sg7
F0.283
sg8
S'C2'
p94
sg10
F159.0
sa(dp95
g2
S'DC'
p96
sg4
I85
sg5
F30.62
sg6
F41.765
sg7
F1.533
sg8
S"C2'"
p97
sg10
F40.351
sa(dp98
g2
S'DC'
p99
sg4
I77
sg5
F70.48
sg6
F80.3
sg7
F1.849
sg8
S"C3'"
p100
sg10
F77.393
sa(dp101
g2
S'DC'
p102
sg4
I2
sg5
F167.8
sg6
F168.0
sg7
F0.141
sg8
S'C4'
p103
sg10
F167.9
sa(dp104
g2
S'DC'
p105
sg4
I30
sg5
F77.8
sg6
F88.39
sg7
F2.394
sg8
S"C4'"
p106
sg10
F85.822
sa(dp107
g2
S'DC'
p108
sg4
I91
sg5
F97.301
sg6
F99.9
sg7
F0.471
sg8
S'C5'
p109
sg10
F98.726
sa(dp110
g2
S'DC'
p111
sg4
I26
sg5
F59.3
sg6
F68.4
sg7
F2.371
sg8
S"C5'"
p112
sg10
F66.09
sa(dp113
g2
S'DC'
p114
sg4
I85
sg5
F139.8
sg6
F144.7
sg7
F0.87
sg8
S'C6'
p115
sg10
F143.188
sa(dp116
g2
S'DC'
p117
sg4
I798
sg5
F4.79
sg6
F6.57
sg7
F0.296
sg8
S"H1'"
p118
sg10
F5.861
sa(dp119
g2
S'DC'
p120
sg4
I792
sg5
F1.02
sg6
F2.82
sg7
F0.241
sg8
S"H2'"
p121
sg10
F2.067
sa(dp122
g2
S'DC'
p123
sg4
I775
sg5
F1.35
sg6
F3.468
sg7
F0.221
sg8
S"H2''"
p124
sg10
F2.348
sa(dp125
g2
S'DC'
p126
sg4
I742
sg5
F4.0
sg6
F5.78
sg7
F0.176
sg8
S"H3'"
p127
sg10
F4.743
sa(dp128
g2
S'DC'
p129
sg4
I566
sg5
F2.084
sg6
F4.83
sg7
F0.297
sg8
S"H4'"
p130
sg10
F4.125
sa(dp131
g2
S'DC'
p132
sg4
I367
sg5
F4.918
sg6
F12.08
sg7
F0.933
sg8
S'H41'
p133
sg10
F7.523
sa(dp134
g2
S'DC'
p135
sg4
I369
sg5
F5.71
sg6
F10.48
sg7
F0.938
sg8
S'H42'
p136
sg10
F7.5
sa(dp137
g2
S'DC'
p138
sg4
I797
sg5
F1.99
sg6
F8.253
sg7
F0.415
sg8
S'H5'
p139
sg10
F5.546
sa(dp140
g2
S'DC'
p141
sg4
I309
sg5
F2.57
sg6
F4.655
sg7
F0.253
sg8
S"H5'"
p142
sg10
F4.015
sa(dp143
g2
S'DC'
p144
sg4
I248
sg5
F2.83
sg6
F4.57
sg7
F0.252
sg8
S"H5''"
p145
sg10
F4.007
sa(dp146
g2
S'DC'
p147
sg4
I801
sg5
F6.28
sg6
F8.305
sg7
F0.243
sg8
S'H6'
p148
sg10
F7.463
sa(dp149
g2
S'DC'
p150
sg4
I1
sg5
F150.7
sg6
F150.7
sg7
Nsg8
S'N1'
p151
sg10
F150.7
sa(dp152
g2
S'DC'
p153
sg4
I1
sg5
F196.3
sg6
F196.3
sg7
Nsg8
S'N3'
p154
sg10
F196.3
sa(dp155
g2
S'DC'
p156
sg4
I16
sg5
F95.1
sg6
F100.405
sg7
F1.333
sg8
S'N4'
p157
sg10
F98.29
sa(dp158
g2
S'DC'
p159
sg4
I240
sg5
F-9.414
sg6
F52.721
sg7
F8.379
sg8
g88
sg10
F-1.755
sa(dp160
g2
S'DG'
p161
sg4
I105
sg5
F74.9
sg6
F91.068
sg7
F1.726
sg8
S"C1'"
p162
sg10
F85.408
sa(dp163
g2
S'DG'
p164
sg4
I2
sg5
F156.5
sg6
F156.7
sg7
F0.141
sg8
S'C2'
p165
sg10
F156.6
sa(dp166
g2
S'DG'
p167
sg4
I87
sg5
F33.12
sg6
F42.8
sg7
F1.292
sg8
S"C2'"
p168
sg10
F40.047
sa(dp169
g2
S'DG'
p170
sg4
I85
sg5
F67.72
sg6
F81.407
sg7
F2.012
sg8
S"C3'"
p171
sg10
F78.318
sa(dp172
g2
S'DG'
p173
sg4
I2
sg5
F153.1
sg6
F154.0
sg7
F0.636
sg8
S'C4'
p174
sg10
F153.55
sa(dp175
g2
S'DG'
p176
sg4
I38
sg5
F77.6
sg6
F89.4
sg7
F1.835
sg8
S"C4'"
p177
sg10
F87.286
sa(dp178
g2
S'DG'
p179
sg4
I2
sg5
F117.4
sg6
F117.6
sg7
F0.141
sg8
S'C5'
p180
sg10
F117.5
sa(dp181
g2
S'DG'
p182
sg4
I33
sg5
F58.5
sg6
F69.6
sg7
F2.287
sg8
S"C5'"
p183
sg10
F67.153
sa(dp184
g2
S'DG'
p185
sg4
I2
sg5
F161.0
sg6
F161.4
sg7
F0.283
sg8
S'C6'
p186
sg10
F161.2
sa(dp187
g2
S'DG'
p188
sg4
I96
sg5
F135.178
sg6
F142.928
sg7
F1.345
sg8
S'C8'
p189
sg10
F138.751
sa(dp190
g2
S'DG'
p191
sg4
I715
sg5
F5.8817
sg6
F13.76
sg7
F0.871
sg8
S'H1'
p192
sg10
F12.118
sa(dp193
g2
S'DG'
p194
sg4
I1171
sg5
F4.1
sg6
F6.628
sg7
F0.285
sg8
S"H1'"
p195
sg10
F5.905
sa(dp196
g2
S'DG'
p197
sg4
I1167
sg5
F0.63
sg6
F3.753
sg7
F0.258
sg8
S"H2'"
p198
sg10
F2.615
sa(dp199
g2
S'DG'
p200
sg4
I1142
sg5
F1.16
sg6
F3.85
sg7
F0.203
sg8
S"H2''"
p201
sg10
F2.67
sa(dp202
g2
S'DG'
p203
sg4
I115
sg5
F3.95
sg6
F10.904
sg7
F1.679
sg8
S'H21'
p204
sg10
F8.048
sa(dp205
g2
S'DG'
p206
sg4
I125
sg5
F3.95
sg6
F10.1
sg7
F1.106
sg8
S'H22'
p207
sg10
F7.119
sa(dp208
g2
S'DG'
p209
sg4
I1122
sg5
F4.244
sg6
F5.9
sg7
F0.149
sg8
S"H3'"
p210
sg10
F4.932
sa(dp211
g2
S'DG'
p212
sg4
I926
sg5
F2.82
sg6
F5.2
sg7
F0.182
sg8
S"H4'"
p213
sg10
F4.346
sa(dp214
g2
S'DG'
p215
sg4
I558
sg5
F2.832
sg6
F5.553
sg7
F0.235
sg8
S"H5'"
p216
sg10
F4.109
sa(dp217
g2
S'DG'
p218
sg4
I439
sg5
F2.863
sg6
F4.73
sg7
F0.218
sg8
S"H5''"
p219
sg10
F4.094
sa(dp220
g2
S'DG'
p221
sg4
I1173
sg5
F6.07
sg6
F8.44
sg7
F0.246
sg8
S'H8'
p222
sg10
F7.788
sa(dp223
g2
S'DG'
p224
sg4
I10
sg5
F146.7
sg6
F147.7
sg7
F0.286
sg8
S'N1'
p225
sg10
F147.08
sa(dp226
g2
S'DG'
p227
sg4
I5
sg5
F75.1
sg6
F76.1
sg7
F0.377
sg8
S'N2'
p228
sg10
F75.52
sa(dp229
g2
S'DG'
p230
sg4
I4
sg5
F236.9
sg6
F238.3
sg7
F0.685
sg8
S'N7'
p231
sg10
F237.275
sa(dp232
g2
S'DG'
p233
sg4
I1
sg5
F168.5
sg6
F168.5
sg7
Nsg8
S'N9'
p234
sg10
F168.5
sa(dp235
g2
S'DG'
p236
sg4
I304
sg5
F-20.919
sg6
F47.102
sg7
F8.109
sg8
g88
sg10
F-1.628
sa(dp237
g2
S'DT'
p238
sg4
I180
sg5
F80.6
sg6
F92.218
sg7
F1.139
sg8
S"C1'"
p239
sg10
F87.222
sa(dp240
g2
S'DT'
p241
sg4
I2
sg5
F152.9
sg6
F153.4
sg7
F0.354
sg8
S'C2'
p242
sg10
F153.15
sa(dp243
g2
S'DT'
p244
sg4
I165
sg5
F34.38
sg6
F42.958
sg7
F0.85
sg8
S"C2'"
p245
sg10
F40.104
sa(dp246
g2
S'DT'
p247
sg4
I168
sg5
F71.58
sg6
F80.1
sg7
F1.775
sg8
S"C3'"
p248
sg10
F77.478
sa(dp249
g2
S'DT'
p250
sg4
I2
sg5
F168.5
sg6
F169.1
sg7
F0.424
sg8
S'C4'
p251
sg10
F168.8
sa(dp252
g2
S'DT'
p253
sg4
I41
sg5
F78.8
sg6
F89.313
sg7
F1.713
sg8
S"C4'"
p254
sg10
F86.433
sa(dp255
g2
S'DT'
p256
sg4
I9
sg5
F14.3
sg6
F113.6
sg7
F43.636
sg8
S'C5'
p257
sg10
F36.433
sa(dp258
g2
S'DT'
p259
sg4
I37
sg5
F59.4
sg6
F68.4
sg7
F1.78
sg8
S"C5'"
p260
sg10
F66.615
sa(dp261
g2
S'DT'
p262
sg4
I187
sg5
F136.08
sg6
F143.6
sg7
F0.693
sg8
S'C6'
p263
sg10
F139.295
sa(dp264
g2
S'DT'
p265
sg4
I29
sg5
F13.68
sg6
F14.9
sg7
F0.296
sg8
S'C7'
p266
sg10
F14.415
sa(dp267
g2
S'DT'
p268
sg4
I887
sg5
F4.69
sg6
F6.724
sg7
F0.286
sg8
S"H1'"
p269
sg10
F5.941
sa(dp270
g2
S'DT'
p271
sg4
I884
sg5
F0.504
sg6
F2.793
sg7
F0.236
sg8
S"H2'"
p272
sg10
F2.112
sa(dp273
g2
S'DT'
p274
sg4
I865
sg5
F0.78
sg6
F4.874
sg7
F0.255
sg8
S"H2''"
p275
sg10
F2.366
sa(dp276
g2
S'DT'
p277
sg4
I368
sg5
F2.123
sg6
F14.46
sg7
F1.309
sg8
S'H3'
p278
sg10
F13.216
sa(dp279
g2
S'DT'
p280
sg4
I839
sg5
F4.06
sg6
F5.889
sg7
F0.174
sg8
S"H3'"
p281
sg10
F4.792
sa(dp282
g2
S'DT'
p283
sg4
I581
sg5
F2.242
sg6
F4.857
sg7
F0.29
sg8
S"H4'"
p284
sg10
F4.131
sa(dp285
g2
S'DT'
p286
sg4
I373
sg5
F2.541
sg6
F4.487
sg7
F0.318
sg8
S"H5'"
p287
sg10
F3.974
sa(dp288
g2
S'DT'
p289
sg4
I338
sg5
F0.98
sg6
F4.61
sg7
F0.357
sg8
S"H5''"
p290
sg10
F3.953
sa(dp291
g2
S'DT'
p292
sg4
I893
sg5
F6.04
sg6
F8.33
sg7
F0.254
sg8
S'H6'
p293
sg10
F7.347
sa(dp294
g2
S'DT'
p295
sg4
I739
sg5
F0.42
sg6
F2.726
sg7
F0.255
sg8
S'H71'
p296
sg10
F1.561
sa(dp297
g2
g295
sg4
I739
sg5
F0.42
sg6
F2.726
sg7
F0.255
sg8
S'H72'
p298
sg10
F1.561
sa(dp299
g2
g295
sg4
I739
sg5
F0.42
sg6
F2.726
sg7
F0.255
sg8
S'H73'
p300
sg10
F1.561
sa(dp301
g2
S'DT'
p302
sg4
I1
sg5
F142.9
sg6
F142.9
sg7
Nsg8
S'N1'
p303
sg10
F142.9
sa(dp304
g2
S'DT'
p305
sg4
I22
sg5
F158.4
sg6
F160.5
sg7
F0.697
sg8
S'N3'
p306
sg10
F159.327
sa(dp307
g2
S'DT'
p308
sg4
I195
sg5
F-5.65
sg6
F47.785
sg7
F9.213
sg8
g88
sg10
F-1.017
sa.