(lp0
(dp1
S'comp_id'
p2
S'DA'
p3
sS'count'
p4
I94
sS'min'
p5
F82.9
sS'max'
p6
F91.903
sS'std'
p7
F0.975
sS'atom_id'
p8
S"C1'"
p9
sS'avg'
p10
F85.469
sa(dp11
g2
S'DA'
p12
sg4
I84
sg5
F153.1
sg6
F159.328
sg7
F1.126
sg8
S'C2'
p13
sg10
F155.12
sa(dp14
g2
S'DA'
p15
sg4
I90
sg5
F36.228
sg6
F42.934
sg7
F0.773
sg8
S"C2'"
p16
sg10
F40.451
sa(dp17
g2
S'DA'
p18
sg4
I78
sg5
F76.1
sg6
F80.2
sg7
F0.674
sg8
S"C3'"
p19
sg10
F78.84
sa(dp20
g2
S'DA'
p21
sg4
I2
sg5
F150.3
sg6
F150.6
sg7
F0.212
sg8
S'C4'
p22
sg10
F150.45
sa(dp23
g2
S'DA'
p24
sg4
I35
sg5
F84.943
sg6
F88.707
sg7
F0.669
sg8
S"C4'"
p25
sg10
F87.226
sa(dp26
g2
S'DA'
p27
sg4
I2
sg5
F119.8
sg6
F119.9
sg7
F0.071
sg8
S'C5'
p28
sg10
F119.85
sa(dp29
g2
S'DA'
p30
sg4
I30
sg5
F47.77
sg6
F69.708
sg7
F3.864
sg8
S"C5'"
p31
sg10
F67.102
sa(dp32
g2
S'DA'
p33
sg4
I2
sg5
F157.0
sg6
F157.4
sg7
F0.283
sg8
S'C6'
p34
sg10
F157.2
sa(dp35
g2
S'DA'
p36
sg4
I91
sg5
F139.0
sg6
F142.7
sg7
F0.667
sg8
S'C8'
p37
sg10
F141.564
sa(dp38
g2
S'DA'
p39
sg4
I658
sg5
F5.19
sg6
F6.69
sg7
F0.239
sg8
S"H1'"
p40
sS'h_desc'
p41
S'isolated'
p42
sg10
F6.066
sa(dp43
g2
S'DA'
p44
sg4
I550
sg5
F6.226
sg6
F8.53
sg7
F0.366
sg8
S'H2'
p45
sg41
S'aroma'
p46
sg10
F7.615
sa(dp47
g2
S'DA'
p48
sg4
I653
sg5
F1.603
sg6
F3.21
sg7
F0.203
sg8
S"H2'"
p49
sg41
S'geminal'
p50
sg10
F2.617
sa(dp51
g2
S'DA'
p52
sg4
I648
sg5
F0.575
sg6
F3.34
sg7
F0.223
sg8
S"H2''"
p53
sg41
g50
sg10
F2.769
sa(dp54
g2
S'DA'
p55
sg4
I640
sg5
F4.02
sg6
F6.04
sg7
F0.149
sg8
S"H3'"
p56
sg41
g42
sg10
F4.963
sa(dp57
g2
S'DA'
p58
sg4
I489
sg5
F2.076
sg6
F5.2
sg7
F0.23
sg8
S"H4'"
p59
sg41
g42
sg10
F4.34
sa(dp60
g2
S'DA'
p61
sg4
I273
sg5
F2.909
sg6
F5.69
sg7
F0.244
sg8
S"H5'"
p62
sg41
g50
sg10
F4.055
sa(dp63
g2
S'DA'
p64
sg4
I237
sg5
F3.086
sg6
F4.46
sg7
F0.196
sg8
S"H5''"
p65
sg41
g50
sg10
F4.037
sa(dp66
g2
S'DA'
p67
sg4
I82
sg5
F5.62
sg6
F13.4
sg7
F1.218
sg8
S'H61'
p68
sg41
g50
sg10
F7.064
sa(dp69
g2
S'DA'
p70
sg4
I82
sg5
F5.66
sg6
F12.9
sg7
F1.171
sg8
S'H62'
p71
sg41
g50
sg10
F6.777
sa(dp72
g2
S'DA'
p73
sg4
I663
sg5
F6.95
sg6
F9.1
sg7
F0.224
sg8
S'H8'
p74
sg41
g46
sg10
F8.134
sa(dp75
g2
S'DA'
p76
sg4
I3
sg5
F223.4
sg6
F227.0
sg7
F1.8
sg8
S'N1'
p77
sg10
F225.2
sa(dp78
g2
S'DA'
p79
sg4
I3
sg5
F214.5
sg6
F216.4
sg7
F1.069
sg8
S'N3'
p80
sg10
F215.733
sa(dp81
g2
S'DA'
p82
sg4
I9
sg5
F77.4
sg6
F81.7
sg7
F1.285
sg8
S'N6'
p83
sg10
F80.222
sa(dp84
g2
S'DA'
p85
sg4
I2
sg5
F233.5
sg6
F234.1
sg7
F0.424
sg8
S'N7'
p86
sg10
F233.8
sa(dp87
g2
S'DA'
p88
sg4
I1
sg5
F170.2
sg6
F170.2
sg7
Nsg8
S'N9'
p89
sg10
F170.2
sa(dp90
g2
S'DA'
p91
sg4
I172
sg5
F-45.291
sg6
F35.48
sg7
F6.678
sg8
S'P'
p92
sg10
F-3.048
sa(dp93
g2
S'DC'
p94
sg4
I95
sg5
F77.9
sg6
F88.5
sg7
F1.637
sg8
S"C1'"
p95
sg10
F87.232
sa(dp96
g2
S'DC'
p97
sg4
I2
sg5
F158.8
sg6
F159.2
sg7
F0.283
sg8
S'C2'
p98
sg10
F159.0
sa(dp99
g2
S'DC'
p100
sg4
I85
sg5
F30.62
sg6
F41.765
sg7
F1.533
sg8
S"C2'"
p101
sg10
F40.351
sa(dp102
g2
S'DC'
p103
sg4
I77
sg5
F70.48
sg6
F80.3
sg7
F1.849
sg8
S"C3'"
p104
sg10
F77.393
sa(dp105
g2
S'DC'
p106
sg4
I2
sg5
F167.8
sg6
F168.0
sg7
F0.141
sg8
S'C4'
p107
sg10
F167.9
sa(dp108
g2
S'DC'
p109
sg4
I30
sg5
F77.8
sg6
F88.39
sg7
F2.394
sg8
S"C4'"
p110
sg10
F85.822
sa(dp111
g2
S'DC'
p112
sg4
I91
sg5
F97.301
sg6
F99.9
sg7
F0.471
sg8
S'C5'
p113
sg10
F98.726
sa(dp114
g2
S'DC'
p115
sg4
I26
sg5
F59.3
sg6
F68.4
sg7
F2.371
sg8
S"C5'"
p116
sg10
F66.09
sa(dp117
g2
S'DC'
p118
sg4
I85
sg5
F139.8
sg6
F144.7
sg7
F0.87
sg8
S'C6'
p119
sg10
F143.188
sa(dp120
g2
S'DC'
p121
sg4
I798
sg5
F4.79
sg6
F6.57
sg7
F0.296
sg8
S"H1'"
p122
sg41
g42
sg10
F5.861
sa(dp123
g2
S'DC'
p124
sg4
I792
sg5
F1.02
sg6
F2.82
sg7
F0.241
sg8
S"H2'"
p125
sg41
g50
sg10
F2.067
sa(dp126
g2
S'DC'
p127
sg4
I775
sg5
F1.35
sg6
F3.468
sg7
F0.221
sg8
S"H2''"
p128
sg41
g50
sg10
F2.348
sa(dp129
g2
S'DC'
p130
sg4
I742
sg5
F4.0
sg6
F5.78
sg7
F0.176
sg8
S"H3'"
p131
sg41
g42
sg10
F4.743
sa(dp132
g2
S'DC'
p133
sg4
I566
sg5
F2.084
sg6
F4.83
sg7
F0.297
sg8
S"H4'"
p134
sg41
g42
sg10
F4.125
sa(dp135
g2
S'DC'
p136
sg4
I367
sg5
F4.918
sg6
F12.08
sg7
F0.933
sg8
S'H41'
p137
sg41
g50
sg10
F7.523
sa(dp138
g2
S'DC'
p139
sg4
I369
sg5
F5.71
sg6
F10.48
sg7
F0.938
sg8
S'H42'
p140
sg41
g50
sg10
F7.5
sa(dp141
g2
S'DC'
p142
sg4
I797
sg5
F1.99
sg6
F8.253
sg7
F0.415
sg8
S'H5'
p143
sg41
g46
sg10
F5.546
sa(dp144
g2
S'DC'
p145
sg4
I309
sg5
F2.57
sg6
F4.655
sg7
F0.253
sg8
S"H5'"
p146
sg41
g50
sg10
F4.015
sa(dp147
g2
S'DC'
p148
sg4
I248
sg5
F2.83
sg6
F4.57
sg7
F0.252
sg8
S"H5''"
p149
sg41
g50
sg10
F4.007
sa(dp150
g2
S'DC'
p151
sg4
I801
sg5
F6.28
sg6
F8.305
sg7
F0.243
sg8
S'H6'
p152
sg41
g46
sg10
F7.463
sa(dp153
g2
S'DC'
p154
sg4
I1
sg5
F150.7
sg6
F150.7
sg7
Nsg8
S'N1'
p155
sg10
F150.7
sa(dp156
g2
S'DC'
p157
sg4
I1
sg5
F196.3
sg6
F196.3
sg7
Nsg8
S'N3'
p158
sg10
F196.3
sa(dp159
g2
S'DC'
p160
sg4
I16
sg5
F95.1
sg6
F100.405
sg7
F1.333
sg8
S'N4'
p161
sg10
F98.29
sa(dp162
g2
S'DC'
p163
sg4
I240
sg5
F-9.414
sg6
F52.721
sg7
F8.379
sg8
g92
sg10
F-1.755
sa(dp164
g2
S'DG'
p165
sg4
I105
sg5
F74.9
sg6
F91.068
sg7
F1.726
sg8
S"C1'"
p166
sg10
F85.408
sa(dp167
g2
S'DG'
p168
sg4
I2
sg5
F156.5
sg6
F156.7
sg7
F0.141
sg8
S'C2'
p169
sg10
F156.6
sa(dp170
g2
S'DG'
p171
sg4
I87
sg5
F33.12
sg6
F42.8
sg7
F1.292
sg8
S"C2'"
p172
sg10
F40.047
sa(dp173
g2
S'DG'
p174
sg4
I85
sg5
F67.72
sg6
F81.407
sg7
F2.012
sg8
S"C3'"
p175
sg10
F78.318
sa(dp176
g2
S'DG'
p177
sg4
I2
sg5
F153.1
sg6
F154.0
sg7
F0.636
sg8
S'C4'
p178
sg10
F153.55
sa(dp179
g2
S'DG'
p180
sg4
I38
sg5
F77.6
sg6
F89.4
sg7
F1.835
sg8
S"C4'"
p181
sg10
F87.286
sa(dp182
g2
S'DG'
p183
sg4
I2
sg5
F117.4
sg6
F117.6
sg7
F0.141
sg8
S'C5'
p184
sg10
F117.5
sa(dp185
g2
S'DG'
p186
sg4
I33
sg5
F58.5
sg6
F69.6
sg7
F2.287
sg8
S"C5'"
p187
sg10
F67.153
sa(dp188
g2
S'DG'
p189
sg4
I2
sg5
F161.0
sg6
F161.4
sg7
F0.283
sg8
S'C6'
p190
sg10
F161.2
sa(dp191
g2
S'DG'
p192
sg4
I96
sg5
F135.178
sg6
F142.928
sg7
F1.345
sg8
S'C8'
p193
sg10
F138.751
sa(dp194
g2
S'DG'
p195
sg4
I715
sg5
F5.8817
sg6
F13.76
sg7
F0.871
sg8
S'H1'
p196
sg41
g42
sg10
F12.118
sa(dp197
g2
S'DG'
p198
sg4
I1171
sg5
F4.1
sg6
F6.628
sg7
F0.285
sg8
S"H1'"
p199
sg41
g42
sg10
F5.905
sa(dp200
g2
S'DG'
p201
sg4
I1167
sg5
F0.63
sg6
F3.753
sg7
F0.258
sg8
S"H2'"
p202
sg41
g50
sg10
F2.615
sa(dp203
g2
S'DG'
p204
sg4
I1142
sg5
F1.16
sg6
F3.85
sg7
F0.203
sg8
S"H2''"
p205
sg41
g50
sg10
F2.67
sa(dp206
g2
S'DG'
p207
sg4
I115
sg5
F3.95
sg6
F10.904
sg7
F1.679
sg8
S'H21'
p208
sg41
g50
sg10
F8.048
sa(dp209
g2
S'DG'
p210
sg4
I125
sg5
F3.95
sg6
F10.1
sg7
F1.106
sg8
S'H22'
p211
sg41
g50
sg10
F7.119
sa(dp212
g2
S'DG'
p213
sg4
I1122
sg5
F4.244
sg6
F5.9
sg7
F0.149
sg8
S"H3'"
p214
sg41
g42
sg10
F4.932
sa(dp215
g2
S'DG'
p216
sg4
I926
sg5
F2.82
sg6
F5.2
sg7
F0.182
sg8
S"H4'"
p217
sg41
g42
sg10
F4.346
sa(dp218
g2
S'DG'
p219
sg4
I558
sg5
F2.832
sg6
F5.553
sg7
F0.235
sg8
S"H5'"
p220
sg41
g50
sg10
F4.109
sa(dp221
g2
S'DG'
p222
sg4
I439
sg5
F2.863
sg6
F4.73
sg7
F0.218
sg8
S"H5''"
p223
sg41
g50
sg10
F4.094
sa(dp224
g2
S'DG'
p225
sg4
I1173
sg5
F6.07
sg6
F8.44
sg7
F0.246
sg8
S'H8'
p226
sg41
g46
sg10
F7.788
sa(dp227
g2
S'DG'
p228
sg4
I10
sg5
F146.7
sg6
F147.7
sg7
F0.286
sg8
S'N1'
p229
sg10
F147.08
sa(dp230
g2
S'DG'
p231
sg4
I5
sg5
F75.1
sg6
F76.1
sg7
F0.377
sg8
S'N2'
p232
sg10
F75.52
sa(dp233
g2
S'DG'
p234
sg4
I4
sg5
F236.9
sg6
F238.3
sg7
F0.685
sg8
S'N7'
p235
sg10
F237.275
sa(dp236
g2
S'DG'
p237
sg4
I1
sg5
F168.5
sg6
F168.5
sg7
Nsg8
S'N9'
p238
sg10
F168.5
sa(dp239
g2
S'DG'
p240
sg4
I304
sg5
F-20.919
sg6
F47.102
sg7
F8.109
sg8
g92
sg10
F-1.628
sa(dp241
g2
S'DT'
p242
sg4
I180
sg5
F80.6
sg6
F92.218
sg7
F1.139
sg8
S"C1'"
p243
sg10
F87.222
sa(dp244
g2
S'DT'
p245
sg4
I2
sg5
F152.9
sg6
F153.4
sg7
F0.354
sg8
S'C2'
p246
sg10
F153.15
sa(dp247
g2
S'DT'
p248
sg4
I165
sg5
F34.38
sg6
F42.958
sg7
F0.85
sg8
S"C2'"
p249
sg10
F40.104
sa(dp250
g2
S'DT'
p251
sg4
I168
sg5
F71.58
sg6
F80.1
sg7
F1.775
sg8
S"C3'"
p252
sg10
F77.478
sa(dp253
g2
S'DT'
p254
sg4
I2
sg5
F168.5
sg6
F169.1
sg7
F0.424
sg8
S'C4'
p255
sg10
F168.8
sa(dp256
g2
S'DT'
p257
sg4
I41
sg5
F78.8
sg6
F89.313
sg7
F1.713
sg8
S"C4'"
p258
sg10
F86.433
sa(dp259
g2
S'DT'
p260
sg4
I9
sg5
F14.3
sg6
F113.6
sg7
F43.636
sg8
S'C5'
p261
sg10
F36.433
sa(dp262
g2
S'DT'
p263
sg4
I37
sg5
F59.4
sg6
F68.4
sg7
F1.78
sg8
S"C5'"
p264
sg10
F66.615
sa(dp265
g2
S'DT'
p266
sg4
I187
sg5
F136.08
sg6
F143.6
sg7
F0.693
sg8
S'C6'
p267
sg10
F139.295
sa(dp268
g2
S'DT'
p269
sg4
I29
sg5
F13.68
sg6
F14.9
sg7
F0.296
sg8
S'C7'
p270
sg10
F14.415
sa(dp271
g2
S'DT'
p272
sg4
I887
sg5
F4.69
sg6
F6.724
sg7
F0.286
sg8
S"H1'"
p273
sg41
g42
sg10
F5.941
sa(dp274
g2
S'DT'
p275
sg4
I884
sg5
F0.504
sg6
F2.793
sg7
F0.236
sg8
S"H2'"
p276
sg41
g50
sg10
F2.112
sa(dp277
g2
S'DT'
p278
sg4
I865
sg5
F0.78
sg6
F4.874
sg7
F0.255
sg8
S"H2''"
p279
sg41
g50
sg10
F2.366
sa(dp280
g2
S'DT'
p281
sg4
I368
sg5
F2.123
sg6
F14.46
sg7
F1.309
sg8
S'H3'
p282
sg41
g42
sg10
F13.216
sa(dp283
g2
S'DT'
p284
sg4
I839
sg5
F4.06
sg6
F5.889
sg7
F0.174
sg8
S"H3'"
p285
sg41
g42
sg10
F4.792
sa(dp286
g2
S'DT'
p287
sg4
I581
sg5
F2.242
sg6
F4.857
sg7
F0.29
sg8
S"H4'"
p288
sg41
g42
sg10
F4.131
sa(dp289
g2
S'DT'
p290
sg4
I373
sg5
F2.541
sg6
F4.487
sg7
F0.318
sg8
S"H5'"
p291
sg41
g50
sg10
F3.974
sa(dp292
g2
S'DT'
p293
sg4
I338
sg5
F0.98
sg6
F4.61
sg7
F0.357
sg8
S"H5''"
p294
sg41
g50
sg10
F3.953
sa(dp295
g2
S'DT'
p296
sg4
I893
sg5
F6.04
sg6
F8.33
sg7
F0.254
sg8
S'H6'
p297
sg41
g46
sg10
F7.347
sa(dp298
g2
S'DT'
p299
sg4
I739
sg5
F0.42
sg6
F2.726
sg7
F0.255
sg8
S'H71'
p300
sg41
S'methyl'
p301
sg10
F1.561
sa(dp302
g2
g299
sg4
I739
sg5
F0.42
sg6
F2.726
sg7
F0.255
sg8
S'H72'
p303
sg41
g301
sg10
F1.561
sa(dp304
g2
g299
sg4
I739
sg5
F0.42
sg6
F2.726
sg7
F0.255
sg8
S'H73'
p305
sg41
g301
sg10
F1.561
sa(dp306
g2
S'DT'
p307
sg4
I1
sg5
F142.9
sg6
F142.9
sg7
Nsg8
S'N1'
p308
sg10
F142.9
sa(dp309
g2
S'DT'
p310
sg4
I22
sg5
F158.4
sg6
F160.5
sg7
F0.697
sg8
S'N3'
p311
sg10
F159.327
sa(dp312
g2
S'DT'
p313
sg4
I195
sg5
F-5.65
sg6
F47.785
sg7
F9.213
sg8
g92
sg10
F-1.017
sa.