(lp0
(dp1
S'comp_id'
p2
S'DA'
p3
sS'count'
p4
I94
sS'major'
p5
I00
sS'min'
p6
F82.9
sS'max'
p7
F91.903
sS'std'
p8
F0.975
sS'atom_id'
p9
S"C1'"
p10
sS'avg'
p11
F85.469
sS'norm_freq'
p12
F0.142
sS'desc'
p13
S'isolated'
p14
sa(dp15
g2
S'DA'
p16
sg4
I84
sg5
I00
sg6
F153.1
sg7
F159.328
sg8
F1.126
sg9
S'C2'
p17
sg11
F155.12
sg12
F0.127
sg13
S'aroma'
p18
sa(dp19
g2
S'DA'
p20
sg4
I90
sg5
I00
sg6
F36.228
sg7
F42.934
sg8
F0.773
sg9
S"C2'"
p21
sg11
F40.451
sg12
F0.136
sg13
g14
sa(dp22
g2
S'DA'
p23
sg4
I78
sg5
I00
sg6
F76.1
sg7
F80.2
sg8
F0.674
sg9
S"C3'"
p24
sg11
F78.84
sg12
F0.118
sg13
g14
sa(dp25
g2
S'DA'
p26
sg4
I2
sg5
I00
sg6
F150.3
sg7
F150.6
sg8
F0.212
sg9
S'C4'
p27
sg11
F150.45
sg12
F0.003
sg13
g18
sa(dp28
g2
S'DA'
p29
sg4
I35
sg5
I00
sg6
F84.943
sg7
F88.707
sg8
F0.669
sg9
S"C4'"
p30
sg11
F87.226
sg12
F0.053
sg13
g14
sa(dp31
g2
S'DA'
p32
sg4
I2
sg5
I00
sg6
F119.8
sg7
F119.9
sg8
F0.071
sg9
S'C5'
p33
sg11
F119.85
sg12
F0.003
sg13
g18
sa(dp34
g2
S'DA'
p35
sg4
I30
sg5
I00
sg6
F47.77
sg7
F69.708
sg8
F3.864
sg9
S"C5'"
p36
sg11
F67.102
sg12
F0.045
sg13
g14
sa(dp37
g2
S'DA'
p38
sg4
I2
sg5
I00
sg6
F157.0
sg7
F157.4
sg8
F0.283
sg9
S'C6'
p39
sg11
F157.2
sg12
F0.003
sg13
g18
sa(dp40
g2
S'DA'
p41
sg4
I91
sg5
I00
sg6
F139.0
sg7
F142.7
sg8
F0.667
sg9
S'C8'
p42
sg11
F141.564
sg12
F0.137
sg13
g18
sa(dp43
g2
S'DA'
p44
sg4
I658
sg5
I01
sg6
F5.19
sg7
F6.69
sg8
F0.239
sg9
S"H1'"
p45
sg11
F6.066
sg12
F0.992
sg13
g14
sa(dp46
g2
S'DA'
p47
sg4
I550
sg5
I01
sg6
F6.226
sg7
F8.53
sg8
F0.366
sg9
S'H2'
p48
sg11
F7.615
sg12
F0.83
sg13
g18
sa(dp49
g2
S'DA'
p50
sg4
I653
sg5
I01
sg6
F1.603
sg7
F3.21
sg8
F0.203
sg9
S"H2'"
p51
sg11
F2.617
sg12
F0.985
sg13
S'geminal'
p52
sa(dp53
g2
S'DA'
p54
sg4
I648
sg5
I01
sg6
F0.575
sg7
F3.34
sg8
F0.223
sg9
S"H2''"
p55
sg11
F2.769
sg12
F0.977
sg13
g52
sa(dp56
g2
S'DA'
p57
sg4
I640
sg5
I01
sg6
F4.02
sg7
F6.04
sg8
F0.149
sg9
S"H3'"
p58
sg11
F4.963
sg12
F0.965
sg13
g14
sa(dp59
g2
S'DA'
p60
sg4
I489
sg5
I01
sg6
F2.076
sg7
F5.2
sg8
F0.23
sg9
S"H4'"
p61
sg11
F4.34
sg12
F0.738
sg13
g14
sa(dp62
g2
S'DA'
p63
sg4
I273
sg5
I01
sg6
F2.909
sg7
F5.69
sg8
F0.244
sg9
S"H5'"
p64
sg11
F4.055
sg12
F0.412
sg13
g52
sa(dp65
g2
S'DA'
p66
sg4
I237
sg5
I01
sg6
F3.086
sg7
F4.46
sg8
F0.196
sg9
S"H5''"
p67
sg11
F4.037
sg12
F0.357
sg13
g52
sa(dp68
g2
S'DA'
p69
sg4
I82
sg5
I00
sg6
F5.62
sg7
F13.4
sg8
F1.218
sg9
S'H61'
p70
sg11
F7.064
sg12
F0.124
sg13
g52
sa(dp71
g2
S'DA'
p72
sg4
I82
sg5
I00
sg6
F5.66
sg7
F12.9
sg8
F1.171
sg9
S'H62'
p73
sg11
F6.777
sg12
F0.124
sg13
g52
sa(dp74
g2
S'DA'
p75
sg4
I663
sg5
I01
sg6
F6.95
sg7
F9.1
sg8
F0.224
sg9
S'H8'
p76
sg11
F8.134
sg12
F1.0
sg13
g18
sa(dp77
g2
S'DA'
p78
sg4
I3
sg5
I00
sg6
F223.4
sg7
F227.0
sg8
F1.8
sg9
S'N1'
p79
sg11
F225.2
sg12
F0.005
sg13
g18
sa(dp80
g2
S'DA'
p81
sg4
I3
sg5
I00
sg6
F214.5
sg7
F216.4
sg8
F1.069
sg9
S'N3'
p82
sg11
F215.733
sg12
F0.005
sg13
g18
sa(dp83
g2
S'DA'
p84
sg4
I9
sg5
I00
sg6
F77.4
sg7
F81.7
sg8
F1.285
sg9
S'N6'
p85
sg11
F80.222
sg12
F0.014
sg13
g14
sa(dp86
g2
S'DA'
p87
sg4
I2
sg5
I00
sg6
F233.5
sg7
F234.1
sg8
F0.424
sg9
S'N7'
p88
sg11
F233.8
sg12
F0.003
sg13
g18
sa(dp89
g2
S'DA'
p90
sg4
I1
sg5
I00
sg6
F170.2
sg7
F170.2
sg8
Nsg9
S'N9'
p91
sg11
F170.2
sg12
F0.002
sg13
g18
sa(dp92
g2
S'DA'
p93
sg4
I172
sg5
I00
sg6
F-45.291
sg7
F35.48
sg8
F6.678
sg9
S'P'
p94
sg11
F-3.048
sg12
F0.259
sg13
g14
sa(dp95
g2
S'DC'
p96
sg4
I95
sg5
I00
sg6
F77.9
sg7
F88.5
sg8
F1.637
sg9
S"C1'"
p97
sg11
F87.232
sg12
F0.119
sg13
g14
sa(dp98
g2
S'DC'
p99
sg4
I2
sg5
I00
sg6
F158.8
sg7
F159.2
sg8
F0.283
sg9
S'C2'
p100
sg11
F159.0
sg12
F0.002
sg13
g18
sa(dp101
g2
S'DC'
p102
sg4
I85
sg5
I00
sg6
F30.62
sg7
F41.765
sg8
F1.533
sg9
S"C2'"
p103
sg11
F40.351
sg12
F0.106
sg13
g14
sa(dp104
g2
S'DC'
p105
sg4
I77
sg5
I00
sg6
F70.48
sg7
F80.3
sg8
F1.849
sg9
S"C3'"
p106
sg11
F77.393
sg12
F0.096
sg13
g14
sa(dp107
g2
S'DC'
p108
sg4
I2
sg5
I00
sg6
F167.8
sg7
F168.0
sg8
F0.141
sg9
S'C4'
p109
sg11
F167.9
sg12
F0.002
sg13
g18
sa(dp110
g2
S'DC'
p111
sg4
I30
sg5
I00
sg6
F77.8
sg7
F88.39
sg8
F2.394
sg9
S"C4'"
p112
sg11
F85.822
sg12
F0.037
sg13
g14
sa(dp113
g2
S'DC'
p114
sg4
I91
sg5
I00
sg6
F97.301
sg7
F99.9
sg8
F0.471
sg9
S'C5'
p115
sg11
F98.726
sg12
F0.114
sg13
g18
sa(dp116
g2
S'DC'
p117
sg4
I26
sg5
I00
sg6
F59.3
sg7
F68.4
sg8
F2.371
sg9
S"C5'"
p118
sg11
F66.09
sg12
F0.032
sg13
g14
sa(dp119
g2
S'DC'
p120
sg4
I85
sg5
I00
sg6
F139.8
sg7
F144.7
sg8
F0.87
sg9
S'C6'
p121
sg11
F143.188
sg12
F0.106
sg13
g18
sa(dp122
g2
S'DC'
p123
sg4
I798
sg5
I01
sg6
F4.79
sg7
F6.57
sg8
F0.296
sg9
S"H1'"
p124
sg11
F5.861
sg12
F0.996
sg13
g14
sa(dp125
g2
S'DC'
p126
sg4
I792
sg5
I01
sg6
F1.02
sg7
F2.82
sg8
F0.241
sg9
S"H2'"
p127
sg11
F2.067
sg12
F0.989
sg13
g52
sa(dp128
g2
S'DC'
p129
sg4
I775
sg5
I01
sg6
F1.35
sg7
F3.468
sg8
F0.221
sg9
S"H2''"
p130
sg11
F2.348
sg12
F0.968
sg13
g52
sa(dp131
g2
S'DC'
p132
sg4
I742
sg5
I01
sg6
F4.0
sg7
F5.78
sg8
F0.176
sg9
S"H3'"
p133
sg11
F4.743
sg12
F0.926
sg13
g14
sa(dp134
g2
S'DC'
p135
sg4
I566
sg5
I01
sg6
F2.084
sg7
F4.83
sg8
F0.297
sg9
S"H4'"
p136
sg11
F4.125
sg12
F0.707
sg13
g14
sa(dp137
g2
S'DC'
p138
sg4
I367
sg5
I01
sg6
F4.918
sg7
F12.08
sg8
F0.933
sg9
S'H41'
p139
sg11
F7.523
sg12
F0.458
sg13
g52
sa(dp140
g2
S'DC'
p141
sg4
I369
sg5
I01
sg6
F5.71
sg7
F10.48
sg8
F0.938
sg9
S'H42'
p142
sg11
F7.5
sg12
F0.461
sg13
g52
sa(dp143
g2
S'DC'
p144
sg4
I797
sg5
I01
sg6
F1.99
sg7
F8.253
sg8
F0.415
sg9
S'H5'
p145
sg11
F5.546
sg12
F0.995
sg13
g18
sa(dp146
g2
S'DC'
p147
sg4
I309
sg5
I01
sg6
F2.57
sg7
F4.655
sg8
F0.253
sg9
S"H5'"
p148
sg11
F4.015
sg12
F0.386
sg13
g52
sa(dp149
g2
S'DC'
p150
sg4
I248
sg5
I01
sg6
F2.83
sg7
F4.57
sg8
F0.252
sg9
S"H5''"
p151
sg11
F4.007
sg12
F0.31
sg13
g52
sa(dp152
g2
S'DC'
p153
sg4
I801
sg5
I01
sg6
F6.28
sg7
F8.305
sg8
F0.243
sg9
S'H6'
p154
sg11
F7.463
sg12
F1.0
sg13
g18
sa(dp155
g2
S'DC'
p156
sg4
I1
sg5
I00
sg6
F150.7
sg7
F150.7
sg8
Nsg9
S'N1'
p157
sg11
F150.7
sg12
F0.001
sg13
g18
sa(dp158
g2
S'DC'
p159
sg4
I1
sg5
I00
sg6
F196.3
sg7
F196.3
sg8
Nsg9
S'N3'
p160
sg11
F196.3
sg12
F0.001
sg13
g18
sa(dp161
g2
S'DC'
p162
sg4
I16
sg5
I00
sg6
F95.1
sg7
F100.405
sg8
F1.333
sg9
S'N4'
p163
sg11
F98.29
sg12
F0.02
sg13
g14
sa(dp164
g2
S'DC'
p165
sg4
I240
sg5
I00
sg6
F-9.414
sg7
F52.721
sg8
F8.379
sg9
g94
sg11
F-1.755
sg12
F0.3
sg13
g14
sa(dp166
g2
S'DG'
p167
sg4
I105
sg5
I00
sg6
F74.9
sg7
F91.068
sg8
F1.726
sg9
S"C1'"
p168
sg11
F85.408
sg12
F0.09
sg13
g14
sa(dp169
g2
S'DG'
p170
sg4
I2
sg5
I00
sg6
F156.5
sg7
F156.7
sg8
F0.141
sg9
S'C2'
p171
sg11
F156.6
sg12
F0.002
sg13
g18
sa(dp172
g2
S'DG'
p173
sg4
I87
sg5
I00
sg6
F33.12
sg7
F42.8
sg8
F1.292
sg9
S"C2'"
p174
sg11
F40.047
sg12
F0.074
sg13
g14
sa(dp175
g2
S'DG'
p176
sg4
I85
sg5
I00
sg6
F67.72
sg7
F81.407
sg8
F2.012
sg9
S"C3'"
p177
sg11
F78.318
sg12
F0.072
sg13
g14
sa(dp178
g2
S'DG'
p179
sg4
I2
sg5
I00
sg6
F153.1
sg7
F154.0
sg8
F0.636
sg9
S'C4'
p180
sg11
F153.55
sg12
F0.002
sg13
g18
sa(dp181
g2
S'DG'
p182
sg4
I38
sg5
I00
sg6
F77.6
sg7
F89.4
sg8
F1.835
sg9
S"C4'"
p183
sg11
F87.286
sg12
F0.032
sg13
g14
sa(dp184
g2
S'DG'
p185
sg4
I2
sg5
I00
sg6
F117.4
sg7
F117.6
sg8
F0.141
sg9
S'C5'
p186
sg11
F117.5
sg12
F0.002
sg13
g18
sa(dp187
g2
S'DG'
p188
sg4
I33
sg5
I00
sg6
F58.5
sg7
F69.6
sg8
F2.287
sg9
S"C5'"
p189
sg11
F67.153
sg12
F0.028
sg13
g14
sa(dp190
g2
S'DG'
p191
sg4
I2
sg5
I00
sg6
F161.0
sg7
F161.4
sg8
F0.283
sg9
S'C6'
p192
sg11
F161.2
sg12
F0.002
sg13
g18
sa(dp193
g2
S'DG'
p194
sg4
I96
sg5
I00
sg6
F135.178
sg7
F142.928
sg8
F1.345
sg9
S'C8'
p195
sg11
F138.751
sg12
F0.082
sg13
g18
sa(dp196
g2
S'DG'
p197
sg4
I715
sg5
I01
sg6
F5.8817
sg7
F13.76
sg8
F0.871
sg9
S'H1'
p198
sg11
F12.118
sg12
F0.61
sg13
g14
sa(dp199
g2
S'DG'
p200
sg4
I1171
sg5
I01
sg6
F4.1
sg7
F6.628
sg8
F0.285
sg9
S"H1'"
p201
sg11
F5.905
sg12
F0.998
sg13
g14
sa(dp202
g2
S'DG'
p203
sg4
I1167
sg5
I01
sg6
F0.63
sg7
F3.753
sg8
F0.258
sg9
S"H2'"
p204
sg11
F2.615
sg12
F0.995
sg13
g52
sa(dp205
g2
S'DG'
p206
sg4
I1142
sg5
I01
sg6
F1.16
sg7
F3.85
sg8
F0.203
sg9
S"H2''"
p207
sg11
F2.67
sg12
F0.974
sg13
g52
sa(dp208
g2
S'DG'
p209
sg4
I115
sg5
I00
sg6
F3.95
sg7
F10.904
sg8
F1.679
sg9
S'H21'
p210
sg11
F8.048
sg12
F0.098
sg13
g52
sa(dp211
g2
S'DG'
p212
sg4
I125
sg5
I00
sg6
F3.95
sg7
F10.1
sg8
F1.106
sg9
S'H22'
p213
sg11
F7.119
sg12
F0.107
sg13
g52
sa(dp214
g2
S'DG'
p215
sg4
I1122
sg5
I01
sg6
F4.244
sg7
F5.9
sg8
F0.149
sg9
S"H3'"
p216
sg11
F4.932
sg12
F0.957
sg13
g14
sa(dp217
g2
S'DG'
p218
sg4
I926
sg5
I01
sg6
F2.82
sg7
F5.2
sg8
F0.182
sg9
S"H4'"
p219
sg11
F4.346
sg12
F0.789
sg13
g14
sa(dp220
g2
S'DG'
p221
sg4
I558
sg5
I01
sg6
F2.832
sg7
F5.553
sg8
F0.235
sg9
S"H5'"
p222
sg11
F4.109
sg12
F0.476
sg13
g52
sa(dp223
g2
S'DG'
p224
sg4
I439
sg5
I01
sg6
F2.863
sg7
F4.73
sg8
F0.218
sg9
S"H5''"
p225
sg11
F4.094
sg12
F0.374
sg13
g52
sa(dp226
g2
S'DG'
p227
sg4
I1173
sg5
I01
sg6
F6.07
sg7
F8.44
sg8
F0.246
sg9
S'H8'
p228
sg11
F7.788
sg12
F1.0
sg13
g18
sa(dp229
g2
S'DG'
p230
sg4
I10
sg5
I00
sg6
F146.7
sg7
F147.7
sg8
F0.286
sg9
S'N1'
p231
sg11
F147.08
sg12
F0.009
sg13
g18
sa(dp232
g2
S'DG'
p233
sg4
I5
sg5
I00
sg6
F75.1
sg7
F76.1
sg8
F0.377
sg9
S'N2'
p234
sg11
F75.52
sg12
F0.004
sg13
g14
sa(dp235
g2
S'DG'
p236
sg4
I4
sg5
I00
sg6
F236.9
sg7
F238.3
sg8
F0.685
sg9
S'N7'
p237
sg11
F237.275
sg12
F0.003
sg13
g18
sa(dp238
g2
S'DG'
p239
sg4
I1
sg5
I00
sg6
F168.5
sg7
F168.5
sg8
Nsg9
S'N9'
p240
sg11
F168.5
sg12
F0.001
sg13
g18
sa(dp241
g2
S'DG'
p242
sg4
I304
sg5
I00
sg6
F-20.919
sg7
F47.102
sg8
F8.109
sg9
g94
sg11
F-1.628
sg12
F0.259
sg13
g14
sa(dp243
g2
S'DT'
p244
sg4
I180
sg5
I00
sg6
F80.6
sg7
F92.218
sg8
F1.139
sg9
S"C1'"
p245
sg11
F87.222
sg12
F0.202
sg13
g14
sa(dp246
g2
S'DT'
p247
sg4
I2
sg5
I00
sg6
F152.9
sg7
F153.4
sg8
F0.354
sg9
S'C2'
p248
sg11
F153.15
sg12
F0.002
sg13
g18
sa(dp249
g2
S'DT'
p250
sg4
I165
sg5
I00
sg6
F34.38
sg7
F42.958
sg8
F0.85
sg9
S"C2'"
p251
sg11
F40.104
sg12
F0.185
sg13
g14
sa(dp252
g2
S'DT'
p253
sg4
I168
sg5
I00
sg6
F71.58
sg7
F80.1
sg8
F1.775
sg9
S"C3'"
p254
sg11
F77.478
sg12
F0.188
sg13
g14
sa(dp255
g2
S'DT'
p256
sg4
I2
sg5
I00
sg6
F168.5
sg7
F169.1
sg8
F0.424
sg9
S'C4'
p257
sg11
F168.8
sg12
F0.002
sg13
g18
sa(dp258
g2
S'DT'
p259
sg4
I41
sg5
I00
sg6
F78.8
sg7
F89.313
sg8
F1.713
sg9
S"C4'"
p260
sg11
F86.433
sg12
F0.046
sg13
g14
sa(dp261
g2
S'DT'
p262
sg4
I9
sg5
I00
sg6
F14.3
sg7
F113.6
sg8
F43.636
sg9
S'C5'
p263
sg11
F36.433
sg12
F0.01
sg13
g14
sa(dp264
g2
S'DT'
p265
sg4
I37
sg5
I00
sg6
F59.4
sg7
F68.4
sg8
F1.78
sg9
S"C5'"
p266
sg11
F66.615
sg12
F0.041
sg13
g14
sa(dp267
g2
S'DT'
p268
sg4
I187
sg5
I00
sg6
F136.08
sg7
F143.6
sg8
F0.693
sg9
S'C6'
p269
sg11
F139.295
sg12
F0.209
sg13
g18
sa(dp270
g2
S'DT'
p271
sg4
I29
sg5
I00
sg6
F13.68
sg7
F14.9
sg8
F0.296
sg9
S'C7'
p272
sg11
F14.415
sg12
F0.032
sg13
S'methyl'
p273
sa(dp274
g2
S'DT'
p275
sg4
I887
sg5
I01
sg6
F4.69
sg7
F6.724
sg8
F0.286
sg9
S"H1'"
p276
sg11
F5.941
sg12
F0.993
sg13
g14
sa(dp277
g2
S'DT'
p278
sg4
I884
sg5
I01
sg6
F0.504
sg7
F2.793
sg8
F0.236
sg9
S"H2'"
p279
sg11
F2.112
sg12
F0.99
sg13
g52
sa(dp280
g2
S'DT'
p281
sg4
I865
sg5
I01
sg6
F0.78
sg7
F4.874
sg8
F0.255
sg9
S"H2''"
p282
sg11
F2.366
sg12
F0.969
sg13
g52
sa(dp283
g2
S'DT'
p284
sg4
I368
sg5
I01
sg6
F2.123
sg7
F14.46
sg8
F1.309
sg9
S'H3'
p285
sg11
F13.216
sg12
F0.412
sg13
g14
sa(dp286
g2
S'DT'
p287
sg4
I839
sg5
I01
sg6
F4.06
sg7
F5.889
sg8
F0.174
sg9
S"H3'"
p288
sg11
F4.792
sg12
F0.94
sg13
g14
sa(dp289
g2
S'DT'
p290
sg4
I581
sg5
I01
sg6
F2.242
sg7
F4.857
sg8
F0.29
sg9
S"H4'"
p291
sg11
F4.131
sg12
F0.651
sg13
g14
sa(dp292
g2
S'DT'
p293
sg4
I373
sg5
I01
sg6
F2.541
sg7
F4.487
sg8
F0.318
sg9
S"H5'"
p294
sg11
F3.974
sg12
F0.418
sg13
g52
sa(dp295
g2
S'DT'
p296
sg4
I338
sg5
I01
sg6
F0.98
sg7
F4.61
sg8
F0.357
sg9
S"H5''"
p297
sg11
F3.953
sg12
F0.378
sg13
g52
sa(dp298
g2
S'DT'
p299
sg4
I893
sg5
I01
sg6
F6.04
sg7
F8.33
sg8
F0.254
sg9
S'H6'
p300
sg11
F7.347
sg12
F1.0
sg13
g18
sa(dp301
g2
S'DT'
p302
sg4
I739
sg5
I01
sg6
F0.42
sg7
F2.726
sg8
F0.255
sg9
S'H71'
p303
sg11
F1.561
sg12
F0.828
sg13
g273
sa(dp304
g2
g302
sg4
I739
sg5
I01
sg6
F0.42
sg7
F2.726
sg8
F0.255
sg9
S'H72'
p305
sg11
F1.561
sg12
F0.828
sg13
g273
sa(dp306
g2
g302
sg4
I739
sg5
I01
sg6
F0.42
sg7
F2.726
sg8
F0.255
sg9
S'H73'
p307
sg11
F1.561
sg12
F0.828
sg13
g273
sa(dp308
g2
S'DT'
p309
sg4
I1
sg5
I00
sg6
F142.9
sg7
F142.9
sg8
Nsg9
S'N1'
p310
sg11
F142.9
sg12
F0.001
sg13
g18
sa(dp311
g2
S'DT'
p312
sg4
I22
sg5
I00
sg6
F158.4
sg7
F160.5
sg8
F0.697
sg9
S'N3'
p313
sg11
F159.327
sg12
F0.025
sg13
g18
sa(dp314
g2
S'DT'
p315
sg4
I195
sg5
I00
sg6
F-5.65
sg7
F47.785
sg8
F9.213
sg9
g94
sg11
F-1.017
sg12
F0.218
sg13
g14
sa.