(lp0
(dp1
S'comp_id'
p2
S'DA'
p3
sS'count'
p4
I110
sS'major'
p5
I00
sS'min'
p6
F81.5
sS'max'
p7
F91.903
sS'std'
p8
F1.242
sS'atom_id'
p9
S"C1'"
p10
sS'avg'
p11
F85.344
sS'norm_freq'
p12
F0.119
sS'desc'
p13
S'isolated'
p14
sa(dp15
g2
S'DA'
p16
sg4
I97
sg5
I00
sg6
F151.0
sg7
F159.328
sg8
F1.307
sg9
S'C2'
p17
sg11
F154.916
sg12
F0.105
sg13
S'aroma'
p18
sa(dp19
g2
S'DA'
p20
sg4
I98
sg5
I00
sg6
F36.228
sg7
F42.934
sg8
F0.905
sg9
S"C2'"
p21
sg11
F40.601
sg12
F0.106
sg13
g14
sa(dp22
g2
S'DA'
p23
sg4
I93
sg5
I00
sg6
F72.71
sg7
F83.26
sg8
F1.625
sg9
S"C3'"
p24
sg11
F78.617
sg12
F0.101
sg13
g14
sa(dp25
g2
S'DA'
p26
sg4
I2
sg5
I00
sg6
F150.3
sg7
F150.6
sg8
F0.212
sg9
S'C4'
p27
sg11
F150.45
sg12
F0.002
sg13
g18
sa(dp28
g2
S'DA'
p29
sg4
I43
sg5
I00
sg6
F84.943
sg7
F91.33
sg8
F1.102
sg9
S"C4'"
p30
sg11
F87.543
sg12
F0.047
sg13
g14
sa(dp31
g2
S'DA'
p32
sg4
I2
sg5
I00
sg6
F119.8
sg7
F119.9
sg8
F0.071
sg9
S'C5'
p33
sg11
F119.85
sg12
F0.002
sg13
g18
sa(dp34
g2
S'DA'
p35
sg4
I38
sg5
I00
sg6
F47.77
sg7
F70.96
sg8
F3.56
sg9
S"C5'"
p36
sg11
F67.505
sg12
F0.041
sg13
g14
sa(dp37
g2
S'DA'
p38
sg4
I2
sg5
I00
sg6
F157.0
sg7
F157.4
sg8
F0.283
sg9
S'C6'
p39
sg11
F157.2
sg12
F0.002
sg13
g18
sa(dp40
g2
S'DA'
p41
sg4
I107
sg5
I00
sg6
F138.0
sg7
F142.7
sg8
F0.932
sg9
S'C8'
p42
sg11
F141.407
sg12
F0.116
sg13
g18
sa(dp43
g2
S'DA'
p44
sg4
I916
sg5
I01
sg6
F4.19
sg7
F8.5
sg8
F0.341
sg9
S"H1'"
p45
sg11
F6.028
sg12
F0.995
sg13
g14
sa(dp46
g2
S'DA'
p47
sg4
I770
sg5
I01
sg6
F2.601
sg7
F8.64
sg8
F0.873
sg9
S'H2'
p48
sg11
F7.465
sg12
F0.836
sg13
g18
sa(dp49
g2
S'DA'
p50
sg4
I913
sg5
I01
sg6
F1.445
sg7
F4.82
sg8
F0.362
sg9
S"H2'"
p51
sg11
F2.666
sg12
F0.991
sg13
S'geminal'
p52
sa(dp53
g2
S'DA'
p54
sg4
I897
sg5
I01
sg6
F0.575
sg7
F6.89
sg8
F0.377
sg9
S"H2''"
p55
sg11
F2.806
sg12
F0.974
sg13
g52
sa(dp56
g2
S'DA'
p57
sg4
I878
sg5
I01
sg6
F4.0
sg7
F6.04
sg8
F0.193
sg9
S"H3'"
p58
sg11
F4.94
sg12
F0.953
sg13
g14
sa(dp59
g2
S'DA'
p60
sg4
I696
sg5
I01
sg6
F2.076
sg7
F9.13
sg8
F0.364
sg9
S"H4'"
p61
sg11
F4.342
sg12
F0.756
sg13
g14
sa(dp62
g2
S'DA'
p63
sg4
I403
sg5
I01
sg6
F2.909
sg7
F5.95
sg8
F0.302
sg9
S"H5'"
p64
sg11
F4.065
sg12
F0.438
sg13
g52
sa(dp65
g2
S'DA'
p66
sg4
I360
sg5
I01
sg6
F2.956
sg7
F8.41
sg8
F0.471
sg9
S"H5''"
p67
sg11
F4.079
sg12
F0.391
sg13
g52
sa(dp68
g2
S'DA'
p69
sg4
I125
sg5
I00
sg6
F2.557
sg7
F13.4
sg8
F1.225
sg9
S'H61'
p70
sg11
F6.81
sg12
F0.136
sg13
g52
sa(dp71
g2
S'DA'
p72
sg4
I124
sg5
I00
sg6
F5.525
sg7
F12.9
sg8
F1.133
sg9
S'H62'
p73
sg11
F6.972
sg12
F0.135
sg13
g52
sa(dp74
g2
S'DA'
p75
sg4
I921
sg5
I01
sg6
F2.35
sg7
F9.1
sg8
F0.902
sg9
S'H8'
p76
sg11
F7.984
sg12
F1.0
sg13
g18
sa(dp77
g2
S'DA'
p78
sg4
I3
sg5
I00
sg6
F223.4
sg7
F227.0
sg8
F1.8
sg9
S'N1'
p79
sg11
F225.2
sg12
F0.003
sg13
g18
sa(dp80
g2
S'DA'
p81
sg4
I3
sg5
I00
sg6
F214.5
sg7
F216.4
sg8
F1.069
sg9
S'N3'
p82
sg11
F215.733
sg12
F0.003
sg13
g18
sa(dp83
g2
S'DA'
p84
sg4
I9
sg5
I00
sg6
F77.4
sg7
F81.7
sg8
F1.285
sg9
S'N6'
p85
sg11
F80.222
sg12
F0.01
sg13
g14
sa(dp86
g2
S'DA'
p87
sg4
I2
sg5
I00
sg6
F233.5
sg7
F234.1
sg8
F0.424
sg9
S'N7'
p88
sg11
F233.8
sg12
F0.002
sg13
g18
sa(dp89
g2
S'DA'
p90
sg4
I1
sg5
I00
sg6
F170.2
sg7
F170.2
sg8
Nsg9
S'N9'
p91
sg11
F170.2
sg12
F0.001
sg13
g18
sa(dp92
g2
S'DA'
p93
sg4
I198
sg5
I00
sg6
F-45.291
sg7
F35.48
sg8
F6.275
sg9
S'P'
p94
sg11
F-3.119
sg12
F0.215
sg13
g14
sa(dp95
g2
S'DC'
p96
sg4
I116
sg5
I00
sg6
F77.9
sg7
F88.53
sg8
F1.76
sg9
S"C1'"
p97
sg11
F86.995
sg12
F0.108
sg13
g14
sa(dp98
g2
S'DC'
p99
sg4
I2
sg5
I00
sg6
F158.8
sg7
F159.2
sg8
F0.283
sg9
S'C2'
p100
sg11
F159.0
sg12
F0.002
sg13
g18
sa(dp101
g2
S'DC'
p102
sg4
I87
sg5
I00
sg6
F30.62
sg7
F42.27
sg8
F1.543
sg9
S"C2'"
p103
sg11
F40.395
sg12
F0.081
sg13
g14
sa(dp104
g2
S'DC'
p105
sg4
I100
sg5
I00
sg6
F66.41
sg7
F80.3
sg8
F2.758
sg9
S"C3'"
p106
sg11
F76.58
sg12
F0.093
sg13
g14
sa(dp107
g2
S'DC'
p108
sg4
I2
sg5
I00
sg6
F167.8
sg7
F168.0
sg8
F0.141
sg9
S'C4'
p109
sg11
F167.9
sg12
F0.002
sg13
g18
sa(dp110
g2
S'DC'
p111
sg4
I34
sg5
I00
sg6
F77.8
sg7
F88.39
sg8
F2.291
sg9
S"C4'"
p112
sg11
F85.73
sg12
F0.032
sg13
g14
sa(dp113
g2
S'DC'
p114
sg4
I107
sg5
I00
sg6
F84.55
sg7
F99.9
sg8
F2.413
sg9
S'C5'
p115
sg11
F98.023
sg12
F0.1
sg13
g18
sa(dp116
g2
S'DC'
p117
sg4
I32
sg5
I00
sg6
F59.3
sg7
F71.72
sg8
F2.676
sg9
S"C5'"
p118
sg11
F66.268
sg12
F0.03
sg13
g14
sa(dp119
g2
S'DC'
p120
sg4
I105
sg5
I00
sg6
F133.73
sg7
F144.7
sg8
F1.784
sg9
S'C6'
p121
sg11
F142.652
sg12
F0.098
sg13
g18
sa(dp122
g2
S'DC'
p123
sg4
I1064
sg5
I01
sg6
F2.165
sg7
F6.57
sg8
F0.745
sg9
S"H1'"
p124
sg11
F5.695
sg12
F0.993
sg13
g14
sa(dp125
g2
S'DC'
p126
sg4
I1064
sg5
I01
sg6
F-29.45
sg7
F6.934
sg8
F1.535
sg9
S"H2'"
p127
sg11
F2.129
sg12
F0.993
sg13
g52
sa(dp128
g2
S'DC'
p129
sg4
I1033
sg5
I01
sg6
F-20.82
sg7
F8.481
sg8
F1.179
sg9
S"H2''"
p130
sg11
F2.394
sg12
F0.964
sg13
g52
sa(dp131
g2
S'DC'
p132
sg4
I996
sg5
I01
sg6
F-7.37
sg7
F8.615
sg8
F0.706
sg9
S"H3'"
p133
sg11
F4.716
sg12
F0.929
sg13
g14
sa(dp134
g2
S'DC'
p135
sg4
I791
sg5
I01
sg6
F-38.59
sg7
F28.54
sg8
F2.588
sg9
S"H4'"
p136
sg11
F4.186
sg12
F0.738
sg13
g14
sa(dp137
g2
S'DC'
p138
sg4
I501
sg5
I01
sg6
F-0.26
sg7
F12.08
sg8
F1.195
sg9
S'H41'
p139
sg11
F7.337
sg12
F0.467
sg13
g52
sa(dp140
g2
S'DC'
p141
sg4
I502
sg5
I01
sg6
F-0.26
sg7
F10.48
sg8
F1.053
sg9
S'H42'
p142
sg11
F7.397
sg12
F0.468
sg13
g52
sa(dp143
g2
S'DC'
p144
sg4
I1060
sg5
I01
sg6
F-6.22
sg7
F8.253
sg8
F0.961
sg9
S'H5'
p145
sg11
F5.361
sg12
F0.989
sg13
g18
sa(dp146
g2
S'DC'
p147
sg4
I442
sg5
I01
sg6
F-18.35
sg7
F11.19
sg8
F1.838
sg9
S"H5'"
p148
sg11
F4.182
sg12
F0.412
sg13
g52
sa(dp149
g2
S'DC'
p150
sg4
I353
sg5
I01
sg6
F-41.21
sg7
F15.96
sg8
F3.633
sg9
S"H5''"
p151
sg11
F3.99
sg12
F0.329
sg13
g52
sa(dp152
g2
S'DC'
p153
sg4
I1072
sg5
I01
sg6
F-14.72
sg7
F8.305
sg8
F1.06
sg9
S'H6'
p154
sg11
F7.329
sg12
F1.0
sg13
g18
sa(dp155
g2
S'DC'
p156
sg4
I1
sg5
I00
sg6
F150.7
sg7
F150.7
sg8
Nsg9
S'N1'
p157
sg11
F150.7
sg12
F0.001
sg13
g18
sa(dp158
g2
S'DC'
p159
sg4
I1
sg5
I00
sg6
F196.3
sg7
F196.3
sg8
Nsg9
S'N3'
p160
sg11
F196.3
sg12
F0.001
sg13
g18
sa(dp161
g2
S'DC'
p162
sg4
I16
sg5
I00
sg6
F95.1
sg7
F100.405
sg8
F1.333
sg9
S'N4'
p163
sg11
F98.29
sg12
F0.015
sg13
g14
sa(dp164
g2
S'DC'
p165
sg4
I269
sg5
I00
sg6
F-14.2
sg7
F52.721
sg8
F8.013
sg9
g94
sg11
F-1.942
sg12
F0.251
sg13
g14
sa(dp166
g2
S'DG'
p167
sg4
I130
sg5
I00
sg6
F74.9
sg7
F91.82
sg8
F2.027
sg9
S"C1'"
p168
sg11
F85.338
sg12
F0.083
sg13
g14
sa(dp169
g2
S'DG'
p170
sg4
I2
sg5
I00
sg6
F156.5
sg7
F156.7
sg8
F0.141
sg9
S'C2'
p171
sg11
F156.6
sg12
F0.001
sg13
g18
sa(dp172
g2
S'DG'
p173
sg4
I95
sg5
I00
sg6
F33.12
sg7
F49.0
sg8
F1.953
sg9
S"C2'"
p174
sg11
F40.439
sg12
F0.06
sg13
g14
sa(dp175
g2
S'DG'
p176
sg4
I108
sg5
I00
sg6
F67.72
sg7
F81.407
sg8
F2.252
sg9
S"C3'"
p177
sg11
F77.852
sg12
F0.069
sg13
g14
sa(dp178
g2
S'DG'
p179
sg4
I2
sg5
I00
sg6
F153.1
sg7
F154.0
sg8
F0.636
sg9
S'C4'
p180
sg11
F153.55
sg12
F0.001
sg13
g18
sa(dp181
g2
S'DG'
p182
sg4
I46
sg5
I00
sg6
F77.6
sg7
F90.64
sg8
F1.851
sg9
S"C4'"
p183
sg11
F87.33
sg12
F0.029
sg13
g14
sa(dp184
g2
S'DG'
p185
sg4
I2
sg5
I00
sg6
F117.4
sg7
F117.6
sg8
F0.141
sg9
S'C5'
p186
sg11
F117.5
sg12
F0.001
sg13
g18
sa(dp187
g2
S'DG'
p188
sg4
I41
sg5
I00
sg6
F58.5
sg7
F71.42
sg8
F2.289
sg9
S"C5'"
p189
sg11
F67.489
sg12
F0.026
sg13
g14
sa(dp190
g2
S'DG'
p191
sg4
I2
sg5
I00
sg6
F161.0
sg7
F161.4
sg8
F0.283
sg9
S'C6'
p192
sg11
F161.2
sg12
F0.001
sg13
g18
sa(dp193
g2
S'DG'
p194
sg4
I120
sg5
I00
sg6
F134.5
sg7
F142.928
sg8
F1.512
sg9
S'C8'
p195
sg11
F138.364
sg12
F0.076
sg13
g18
sa(dp196
g2
S'DG'
p197
sg4
I983
sg5
I01
sg6
F-2.91
sg7
F13.76
sg8
F2.324
sg9
S'H1'
p198
sg11
F11.572
sg12
F0.624
sg13
g18
sa(dp199
g2
S'DG'
p200
sg4
I1575
sg5
I01
sg6
F2.525
sg7
F12.453
sg8
F0.48
sg9
S"H1'"
p201
sg11
F5.883
sg12
F1.0
sg13
g14
sa(dp202
g2
S'DG'
p203
sg4
I1561
sg5
I01
sg6
F0.63
sg7
F8.23
sg8
F0.44
sg9
S"H2'"
p204
sg11
F2.671
sg12
F0.991
sg13
g52
sa(dp205
g2
S'DG'
p206
sg4
I1521
sg5
I01
sg6
F1.16
sg7
F11.5
sg8
F0.453
sg9
S"H2''"
p207
sg11
F2.715
sg12
F0.966
sg13
g52
sa(dp208
g2
S'DG'
p209
sg4
I198
sg5
I00
sg6
F-26.86
sg7
F18.44
sg8
F3.554
sg9
S'H21'
p210
sg11
F6.97
sg12
F0.126
sg13
g52
sa(dp211
g2
S'DG'
p212
sg4
I209
sg5
I00
sg6
F-26.86
sg7
F18.44
sg8
F3.461
sg9
S'H22'
p213
sg11
F5.942
sg12
F0.133
sg13
g52
sa(dp214
g2
S'DG'
p215
sg4
I1501
sg5
I01
sg6
F0.0
sg7
F13.239
sg8
F0.749
sg9
S"H3'"
p216
sg11
F4.968
sg12
F0.953
sg13
g14
sa(dp217
g2
S'DG'
p218
sg4
I1262
sg5
I01
sg6
F0.0
sg7
F13.263
sg8
F1.078
sg9
S"H4'"
p219
sg11
F4.471
sg12
F0.801
sg13
g14
sa(dp220
g2
S'DG'
p221
sg4
I736
sg5
I01
sg6
F0.0
sg7
F7.82
sg8
F0.379
sg9
S"H5'"
p222
sg11
F4.111
sg12
F0.467
sg13
g52
sa(dp223
g2
S'DG'
p224
sg4
I601
sg5
I01
sg6
F0.0
sg7
F7.76
sg8
F0.378
sg9
S"H5''"
p225
sg11
F4.09
sg12
F0.382
sg13
g52
sa(dp226
g2
S'DG'
p227
sg4
I1569
sg5
I01
sg6
F6.07
sg7
F9.31
sg8
F0.251
sg9
S'H8'
p228
sg11
F7.778
sg12
F0.996
sg13
g18
sa(dp229
g2
S'DG'
p230
sg4
I10
sg5
I00
sg6
F146.7
sg7
F147.7
sg8
F0.286
sg9
S'N1'
p231
sg11
F147.08
sg12
F0.006
sg13
g18
sa(dp232
g2
S'DG'
p233
sg4
I5
sg5
I00
sg6
F75.1
sg7
F76.1
sg8
F0.377
sg9
S'N2'
p234
sg11
F75.52
sg12
F0.003
sg13
g14
sa(dp235
g2
S'DG'
p236
sg4
I4
sg5
I00
sg6
F236.9
sg7
F238.3
sg8
F0.685
sg9
S'N7'
p237
sg11
F237.275
sg12
F0.003
sg13
g18
sa(dp238
g2
S'DG'
p239
sg4
I1
sg5
I00
sg6
F168.5
sg7
F168.5
sg8
Nsg9
S'N9'
p240
sg11
F168.5
sg12
F0.001
sg13
g18
sa(dp241
g2
S'DG'
p242
sg4
I346
sg5
I00
sg6
F-20.919
sg7
F47.102
sg8
F7.626
sg9
g94
sg11
F-1.672
sg12
F0.22
sg13
g14
sa(dp243
g2
S'DT'
p244
sg4
I198
sg5
I00
sg6
F80.6
sg7
F92.218
sg8
F1.266
sg9
S"C1'"
p245
sg11
F87.098
sg12
F0.165
sg13
g14
sa(dp246
g2
S'DT'
p247
sg4
I2
sg5
I00
sg6
F152.9
sg7
F153.4
sg8
F0.354
sg9
S'C2'
p248
sg11
F153.15
sg12
F0.002
sg13
g18
sa(dp249
g2
S'DT'
p250
sg4
I173
sg5
I00
sg6
F34.38
sg7
F42.958
sg8
F0.833
sg9
S"C2'"
p251
sg11
F40.117
sg12
F0.144
sg13
g14
sa(dp252
g2
S'DT'
p253
sg4
I183
sg5
I00
sg6
F71.58
sg7
F80.1
sg8
F1.736
sg9
S"C3'"
p254
sg11
F77.441
sg12
F0.153
sg13
g14
sa(dp255
g2
S'DT'
p256
sg4
I2
sg5
I00
sg6
F168.5
sg7
F169.1
sg8
F0.424
sg9
S'C4'
p257
sg11
F168.8
sg12
F0.002
sg13
g18
sa(dp258
g2
S'DT'
p259
sg4
I49
sg5
I00
sg6
F78.8
sg7
F89.313
sg8
F1.657
sg9
S"C4'"
p260
sg11
F86.594
sg12
F0.041
sg13
g14
sa(dp261
g2
S'DT'
p262
sg4
I9
sg5
I00
sg6
F14.3
sg7
F113.6
sg8
F43.636
sg9
S'C5'
p263
sg11
F36.433
sg12
F0.008
sg13
g14
sa(dp264
g2
S'DT'
p265
sg4
I45
sg5
I00
sg6
F59.4
sg7
F68.4
sg8
F1.927
sg9
S"C5'"
p266
sg11
F66.414
sg12
F0.038
sg13
g14
sa(dp267
g2
S'DT'
p268
sg4
I205
sg5
I00
sg6
F135.8
sg7
F143.6
sg8
F0.832
sg9
S'C6'
p269
sg11
F139.242
sg12
F0.171
sg13
g18
sa(dp270
g2
S'DT'
p271
sg4
I37
sg5
I00
sg6
F13.52
sg7
F14.9
sg8
F0.388
sg9
S'C7'
p272
sg11
F14.325
sg12
F0.031
sg13
S'methyl'
p273
sa(dp274
g2
S'DT'
p275
sg4
I1195
sg5
I01
sg6
F1.654
sg7
F6.724
sg8
F0.568
sg9
S"H1'"
p276
sg11
F5.857
sg12
F0.997
sg13
g14
sa(dp277
g2
S'DT'
p278
sg4
I1193
sg5
I01
sg6
F0.504
sg7
F6.206
sg8
F0.494
sg9
S"H2'"
p279
sg11
F2.161
sg12
F0.995
sg13
g52
sa(dp280
g2
S'DT'
p281
sg4
I1167
sg5
I01
sg6
F0.78
sg7
F4.874
sg8
F0.378
sg9
S"H2''"
p282
sg11
F2.397
sg12
F0.973
sg13
g52
sa(dp283
g2
S'DT'
p284
sg4
I477
sg5
I01
sg6
F2.123
sg7
F14.53
sg8
F2.072
sg9
S'H3'
p285
sg11
F12.846
sg12
F0.398
sg13
g18
sa(dp286
g2
S'DT'
p287
sg4
I1133
sg5
I01
sg6
F3.79
sg7
F14.11
sg8
F0.503
sg9
S"H3'"
p288
sg11
F4.797
sg12
F0.945
sg13
g14
sa(dp289
g2
S'DT'
p290
sg4
I841
sg5
I01
sg6
F2.0
sg7
F14.15
sg8
F0.582
sg9
S"H4'"
p291
sg11
F4.147
sg12
F0.701
sg13
g14
sa(dp292
g2
S'DT'
p293
sg4
I540
sg5
I01
sg6
F2.541
sg7
F14.197
sg8
F1.643
sg9
S"H5'"
p294
sg11
F4.239
sg12
F0.45
sg13
g52
sa(dp295
g2
S'DT'
p296
sg4
I474
sg5
I01
sg6
F0.98
sg7
F7.19
sg8
F0.396
sg9
S"H5''"
p297
sg11
F3.973
sg12
F0.395
sg13
g52
sa(dp298
g2
S'DT'
p299
sg4
I1199
sg5
I01
sg6
F1.61
sg7
F8.33
sg8
F0.326
sg9
S'H6'
p300
sg11
F7.338
sg12
F1.0
sg13
g18
sa(dp301
g2
S'DT'
p302
sg4
I1039
sg5
I01
sg6
F0.18
sg7
F7.525
sg8
F0.428
sg9
S'H71'
p303
sg11
F1.587
sg12
F0.867
sg13
g273
sa(dp304
g2
g302
sg4
I1039
sg5
I01
sg6
F0.18
sg7
F7.525
sg8
F0.428
sg9
S'H72'
p305
sg11
F1.587
sg12
F0.867
sg13
g273
sa(dp306
g2
g302
sg4
I1039
sg5
I01
sg6
F0.18
sg7
F7.525
sg8
F0.428
sg9
S'H73'
p307
sg11
F1.587
sg12
F0.867
sg13
g273
sa(dp308
g2
S'DT'
p309
sg4
I1
sg5
I00
sg6
F142.9
sg7
F142.9
sg8
Nsg9
S'N1'
p310
sg11
F142.9
sg12
F0.001
sg13
g18
sa(dp311
g2
S'DT'
p312
sg4
I22
sg5
I00
sg6
F158.4
sg7
F160.5
sg8
F0.697
sg9
S'N3'
p313
sg11
F159.327
sg12
F0.018
sg13
g18
sa(dp314
g2
S'DT'
p315
sg4
I225
sg5
I00
sg6
F-5.65
sg7
F47.785
sg8
F8.611
sg9
g94
sg11
F-1.181
sg12
F0.188
sg13
g14
sa.