(lp0
(dp1
S'comp_id'
p2
S'A'
p3
sS'count'
p4
I615
sS'min'
p5
F84.233
sS'max'
p6
F97.8
sS'std'
p7
F1.926
sS'atom_id'
p8
S"C1'"
p9
sS'avg'
p10
F91.3
sa(dp11
g2
g3
sg4
I667
sg5
F97.11
sg6
F167.71
sg7
F3.293
sg8
S'C2'
p12
sg10
F153.177
sa(dp13
g2
g3
sg4
I431
sg5
F65.245
sg6
F89.1
sg7
F2.128
sg8
S"C2'"
p14
sg10
F75.114
sa(dp15
g2
g3
sg4
I400
sg5
F62.835
sg6
F90.06
sg7
F2.58
sg8
S"C3'"
p16
sg10
F73.201
sa(dp17
g2
g3
sg4
I16
sg5
F145.326
sg6
F151.893
sg7
F1.641
sg8
S'C4'
p18
sg10
F147.048
sa(dp19
g2
g3
sg4
I382
sg5
F71.993
sg6
F87.994
sg7
F2.197
sg8
S"C4'"
p20
sg10
F82.271
sa(dp21
g2
g3
sg4
I16
sg5
F66.277
sg6
F153.63
sg7
F16.323
sg8
S'C5'
p22
sg10
F116.736
sa(dp23
g2
g3
sg4
I338
sg5
F51.143
sg6
F97.12
sg7
F4.046
sg8
S"C5'"
p24
sg10
F65.758
sa(dp25
g2
g3
sg4
I18
sg5
F140.86
sg6
F159.6
sg7
F3.785
sg8
S'C6'
p26
sg10
F154.943
sa(dp27
g2
g3
sg4
I659
sg5
F92.811
sg6
F144.047
sg7
F2.878
sg8
S'C8'
p28
sg10
F139.508
sa(dp29
g2
g3
sg4
I1007
sg5
F4.558
sg6
F6.7
sg7
F0.215
sg8
S"H1'"
p30
sS'h_desc'
p31
S'isolated'
p32
sg10
F5.892
sa(dp33
g2
g3
sg4
I1043
sg5
F6.077
sg6
F9.385
sg7
F0.431
sg8
S'H2'
p34
sg31
g32
sg10
F7.65
sa(dp35
g2
g3
sg4
I878
sg5
F3.608
sg6
F5.907
sg7
F0.225
sg8
S"H2'"
p36
sg31
g32
sg10
F4.59
sa(dp37
g2
g3
sg4
I800
sg5
F4.062
sg6
F5.43
sg7
F0.206
sg8
S"H3'"
p38
sg31
g32
sg10
F4.632
sa(dp39
g2
g3
sg4
I689
sg5
F3.095
sg6
F5.29
sg7
F0.163
sg8
S"H4'"
p40
sg31
g32
sg10
F4.468
sa(dp41
g2
g3
sg4
I524
sg5
F2.803
sg6
F4.942
sg7
F0.231
sg8
S"H5'"
p42
sg31
g32
sg10
F4.301
sa(dp43
g2
g3
sg4
I533
sg5
F3.203
sg6
F4.69
sg7
F0.2
sg8
S"H5''"
p44
sg31
g32
sg10
F4.189
sa(dp45
g2
g3
sg4
I213
sg5
F5.59
sg6
F10.387
sg7
F0.736
sg8
S'H61'
p46
sg31
S'genimal'
p47
sg10
F7.509
sa(dp48
g2
g3
sg4
I199
sg5
F5.091
sg6
F9.206
sg7
F0.65
sg8
S'H62'
p49
sg31
g47
sg10
F6.798
sa(dp50
g2
g3
sg4
I1007
sg5
F6.999
sg6
F9.244
sg7
F0.29
sg8
S'H8'
p51
sg31
g32
sg10
F8.02
sa(dp52
g2
g3
sg4
I32
sg5
F4.44
sg6
F7.749
sg7
F1.008
sg8
S"HO2'"
p53
sg31
g32
sg10
F6.29
sa(dp54
g2
g3
sg4
I193
sg5
F153.868
sg6
F229.7
sg7
F14.263
sg8
S'N1'
p55
sg10
F219.077
sa(dp56
g2
g3
sg4
I152
sg5
F166.79
sg6
F231.077
sg7
F5.379
sg8
S'N3'
p57
sg10
F215.11
sa(dp58
g2
g3
sg4
I111
sg5
F72.58
sg6
F95.78
sg7
F3.018
sg8
S'N6'
p59
sg10
F81.686
sa(dp60
g2
g3
sg4
I111
sg5
F221.528
sg6
F235.8
sg7
F2.399
sg8
S'N7'
p61
sg10
F230.376
sa(dp62
g2
g3
sg4
I124
sg5
F160.253
sg6
F176.8
sg7
F2.201
sg8
S'N9'
p63
sg10
F170.141
sa(dp64
g2
g3
sg4
I101
sg5
F-5.085
sg6
F2.426
sg7
F1.361
sg8
S'P'
p65
sg10
F-3.277
sa(dp66
g2
S'C'
p67
sg4
I744
sg5
F85.631
sg6
F95.8
sg7
F1.809
sg8
S"C1'"
p68
sg10
F92.593
sa(dp69
g2
g67
sg4
I48
sg5
F6.786
sg6
F189.36
sg7
F24.577
sg8
S'C2'
p70
sg10
F158.502
sa(dp71
g2
g67
sg4
I578
sg5
F44.202
sg6
F93.761
sg7
F2.689
sg8
S"C2'"
p72
sg10
F75.176
sa(dp73
g2
g67
sg4
I541
sg5
F59.843
sg6
F99.623
sg7
F2.87
sg8
S"C3'"
p74
sg10
F72.158
sa(dp75
g2
g67
sg4
I61
sg5
F154.18
sg6
F169.52
sg7
F4.2
sg8
S'C4'
p76
sg10
F166.284
sa(dp77
g2
g67
sg4
I498
sg5
F71.834
sg6
F86.8
sg7
F2.053
sg8
S"C4'"
p78
sg10
F81.85
sa(dp79
g2
g67
sg4
I727
sg5
F90.927
sg6
F135.619
sg7
F2.109
sg8
S'C5'
p80
sg10
F97.191
sa(dp81
g2
g67
sg4
I426
sg5
F50.261
sg6
F95.33
sg7
F3.825
sg8
S"C5'"
p82
sg10
F64.664
sa(dp83
g2
g67
sg4
I777
sg5
F126.255
sg6
F145.02
sg7
F1.725
sg8
S'C6'
p84
sg10
F140.902
sa(dp85
g2
g67
sg4
I1224
sg5
F3.6
sg6
F6.424
sg7
F0.228
sg8
S"H1'"
p86
sg31
g32
sg10
F5.557
sa(dp87
g2
g67
sg4
I1063
sg5
F3.388
sg6
F5.068
sg7
F0.211
sg8
S"H2'"
p88
sg31
g32
sg10
F4.33
sa(dp89
g2
g67
sg4
I964
sg5
F3.247
sg6
F5.633
sg7
F0.191
sg8
S"H3'"
p90
sg31
g32
sg10
F4.404
sa(dp91
g2
g67
sg4
I795
sg5
F2.7614
sg6
F4.68
sg7
F0.19
sg8
S"H4'"
p92
sg31
g32
sg10
F4.328
sa(dp93
g2
g67
sg4
I687
sg5
F5.639
sg6
F10.38
sg7
F0.681
sg8
S'H41'
p94
sg31
g47
sg10
F7.958
sa(dp95
g2
g67
sg4
I668
sg5
F5.23
sg6
F8.936
sg7
F0.68
sg8
S'H42'
p96
sg31
g47
sg10
F7.245
sa(dp97
g2
g67
sg4
I1226
sg5
F4.195
sg6
F6.623
sg7
F0.282
sg8
S'H5'
p98
sg31
g32
sg10
F5.476
sa(dp99
g2
g67
sg4
I567
sg5
F2.698
sg6
F5.037
sg7
F0.303
sg8
S"H5'"
p100
sg31
g32
sg10
F4.283
sa(dp101
g2
g67
sg4
I614
sg5
F2.65
sg6
F5.036
sg7
F0.273
sg8
S"H5''"
p102
sg31
g32
sg10
F4.121
sa(dp103
g2
g67
sg4
I1245
sg5
F6.91
sg6
F8.46
sg7
F0.21
sg8
S'H6'
p104
sg31
g32
sg10
F7.677
sa(dp105
g2
g67
sg4
I53
sg5
F3.97
sg6
F9.7
sg7
F1.354
sg8
S"HO2'"
p106
sg31
g32
sg10
F6.306
sa(dp107
g2
g67
sg4
I169
sg5
F91.76
sg6
F178.834
sg7
F10.676
sg8
S'N1'
p108
sg10
F150.675
sa(dp109
g2
g67
sg4
I138
sg5
F164.113
sg6
F204.3
sg7
F9.494
sg8
S'N3'
p110
sg10
F193.482
sa(dp111
g2
g67
sg4
I284
sg5
F93.428
sg6
F104.247
sg7
F1.692
sg8
S'N4'
p112
sg10
F98.019
sa(dp113
g2
g67
sg4
I126
sg5
F-5.127
sg6
F-0.356
sg7
F1.23
sg8
g65
sg10
F-3.644
sa(dp114
g2
S'G'
p115
sg4
I865
sg5
F84.004
sg6
F95.05
sg7
F1.973
sg8
S"C1'"
p116
sg10
F91.454
sa(dp117
g2
g115
sg4
I33
sg5
F144.41
sg6
F162.5
sg7
F4.2
sg8
S'C2'
p118
sg10
F154.387
sa(dp119
g2
g115
sg4
I663
sg5
F64.735
sg6
F85.1
sg7
F2.292
sg8
S"C2'"
p120
sg10
F74.752
sa(dp121
g2
g115
sg4
I609
sg5
F62.408
sg6
F82.1
sg7
F2.601
sg8
S"C3'"
p122
sg10
F73.261
sa(dp123
g2
g115
sg4
I22
sg5
F148.9
sg6
F158.62
sg7
F2.193
sg8
S'C4'
p124
sg10
F151.31
sa(dp125
g2
g115
sg4
I580
sg5
F72.079
sg6
F89.736
sg7
F2.343
sg8
S"C4'"
p126
sg10
F82.375
sa(dp127
g2
g115
sg4
I36
sg5
F115.1
sg6
F167.24
sg7
F17.432
sg8
S'C5'
p128
sg10
F123.693
sa(dp129
g2
g115
sg4
I523
sg5
F50.36
sg6
F97.91
sg7
F4.884
sg8
S"C5'"
p130
sg10
F66.03
sa(dp131
g2
g115
sg4
I60
sg5
F136.45
sg6
F162.394
sg7
F6.59
sg8
S'C6'
p132
sg10
F158.505
sa(dp133
g2
g115
sg4
I978
sg5
F107.807
sg6
F143.88
sg7
F2.575
sg8
S'C8'
p134
sg10
F136.79
sa(dp135
g2
g115
sg4
I1083
sg5
F6.91
sg6
F13.971
sg7
F0.953
sg8
S'H1'
p136
sg31
g32
sg10
F12.359
sa(dp137
g2
g115
sg4
I1525
sg5
F3.41
sg6
F7.618
sg7
F0.337
sg8
S"H1'"
p138
sg31
g32
sg10
F5.665
sa(dp139
g2
g115
sg4
I1334
sg5
F3.256
sg6
F6.299
sg7
F0.258
sg8
S"H2'"
p140
sg31
g32
sg10
F4.579
sa(dp141
g2
g115
sg4
I323
sg5
F5.469
sg6
F9.391
sg7
F1.01
sg8
S'H21'
p142
sg31
g47
sg10
F7.51
sa(dp143
g2
g115
sg4
I316
sg5
F4.71
sg6
F8.978
sg7
F0.802
sg8
S'H22'
p144
sg31
g47
sg10
F6.388
sa(dp145
g2
g115
sg4
I1212
sg5
F3.798
sg6
F5.775
sg7
F0.25
sg8
S"H3'"
p146
sg31
g32
sg10
F4.552
sa(dp147
g2
g115
sg4
I1012
sg5
F2.66
sg6
F5.106
sg7
F0.199
sg8
S"H4'"
p148
sg31
g32
sg10
F4.423
sa(dp149
g2
g115
sg4
I830
sg5
F2.888
sg6
F5.423
sg7
F0.233
sg8
S"H5'"
p150
sg31
g32
sg10
F4.26
sa(dp151
g2
g115
sg4
I848
sg5
F2.55
sg6
F5.11
sg7
F0.244
sg8
S"H5''"
p152
sg31
g32
sg10
F4.176
sa(dp153
g2
g115
sg4
I1549
sg5
F6.64
sg6
F8.625
sg7
F0.357
sg8
S'H8'
p154
sg31
g32
sg10
F7.608
sa(dp155
g2
g115
sg4
I38
sg5
F4.57
sg6
F7.097
sg7
F0.977
sg8
S"HO2'"
p156
sg31
g32
sg10
F6.37
sa(dp157
g2
g115
sg4
I646
sg5
F80.51
sg6
F166.07
sg7
F4.457
sg8
S'N1'
p158
sg10
F146.655
sa(dp159
g2
g115
sg4
I106
sg5
F70.806
sg6
F78.42
sg7
F1.696
sg8
S'N2'
p160
sg10
F74.599
sa(dp161
g2
g115
sg4
I15
sg5
F84.63
sg6
F234.1
sg7
F39.539
sg8
S'N3'
p162
sg10
F152.461
sa(dp163
g2
g115
sg4
I148
sg5
F217.005
sg6
F238.055
sg7
F3.89
sg8
S'N7'
p164
sg10
F233.115
sa(dp165
g2
g115
sg4
I206
sg5
F164.151
sg6
F176.4
sg7
F1.768
sg8
S'N9'
p166
sg10
F169.478
sa(dp167
g2
g115
sg4
I130
sg5
F-5.243
sg6
F-0.016
sg7
F1.218
sg8
g65
sg10
F-3.283
sa(dp168
g2
S'U'
p169
sg4
I638
sg5
F85.185
sg6
F96.3
sg7
F2.119
sg8
S"C1'"
p170
sg10
F91.942
sa(dp171
g2
g169
sg4
I56
sg5
F149.633
sg6
F183.2
sg7
F7.717
sg8
S'C2'
p172
sg10
F154.224
sa(dp173
g2
g169
sg4
I479
sg5
F65.212
sg6
F83.0
sg7
F1.805
sg8
S"C2'"
p174
sg10
F74.583
sa(dp175
g2
g169
sg4
I429
sg5
F62.261
sg6
F80.528
sg7
F2.599
sg8
S"C3'"
p176
sg10
F73.075
sa(dp177
g2
g169
sg4
I61
sg5
F164.02
sg6
F169.7
sg7
F1.624
sg8
S'C4'
p178
sg10
F167.311
sa(dp179
g2
g169
sg4
I416
sg5
F72.067
sg6
F94.42
sg7
F2.254
sg8
S"C4'"
p180
sg10
F82.388
sa(dp181
g2
g169
sg4
I594
sg5
F80.77
sg6
F154.13
sg7
F3.711
sg8
S'C5'
p182
sg10
F103.286
sa(dp183
g2
g169
sg4
I356
sg5
F50.507
sg6
F98.027
sg7
F5.319
sg8
S"C5'"
p184
sg10
F65.552
sa(dp185
g2
g169
sg4
I629
sg5
F125.749
sg6
F169.95
sg7
F2.545
sg8
S'C6'
p186
sg10
F141.355
sa(dp187
g2
g169
sg4
I981
sg5
F3.69
sg6
F6.372
sg7
F0.255
sg8
S"H1'"
p188
sg31
g32
sg10
F5.613
sa(dp189
g2
g169
sg4
I860
sg5
F3.16464
sg6
F5.2
sg7
F0.234
sg8
S"H2'"
p190
sg31
g32
sg10
F4.372
sa(dp191
g2
g169
sg4
I611
sg5
F3.51
sg6
F14.755
sg7
F1.206
sg8
S'H3'
p192
sg31
g32
sg10
F13.118
sa(dp193
g2
g169
sg4
I758
sg5
F3.673
sg6
F5.18
sg7
F0.178
sg8
S"H3'"
p194
sg31
g32
sg10
F4.476
sa(dp195
g2
g169
sg4
I652
sg5
F3.091
sg6
F4.797
sg7
F0.172
sg8
S"H4'"
p196
sg31
g32
sg10
F4.368
sa(dp197
g2
g169
sg4
I988
sg5
F4.195
sg6
F6.476
sg7
F0.313
sg8
S'H5'
p198
sg31
g32
sg10
F5.47
sa(dp199
g2
g169
sg4
I464
sg5
F3.133
sg6
F4.798
sg7
F0.253
sg8
S"H5'"
p200
sg31
g32
sg10
F4.253
sa(dp201
g2
g169
sg4
I504
sg5
F3.01
sg6
F4.727
sg7
F0.226
sg8
S"H5''"
p202
sg31
g32
sg10
F4.163
sa(dp203
g2
g169
sg4
I1010
sg5
F6.88
sg6
F8.522
sg7
F0.199
sg8
S'H6'
p204
sg31
g32
sg10
F7.754
sa(dp205
g2
g169
sg4
I27
sg5
F4.08
sg6
F8.906
sg7
F1.25
sg8
S"HO2'"
p206
sg31
g32
sg10
F6.498
sa(dp207
g2
g169
sg4
I136
sg5
F139.494
sg6
F167.2
sg7
F8.008
sg8
S'N1'
p208
sg10
F150.427
sa(dp209
g2
g169
sg4
I380
sg5
F154.363
sg6
F165.283
sg7
F2.252
sg8
S'N3'
p210
sg10
F160.774
sa(dp211
g2
g169
sg4
I93
sg5
F-5.2
sg6
F1.577
sg7
F1.563
sg8
g65
sg10
F-3.339
sa.