(lp0
(dp1
S'comp_id'
p2
S'A'
p3
sS'count'
p4
I776
sS'min'
p5
F84.233
sS'max'
p6
F130.385
sS'std'
p7
F3.816
sS'atom_id'
p8
S"C1'"
p9
sS'avg'
p10
F91.748
sS'desc'
p11
S'isolated'
p12
sa(dp13
g2
g3
sg4
I807
sg5
F0.0
sg6
F167.71
sg7
F7.874
sg8
S'C2'
p14
sg10
F152.392
sg11
S'aroma'
p15
sa(dp16
g2
g3
sg4
I524
sg5
F4.74587
sg6
F89.1
sg7
F5.63
sg8
S"C2'"
p17
sg10
F74.802
sg11
g12
sa(dp18
g2
g3
sg4
I485
sg5
F0.0
sg6
F90.06
sg7
F4.18
sg8
S"C3'"
p19
sg10
F73.219
sg11
g12
sa(dp20
g2
g3
sg4
I20
sg5
F0.0
sg6
F151.893
sg7
F60.365
sg8
S'C4'
p21
sg10
F117.639
sg11
g15
sa(dp22
g2
g3
sg4
I467
sg5
F0.0
sg6
F87.994
sg7
F4.368
sg8
S"C4'"
p23
sg10
F82.267
sg11
g12
sa(dp24
g2
g3
sg4
I20
sg5
F0.0
sg6
F153.63
sg7
F50.055
sg8
S'C5'
p25
sg10
F93.389
sg11
g12
sa(dp26
g2
g3
sg4
I400
sg5
F0.0
sg6
F97.12
sg7
F5.039
sg8
S"C5'"
p27
sg10
F65.655
sg11
g12
sa(dp28
g2
g3
sg4
I22
sg5
F0.0
sg6
F159.6
sg7
F61.262
sg8
S'C6'
p29
sg10
F126.772
sg11
g15
sa(dp30
g2
g3
sg4
I799
sg5
F0.0
sg6
F144.047
sg7
F9.363
sg8
S'C8'
p31
sg10
F138.623
sg11
g15
sa(dp32
g2
g3
sg4
I1238
sg5
F3.699
sg6
F7.198
sg7
F0.228
sg8
S"H1'"
p33
sg10
F5.889
sg11
g12
sa(dp34
g2
g3
sg4
I1252
sg5
F0.0
sg6
F9.385
sg7
F0.478
sg8
S'H2'
p35
sg10
F7.65
sg11
g15
sa(dp36
g2
g3
sg4
I1072
sg5
F3.608
sg6
F5.907
sg7
F0.227
sg8
S"H2'"
p37
sg10
F4.592
sg11
g12
sa(dp38
g2
g3
sg4
I985
sg5
F3.911
sg6
F5.45
sg7
F0.209
sg8
S"H3'"
p39
sg10
F4.631
sg11
g12
sa(dp40
g2
g3
sg4
I855
sg5
F0.0
sg6
F5.29
sg7
F0.267
sg8
S"H4'"
p41
sg10
F4.459
sg11
g12
sa(dp42
g2
g3
sg4
I647
sg5
F0.0
sg6
F4.942
sg7
F0.283
sg8
S"H5'"
p43
sg10
F4.287
sg11
S'geminal'
p44
sa(dp45
g2
g3
sg4
I626
sg5
F0.0
sg6
F4.8
sg7
F0.262
sg8
S"H5''"
p46
sg10
F4.186
sg11
g44
sa(dp47
g2
g3
sg4
I260
sg5
F0.0
sg6
F10.387
sg7
F1.193
sg8
S'H61'
p48
sg10
F7.434
sg11
g44
sa(dp49
g2
g3
sg4
I237
sg5
F0.0
sg6
F9.206
sg7
F1.092
sg8
S'H62'
p50
sg10
F6.686
sg11
g44
sa(dp51
g2
g3
sg4
I1219
sg5
F6.999
sg6
F9.244
sg7
F0.287
sg8
S'H8'
p52
sg10
F8.012
sg11
g15
sa(dp53
g2
g3
sg4
I42
sg5
F4.27
sg6
F7.749
sg7
F1.086
sg8
S"HO2'"
p54
sg10
F6.095
sg11
g12
sa(dp55
g2
g3
sg4
I216
sg5
F0.0
sg6
F229.7
sg7
F32.895
sg8
S'N1'
p56
sg10
F215.088
sg11
g15
sa(dp57
g2
g3
sg4
I172
sg5
F0.0
sg6
F231.077
sg7
F32.912
sg8
S'N3'
p58
sg10
F210.063
sg11
g15
sa(dp59
g2
g3
sg4
I132
sg5
F0.0
sg6
F97.01
sg7
F14.456
sg8
S'N6'
p60
sg10
F79.319
sg11
g12
sa(dp61
g2
g3
sg4
I126
sg5
F0.0
sg6
F237.1
sg7
F40.636
sg8
S'N7'
p62
sg10
F223.134
sg11
g15
sa(dp63
g2
g3
sg4
I131
sg5
F0.0
sg6
F176.8
sg7
F29.456
sg8
S'N9'
p64
sg10
F164.887
sg11
g15
sa(dp65
g2
g3
sg4
I122
sg5
F-5.085
sg6
F2.426
sg7
F1.69
sg8
S'P'
p66
sg10
F-2.884
sg11
g12
sa(dp67
g2
S'C'
p68
sg4
I883
sg5
F84.0
sg6
F118.952
sg7
F2.183
sg8
S"C1'"
p69
sg10
F92.734
sg11
g12
sa(dp70
g2
g68
sg4
I57
sg5
F0.0
sg6
F189.36
sg7
F62.506
sg8
S'C2'
p71
sg10
F133.475
sg11
g15
sa(dp72
g2
g68
sg4
I666
sg5
F0.0
sg6
F93.761
sg7
F3.891
sg8
S"C2'"
p73
sg10
F75.099
sg11
g12
sa(dp74
g2
g68
sg4
I623
sg5
F0.0
sg6
F99.623
sg7
F4.045
sg8
S"C3'"
p75
sg10
F72.125
sg11
g12
sa(dp76
g2
g68
sg4
I70
sg5
F0.0
sg6
F169.52
sg7
F56.198
sg8
S'C4'
p77
sg10
F144.905
sg11
g15
sa(dp78
g2
g68
sg4
I581
sg5
F0.0
sg6
F86.998
sg7
F6.204
sg8
S"C4'"
p79
sg10
F81.481
sg11
g12
sa(dp80
g2
g68
sg4
I879
sg5
F0.0
sg6
F141.052
sg7
F4.795
sg8
S'C5'
p81
sg10
F97.375
sg11
g15
sa(dp82
g2
g68
sg4
I488
sg5
F0.0
sg6
F97.47
sg7
F7.034
sg8
S"C5'"
p83
sg10
F64.252
sg11
g12
sa(dp84
g2
g68
sg4
I915
sg5
F117.604
sg6
F145.02
sg7
F2.168
sg8
S'C6'
p85
sg10
F140.867
sg11
g15
sa(dp86
g2
g68
sg4
I1492
sg5
F3.282
sg6
F6.424
sg7
F0.25
sg8
S"H1'"
p87
sg10
F5.551
sg11
g12
sa(dp88
g2
g68
sg4
I1280
sg5
F0.0
sg6
F5.068
sg7
F0.244
sg8
S"H2'"
p89
sg10
F4.324
sg11
g12
sa(dp90
g2
g68
sg4
I1145
sg5
F0.0
sg6
F5.633
sg7
F0.23
sg8
S"H3'"
p91
sg10
F4.402
sg11
g12
sa(dp92
g2
g68
sg4
I953
sg5
F0.0
sg6
F12.58
sg7
F0.388
sg8
S"H4'"
p93
sg10
F4.328
sg11
g12
sa(dp94
g2
g68
sg4
I818
sg5
F5.639
sg6
F10.38
sg7
F0.686
sg8
S'H41'
p95
sg10
F7.949
sg11
g44
sa(dp96
g2
g68
sg4
I798
sg5
F5.23
sg6
F9.057
sg7
F0.688
sg8
S'H42'
p97
sg10
F7.244
sg11
g44
sa(dp98
g2
g68
sg4
I1485
sg5
F4.195
sg6
F7.09
sg7
F0.285
sg8
S'H5'
p99
sg10
F5.478
sg11
g15
sa(dp100
g2
g68
sg4
I695
sg5
F0.0
sg6
F7.17
sg7
F0.394
sg8
S"H5'"
p101
sg10
F4.267
sg11
g44
sa(dp102
g2
g68
sg4
I727
sg5
F0.0
sg6
F5.036
sg7
F0.471
sg8
S"H5''"
p103
sg10
F4.082
sg11
g44
sa(dp104
g2
g68
sg4
I1509
sg5
F5.62
sg6
F8.46
sg7
F0.219
sg8
S'H6'
p105
sg10
F7.678
sg11
g15
sa(dp106
g2
g68
sg4
I63
sg5
F3.96
sg6
F9.7
sg7
F1.461
sg8
S"HO2'"
p107
sg10
F5.974
sg11
g12
sa(dp108
g2
g68
sg4
I178
sg5
F0.0
sg6
F178.834
sg7
F34.702
sg8
S'N1'
p109
sg10
F143.057
sg11
g15
sa(dp110
g2
g68
sg4
I155
sg5
F0.0
sg6
F204.3
sg7
F46.336
sg8
S'N3'
p111
sg10
F182.472
sg11
g15
sa(dp112
g2
g68
sg4
I318
sg5
F0.0
sg6
F104.5
sg7
F11.071
sg8
S'N4'
p113
sg10
F96.718
sg11
g12
sa(dp114
g2
g68
sg4
I159
sg5
F-5.127
sg6
F0.62
sg7
F1.643
sg8
g66
sg10
F-3.135
sg11
g12
sa(dp115
g2
S'G'
p116
sg4
I1021
sg5
F79.8
sg6
F95.05
sg7
F1.976
sg8
S"C1'"
p117
sg10
F91.514
sg11
g12
sa(dp118
g2
g116
sg4
I42
sg5
F0.0
sg6
F162.5
sg7
F64.224
sg8
S'C2'
p119
sg10
F121.304
sg11
g15
sa(dp120
g2
g116
sg4
I761
sg5
F0.0
sg6
F85.1
sg7
F3.538
sg8
S"C2'"
p121
sg10
F74.73
sg11
g12
sa(dp122
g2
g116
sg4
I703
sg5
F0.0
sg6
F84.16672
sg7
F3.819
sg8
S"C3'"
p123
sg10
F73.257
sg11
g12
sa(dp124
g2
g116
sg4
I31
sg5
F0.0
sg6
F158.62
sg7
F69.841
sg8
S'C4'
p125
sg10
F107.381
sg11
g15
sa(dp126
g2
g116
sg4
I670
sg5
F72.079
sg6
F96.1
sg7
F2.325
sg8
S"C4'"
p127
sg10
F82.421
sg11
g12
sa(dp128
g2
g116
sg4
I46
sg5
F0.0
sg6
F167.24
sg7
F51.815
sg8
S'C5'
p129
sg10
F98.851
sg11
g15
sa(dp130
g2
g116
sg4
I595
sg5
F50.36
sg6
F97.91
sg7
F4.615
sg8
S"C5'"
p131
sg10
F66.03
sg11
g12
sa(dp132
g2
g116
sg4
I69
sg5
F0.0
sg6
F162.394
sg7
F54.122
sg8
S'C6'
p133
sg10
F137.831
sg11
g15
sa(dp134
g2
g116
sg4
I1165
sg5
F0.0
sg6
F143.88
sg7
F5.55
sg8
S'C8'
p135
sg10
F136.301
sg11
g15
sa(dp136
g2
g116
sg4
I1298
sg5
F6.09
sg6
F13.971
sg7
F0.974
sg8
S'H1'
p137
sg10
F12.347
sg11
g12
sa(dp138
g2
g116
sg4
I1819
sg5
F3.41
sg6
F7.618
sg7
F0.334
sg8
S"H1'"
p139
sg10
F5.664
sg11
g12
sa(dp140
g2
g116
sg4
I1559
sg5
F3.256
sg6
F6.299
sg7
F0.255
sg8
S"H2'"
p141
sg10
F4.575
sg11
g12
sa(dp142
g2
g116
sg4
I389
sg5
F0.0
sg6
F9.391
sg7
F1.466
sg8
S'H21'
p143
sg10
F7.366
sg11
g44
sa(dp144
g2
g116
sg4
I374
sg5
F0.0
sg6
F9.055
sg7
F1.244
sg8
S'H22'
p145
sg10
F6.301
sg11
g44
sa(dp146
g2
g116
sg4
I1428
sg5
F3.798
sg6
F5.775
sg7
F0.255
sg8
S"H3'"
p147
sg10
F4.552
sg11
g12
sa(dp148
g2
g116
sg4
I1195
sg5
F0.0
sg6
F5.106
sg7
F0.231
sg8
S"H4'"
p149
sg10
F4.418
sg11
g12
sa(dp150
g2
g116
sg4
I989
sg5
F2.888
sg6
F5.423
sg7
F0.229
sg8
S"H5'"
p151
sg10
F4.262
sg11
g44
sa(dp152
g2
g116
sg4
I982
sg5
F2.55
sg6
F5.11
sg7
F0.235
sg8
S"H5''"
p153
sg10
F4.179
sg11
g44
sa(dp154
g2
g116
sg4
I1853
sg5
F0.0
sg6
F8.625
sg7
F0.397
sg8
S'H8'
p155
sg10
F7.595
sg11
g15
sa(dp156
g2
g116
sg4
I46
sg5
F4.4
sg6
F7.097
sg7
F1.127
sg8
S"HO2'"
p157
sg10
F6.055
sg11
g12
sa(dp158
g2
g116
sg4
I750
sg5
F0.0
sg6
F166.07
sg7
F14.238
sg8
S'N1'
p159
sg10
F145.335
sg11
g15
sa(dp160
g2
g116
sg4
I119
sg5
F0.0
sg6
F81.06
sg7
F18.86
sg8
S'N2'
p161
sg10
F69.643
sg11
g12
sa(dp162
g2
g116
sg4
I24
sg5
F0.0
sg6
F234.1
sg7
F81.464
sg8
S'N3'
p163
sg10
F95.288
sg11
g12
sa(dp164
g2
g116
sg4
I161
sg5
F0.0
sg6
F238.055
sg7
F53.859
sg8
S'N7'
p165
sg10
F220.116
sg11
g15
sa(dp166
g2
g116
sg4
I220
sg5
F0.0
sg6
F176.4
sg7
F33.685
sg8
S'N9'
p167
sg10
F162.518
sg11
g15
sa(dp168
g2
g116
sg4
I165
sg5
F-5.243
sg6
F0.56
sg7
F1.604
sg8
g66
sg10
F-2.747
sg11
g12
sa(dp169
g2
S'U'
p170
sg4
I776
sg5
F80.62447
sg6
F96.3
sg7
F2.153
sg8
S"C1'"
p171
sg10
F91.977
sg11
g12
sa(dp172
g2
g170
sg4
I61
sg5
F0.0
sg6
F183.2
sg7
F43.292
sg8
S'C2'
p173
sg10
F141.583
sg11
g15
sa(dp174
g2
g170
sg4
I555
sg5
F0.0
sg6
F83.0
sg7
F3.635
sg8
S"C2'"
p175
sg10
F74.57
sg11
g12
sa(dp176
g2
g170
sg4
I496
sg5
F0.0
sg6
F80.528
sg7
F4.163
sg8
S"C3'"
p177
sg10
F73.052
sg11
g12
sa(dp178
g2
g170
sg4
I66
sg5
F0.0
sg6
F169.7
sg7
F44.639
sg8
S'C4'
p179
sg10
F154.636
sg11
g15
sa(dp180
g2
g170
sg4
I486
sg5
F0.0
sg6
F94.42
sg7
F4.335
sg8
S"C4'"
p181
sg10
F82.335
sg11
g12
sa(dp182
g2
g170
sg4
I720
sg5
F0.0
sg6
F154.13
sg7
F7.513
sg8
S'C5'
p183
sg10
F102.833
sg11
g15
sa(dp184
g2
g170
sg4
I407
sg5
F0.0
sg6
F98.027
sg7
F6.795
sg8
S"C5'"
p185
sg10
F65.255
sg11
g12
sa(dp186
g2
g170
sg4
I757
sg5
F0.0
sg6
F169.95
sg7
F6.577
sg8
S'C6'
p187
sg10
F140.88
sg11
g15
sa(dp188
g2
g170
sg4
I1181
sg5
F3.69
sg6
F6.56
sg7
F0.251
sg8
S"H1'"
p189
sg10
F5.613
sg11
g12
sa(dp190
g2
g170
sg4
I1026
sg5
F0.0
sg6
F6.626
sg7
F0.285
sg8
S"H2'"
p191
sg10
F4.368
sg11
g12
sa(dp192
g2
g170
sg4
I713
sg5
F1.2
sg6
F154.54024
sg7
F5.45
sg8
S'H3'
p193
sg10
F13.298
sg11
g12
sa(dp194
g2
g170
sg4
I893
sg5
F0.0
sg6
F7.826
sg7
F0.261
sg8
S"H3'"
p195
sg10
F4.472
sg11
g12
sa(dp196
g2
g170
sg4
I773
sg5
F0.0
sg6
F4.82
sg7
F0.235
sg8
S"H4'"
p197
sg10
F4.364
sg11
g12
sa(dp198
g2
g170
sg4
I1187
sg5
F4.195
sg6
F7.83
sg7
F0.314
sg8
S'H5'
p199
sg10
F5.474
sg11
g15
sa(dp200
g2
g170
sg4
I558
sg5
F0.0
sg6
F4.798
sg7
F0.307
sg8
S"H5'"
p201
sg10
F4.241
sg11
g44
sa(dp202
g2
g170
sg4
I578
sg5
F0.0
sg6
F4.727
sg7
F0.282
sg8
S"H5''"
p203
sg10
F4.155
sg11
g44
sa(dp204
g2
g170
sg4
I1210
sg5
F5.81
sg6
F8.522
sg7
F0.207
sg8
S'H6'
p205
sg10
F7.752
sg11
g15
sa(dp206
g2
g170
sg4
I32
sg5
F4.08
sg6
F9.739
sg7
F1.509
sg8
S"HO2'"
p207
sg10
F6.316
sg11
g12
sa(dp208
g2
g170
sg4
I152
sg5
F0.0
sg6
F192.14
sg7
F29.627
sg8
S'N1'
p209
sg10
F147.63
sg11
g15
sa(dp210
g2
g170
sg4
I442
sg5
F0.0
sg6
F167.30324
sg7
F18.585
sg8
S'N3'
p211
sg10
F158.552
sg11
g15
sa(dp212
g2
g170
sg4
I5
sg5
F0.0
sg6
F0.0
sg7
F0.0
sg8
S'O4'
p213
sg10
F0.0
sg11
g12
sa(dp214
g2
g170
sg4
I111
sg5
F-5.2
sg6
F1.577
sg7
F1.784
sg8
g66
sg10
F-2.966
sg11
g12
sa.