(lp0
(dp1
S'comp_id'
p2
S'A'
p3
sS'count'
p4
I776
sS'major'
p5
I01
sS'min'
p6
F84.233
sS'max'
p7
F130.385
sS'std'
p8
F3.816
sS'atom_id'
p9
S"C1'"
p10
sS'avg'
p11
F91.748
sS'norm_freq'
p12
F0.62
sS'desc'
p13
S'isolated'
p14
sa(dp15
g2
g3
sg4
I807
sg5
I01
sg6
F0.0
sg7
F167.71
sg8
F7.874
sg9
S'C2'
p16
sg11
F152.392
sg12
F0.645
sg13
S'aroma'
p17
sa(dp18
g2
g3
sg4
I524
sg5
I01
sg6
F4.74587
sg7
F89.1
sg8
F5.63
sg9
S"C2'"
p19
sg11
F74.802
sg12
F0.419
sg13
g14
sa(dp20
g2
g3
sg4
I485
sg5
I01
sg6
F0.0
sg7
F90.06
sg8
F4.18
sg9
S"C3'"
p21
sg11
F73.219
sg12
F0.387
sg13
g14
sa(dp22
g2
g3
sg4
I20
sg5
I00
sg6
F0.0
sg7
F151.893
sg8
F60.365
sg9
S'C4'
p23
sg11
F117.639
sg12
F0.016
sg13
g17
sa(dp24
g2
g3
sg4
I467
sg5
I01
sg6
F0.0
sg7
F87.994
sg8
F4.368
sg9
S"C4'"
p25
sg11
F82.267
sg12
F0.373
sg13
g14
sa(dp26
g2
g3
sg4
I20
sg5
I00
sg6
F0.0
sg7
F153.63
sg8
F50.055
sg9
S'C5'
p27
sg11
F93.389
sg12
F0.016
sg13
g14
sa(dp28
g2
g3
sg4
I400
sg5
I01
sg6
F0.0
sg7
F97.12
sg8
F5.039
sg9
S"C5'"
p29
sg11
F65.655
sg12
F0.319
sg13
g14
sa(dp30
g2
g3
sg4
I22
sg5
I00
sg6
F0.0
sg7
F159.6
sg8
F61.262
sg9
S'C6'
p31
sg11
F126.772
sg12
F0.018
sg13
g17
sa(dp32
g2
g3
sg4
I799
sg5
I01
sg6
F0.0
sg7
F144.047
sg8
F9.363
sg9
S'C8'
p33
sg11
F138.623
sg12
F0.638
sg13
g17
sa(dp34
g2
g3
sg4
I1238
sg5
I01
sg6
F3.699
sg7
F7.198
sg8
F0.228
sg9
S"H1'"
p35
sg11
F5.889
sg12
F0.989
sg13
g14
sa(dp36
g2
g3
sg4
I1252
sg5
I01
sg6
F0.0
sg7
F9.385
sg8
F0.478
sg9
S'H2'
p37
sg11
F7.65
sg12
F1.0
sg13
g17
sa(dp38
g2
g3
sg4
I1072
sg5
I01
sg6
F3.608
sg7
F5.907
sg8
F0.227
sg9
S"H2'"
p39
sg11
F4.592
sg12
F0.856
sg13
g14
sa(dp40
g2
g3
sg4
I985
sg5
I01
sg6
F3.911
sg7
F5.45
sg8
F0.209
sg9
S"H3'"
p41
sg11
F4.631
sg12
F0.787
sg13
g14
sa(dp42
g2
g3
sg4
I855
sg5
I01
sg6
F0.0
sg7
F5.29
sg8
F0.267
sg9
S"H4'"
p43
sg11
F4.459
sg12
F0.683
sg13
g14
sa(dp44
g2
g3
sg4
I647
sg5
I01
sg6
F0.0
sg7
F4.942
sg8
F0.283
sg9
S"H5'"
p45
sg11
F4.287
sg12
F0.517
sg13
S'geminal'
p46
sa(dp47
g2
g3
sg4
I626
sg5
I01
sg6
F0.0
sg7
F4.8
sg8
F0.262
sg9
S"H5''"
p48
sg11
F4.186
sg12
F0.5
sg13
g46
sa(dp49
g2
g3
sg4
I260
sg5
I00
sg6
F0.0
sg7
F10.387
sg8
F1.193
sg9
S'H61'
p50
sg11
F7.434
sg12
F0.208
sg13
g46
sa(dp51
g2
g3
sg4
I237
sg5
I00
sg6
F0.0
sg7
F9.206
sg8
F1.092
sg9
S'H62'
p52
sg11
F6.686
sg12
F0.189
sg13
g46
sa(dp53
g2
g3
sg4
I1219
sg5
I01
sg6
F6.999
sg7
F9.244
sg8
F0.287
sg9
S'H8'
p54
sg11
F8.012
sg12
F0.974
sg13
g17
sa(dp55
g2
g3
sg4
I42
sg5
I00
sg6
F4.27
sg7
F7.749
sg8
F1.086
sg9
S"HO2'"
p56
sg11
F6.095
sg12
F0.034
sg13
g14
sa(dp57
g2
g3
sg4
I216
sg5
I00
sg6
F0.0
sg7
F229.7
sg8
F32.895
sg9
S'N1'
p58
sg11
F215.088
sg12
F0.173
sg13
g17
sa(dp59
g2
g3
sg4
I172
sg5
I00
sg6
F0.0
sg7
F231.077
sg8
F32.912
sg9
S'N3'
p60
sg11
F210.063
sg12
F0.137
sg13
g17
sa(dp61
g2
g3
sg4
I132
sg5
I00
sg6
F0.0
sg7
F97.01
sg8
F14.456
sg9
S'N6'
p62
sg11
F79.319
sg12
F0.105
sg13
g14
sa(dp63
g2
g3
sg4
I126
sg5
I00
sg6
F0.0
sg7
F237.1
sg8
F40.636
sg9
S'N7'
p64
sg11
F223.134
sg12
F0.101
sg13
g17
sa(dp65
g2
g3
sg4
I131
sg5
I00
sg6
F0.0
sg7
F176.8
sg8
F29.456
sg9
S'N9'
p66
sg11
F164.887
sg12
F0.105
sg13
g17
sa(dp67
g2
g3
sg4
I122
sg5
I00
sg6
F-5.085
sg7
F2.426
sg8
F1.69
sg9
S'P'
p68
sg11
F-2.884
sg12
F0.097
sg13
g14
sa(dp69
g2
S'C'
p70
sg4
I883
sg5
I01
sg6
F84.0
sg7
F118.952
sg8
F2.183
sg9
S"C1'"
p71
sg11
F92.734
sg12
F0.585
sg13
g14
sa(dp72
g2
g70
sg4
I57
sg5
I00
sg6
F0.0
sg7
F189.36
sg8
F62.506
sg9
S'C2'
p73
sg11
F133.475
sg12
F0.038
sg13
g17
sa(dp74
g2
g70
sg4
I666
sg5
I01
sg6
F0.0
sg7
F93.761
sg8
F3.891
sg9
S"C2'"
p75
sg11
F75.099
sg12
F0.441
sg13
g14
sa(dp76
g2
g70
sg4
I623
sg5
I01
sg6
F0.0
sg7
F99.623
sg8
F4.045
sg9
S"C3'"
p77
sg11
F72.125
sg12
F0.413
sg13
g14
sa(dp78
g2
g70
sg4
I70
sg5
I00
sg6
F0.0
sg7
F169.52
sg8
F56.198
sg9
S'C4'
p79
sg11
F144.905
sg12
F0.046
sg13
g17
sa(dp80
g2
g70
sg4
I581
sg5
I01
sg6
F0.0
sg7
F86.998
sg8
F6.204
sg9
S"C4'"
p81
sg11
F81.481
sg12
F0.385
sg13
g14
sa(dp82
g2
g70
sg4
I879
sg5
I01
sg6
F0.0
sg7
F141.052
sg8
F4.795
sg9
S'C5'
p83
sg11
F97.375
sg12
F0.583
sg13
g17
sa(dp84
g2
g70
sg4
I488
sg5
I01
sg6
F0.0
sg7
F97.47
sg8
F7.034
sg9
S"C5'"
p85
sg11
F64.252
sg12
F0.323
sg13
g14
sa(dp86
g2
g70
sg4
I915
sg5
I01
sg6
F117.604
sg7
F145.02
sg8
F2.168
sg9
S'C6'
p87
sg11
F140.867
sg12
F0.606
sg13
g17
sa(dp88
g2
g70
sg4
I1492
sg5
I01
sg6
F3.282
sg7
F6.424
sg8
F0.25
sg9
S"H1'"
p89
sg11
F5.551
sg12
F0.989
sg13
g14
sa(dp90
g2
g70
sg4
I1280
sg5
I01
sg6
F0.0
sg7
F5.068
sg8
F0.244
sg9
S"H2'"
p91
sg11
F4.324
sg12
F0.848
sg13
g14
sa(dp92
g2
g70
sg4
I1145
sg5
I01
sg6
F0.0
sg7
F5.633
sg8
F0.23
sg9
S"H3'"
p93
sg11
F4.402
sg12
F0.759
sg13
g14
sa(dp94
g2
g70
sg4
I953
sg5
I01
sg6
F0.0
sg7
F12.58
sg8
F0.388
sg9
S"H4'"
p95
sg11
F4.328
sg12
F0.632
sg13
g14
sa(dp96
g2
g70
sg4
I818
sg5
I01
sg6
F5.639
sg7
F10.38
sg8
F0.686
sg9
S'H41'
p97
sg11
F7.949
sg12
F0.542
sg13
g46
sa(dp98
g2
g70
sg4
I798
sg5
I01
sg6
F5.23
sg7
F9.057
sg8
F0.688
sg9
S'H42'
p99
sg11
F7.244
sg12
F0.529
sg13
g46
sa(dp100
g2
g70
sg4
I1485
sg5
I01
sg6
F4.195
sg7
F7.09
sg8
F0.285
sg9
S'H5'
p101
sg11
F5.478
sg12
F0.984
sg13
g17
sa(dp102
g2
g70
sg4
I695
sg5
I01
sg6
F0.0
sg7
F7.17
sg8
F0.394
sg9
S"H5'"
p103
sg11
F4.267
sg12
F0.461
sg13
g46
sa(dp104
g2
g70
sg4
I727
sg5
I01
sg6
F0.0
sg7
F5.036
sg8
F0.471
sg9
S"H5''"
p105
sg11
F4.082
sg12
F0.482
sg13
g46
sa(dp106
g2
g70
sg4
I1509
sg5
I01
sg6
F5.62
sg7
F8.46
sg8
F0.219
sg9
S'H6'
p107
sg11
F7.678
sg12
F1.0
sg13
g17
sa(dp108
g2
g70
sg4
I63
sg5
I00
sg6
F3.96
sg7
F9.7
sg8
F1.461
sg9
S"HO2'"
p109
sg11
F5.974
sg12
F0.042
sg13
g14
sa(dp110
g2
g70
sg4
I178
sg5
I00
sg6
F0.0
sg7
F178.834
sg8
F34.702
sg9
S'N1'
p111
sg11
F143.057
sg12
F0.118
sg13
g17
sa(dp112
g2
g70
sg4
I155
sg5
I00
sg6
F0.0
sg7
F204.3
sg8
F46.336
sg9
S'N3'
p113
sg11
F182.472
sg12
F0.103
sg13
g17
sa(dp114
g2
g70
sg4
I318
sg5
I00
sg6
F0.0
sg7
F104.5
sg8
F11.071
sg9
S'N4'
p115
sg11
F96.718
sg12
F0.211
sg13
g14
sa(dp116
g2
g70
sg4
I159
sg5
I00
sg6
F-5.127
sg7
F0.62
sg8
F1.643
sg9
g68
sg11
F-3.135
sg12
F0.105
sg13
g14
sa(dp117
g2
S'G'
p118
sg4
I1021
sg5
I01
sg6
F79.8
sg7
F95.05
sg8
F1.976
sg9
S"C1'"
p119
sg11
F91.514
sg12
F0.551
sg13
g14
sa(dp120
g2
g118
sg4
I42
sg5
I00
sg6
F0.0
sg7
F162.5
sg8
F64.224
sg9
S'C2'
p121
sg11
F121.304
sg12
F0.023
sg13
g17
sa(dp122
g2
g118
sg4
I761
sg5
I01
sg6
F0.0
sg7
F85.1
sg8
F3.538
sg9
S"C2'"
p123
sg11
F74.73
sg12
F0.411
sg13
g14
sa(dp124
g2
g118
sg4
I703
sg5
I01
sg6
F0.0
sg7
F84.16672
sg8
F3.819
sg9
S"C3'"
p125
sg11
F73.257
sg12
F0.379
sg13
g14
sa(dp126
g2
g118
sg4
I31
sg5
I00
sg6
F0.0
sg7
F158.62
sg8
F69.841
sg9
S'C4'
p127
sg11
F107.381
sg12
F0.017
sg13
g17
sa(dp128
g2
g118
sg4
I670
sg5
I01
sg6
F72.079
sg7
F96.1
sg8
F2.325
sg9
S"C4'"
p129
sg11
F82.421
sg12
F0.362
sg13
g14
sa(dp130
g2
g118
sg4
I46
sg5
I00
sg6
F0.0
sg7
F167.24
sg8
F51.815
sg9
S'C5'
p131
sg11
F98.851
sg12
F0.025
sg13
g17
sa(dp132
g2
g118
sg4
I595
sg5
I01
sg6
F50.36
sg7
F97.91
sg8
F4.615
sg9
S"C5'"
p133
sg11
F66.03
sg12
F0.321
sg13
g14
sa(dp134
g2
g118
sg4
I69
sg5
I00
sg6
F0.0
sg7
F162.394
sg8
F54.122
sg9
S'C6'
p135
sg11
F137.831
sg12
F0.037
sg13
g17
sa(dp136
g2
g118
sg4
I1165
sg5
I01
sg6
F0.0
sg7
F143.88
sg8
F5.55
sg9
S'C8'
p137
sg11
F136.301
sg12
F0.629
sg13
g17
sa(dp138
g2
g118
sg4
I1298
sg5
I01
sg6
F6.09
sg7
F13.971
sg8
F0.974
sg9
S'H1'
p139
sg11
F12.347
sg12
F0.7
sg13
g14
sa(dp140
g2
g118
sg4
I1819
sg5
I01
sg6
F3.41
sg7
F7.618
sg8
F0.334
sg9
S"H1'"
p141
sg11
F5.664
sg12
F0.982
sg13
g14
sa(dp142
g2
g118
sg4
I1559
sg5
I01
sg6
F3.256
sg7
F6.299
sg8
F0.255
sg9
S"H2'"
p143
sg11
F4.575
sg12
F0.841
sg13
g14
sa(dp144
g2
g118
sg4
I389
sg5
I00
sg6
F0.0
sg7
F9.391
sg8
F1.466
sg9
S'H21'
p145
sg11
F7.366
sg12
F0.21
sg13
g46
sa(dp146
g2
g118
sg4
I374
sg5
I00
sg6
F0.0
sg7
F9.055
sg8
F1.244
sg9
S'H22'
p147
sg11
F6.301
sg12
F0.202
sg13
g46
sa(dp148
g2
g118
sg4
I1428
sg5
I01
sg6
F3.798
sg7
F5.775
sg8
F0.255
sg9
S"H3'"
p149
sg11
F4.552
sg12
F0.771
sg13
g14
sa(dp150
g2
g118
sg4
I1195
sg5
I01
sg6
F0.0
sg7
F5.106
sg8
F0.231
sg9
S"H4'"
p151
sg11
F4.418
sg12
F0.645
sg13
g14
sa(dp152
g2
g118
sg4
I989
sg5
I01
sg6
F2.888
sg7
F5.423
sg8
F0.229
sg9
S"H5'"
p153
sg11
F4.262
sg12
F0.534
sg13
g46
sa(dp154
g2
g118
sg4
I982
sg5
I01
sg6
F2.55
sg7
F5.11
sg8
F0.235
sg9
S"H5''"
p155
sg11
F4.179
sg12
F0.53
sg13
g46
sa(dp156
g2
g118
sg4
I1853
sg5
I01
sg6
F0.0
sg7
F8.625
sg8
F0.397
sg9
S'H8'
p157
sg11
F7.595
sg12
F1.0
sg13
g17
sa(dp158
g2
g118
sg4
I46
sg5
I00
sg6
F4.4
sg7
F7.097
sg8
F1.127
sg9
S"HO2'"
p159
sg11
F6.055
sg12
F0.025
sg13
g14
sa(dp160
g2
g118
sg4
I750
sg5
I01
sg6
F0.0
sg7
F166.07
sg8
F14.238
sg9
S'N1'
p161
sg11
F145.335
sg12
F0.405
sg13
g17
sa(dp162
g2
g118
sg4
I119
sg5
I00
sg6
F0.0
sg7
F81.06
sg8
F18.86
sg9
S'N2'
p163
sg11
F69.643
sg12
F0.064
sg13
g14
sa(dp164
g2
g118
sg4
I24
sg5
I00
sg6
F0.0
sg7
F234.1
sg8
F81.464
sg9
S'N3'
p165
sg11
F95.288
sg12
F0.013
sg13
g14
sa(dp166
g2
g118
sg4
I161
sg5
I00
sg6
F0.0
sg7
F238.055
sg8
F53.859
sg9
S'N7'
p167
sg11
F220.116
sg12
F0.087
sg13
g17
sa(dp168
g2
g118
sg4
I220
sg5
I00
sg6
F0.0
sg7
F176.4
sg8
F33.685
sg9
S'N9'
p169
sg11
F162.518
sg12
F0.119
sg13
g17
sa(dp170
g2
g118
sg4
I165
sg5
I00
sg6
F-5.243
sg7
F0.56
sg8
F1.604
sg9
g68
sg11
F-2.747
sg12
F0.089
sg13
g14
sa(dp171
g2
S'U'
p172
sg4
I776
sg5
I01
sg6
F80.62447
sg7
F96.3
sg8
F2.153
sg9
S"C1'"
p173
sg11
F91.977
sg12
F0.641
sg13
g14
sa(dp174
g2
g172
sg4
I61
sg5
I00
sg6
F0.0
sg7
F183.2
sg8
F43.292
sg9
S'C2'
p175
sg11
F141.583
sg12
F0.05
sg13
g17
sa(dp176
g2
g172
sg4
I555
sg5
I01
sg6
F0.0
sg7
F83.0
sg8
F3.635
sg9
S"C2'"
p177
sg11
F74.57
sg12
F0.459
sg13
g14
sa(dp178
g2
g172
sg4
I496
sg5
I01
sg6
F0.0
sg7
F80.528
sg8
F4.163
sg9
S"C3'"
p179
sg11
F73.052
sg12
F0.41
sg13
g14
sa(dp180
g2
g172
sg4
I66
sg5
I00
sg6
F0.0
sg7
F169.7
sg8
F44.639
sg9
S'C4'
p181
sg11
F154.636
sg12
F0.055
sg13
g17
sa(dp182
g2
g172
sg4
I486
sg5
I01
sg6
F0.0
sg7
F94.42
sg8
F4.335
sg9
S"C4'"
p183
sg11
F82.335
sg12
F0.402
sg13
g14
sa(dp184
g2
g172
sg4
I720
sg5
I01
sg6
F0.0
sg7
F154.13
sg8
F7.513
sg9
S'C5'
p185
sg11
F102.833
sg12
F0.595
sg13
g17
sa(dp186
g2
g172
sg4
I407
sg5
I01
sg6
F0.0
sg7
F98.027
sg8
F6.795
sg9
S"C5'"
p187
sg11
F65.255
sg12
F0.336
sg13
g14
sa(dp188
g2
g172
sg4
I757
sg5
I01
sg6
F0.0
sg7
F169.95
sg8
F6.577
sg9
S'C6'
p189
sg11
F140.88
sg12
F0.626
sg13
g17
sa(dp190
g2
g172
sg4
I1181
sg5
I01
sg6
F3.69
sg7
F6.56
sg8
F0.251
sg9
S"H1'"
p191
sg11
F5.613
sg12
F0.976
sg13
g14
sa(dp192
g2
g172
sg4
I1026
sg5
I01
sg6
F0.0
sg7
F6.626
sg8
F0.285
sg9
S"H2'"
p193
sg11
F4.368
sg12
F0.848
sg13
g14
sa(dp194
g2
g172
sg4
I713
sg5
I01
sg6
F1.2
sg7
F154.54024
sg8
F5.45
sg9
S'H3'
p195
sg11
F13.298
sg12
F0.589
sg13
g14
sa(dp196
g2
g172
sg4
I893
sg5
I01
sg6
F0.0
sg7
F7.826
sg8
F0.261
sg9
S"H3'"
p197
sg11
F4.472
sg12
F0.738
sg13
g14
sa(dp198
g2
g172
sg4
I773
sg5
I01
sg6
F0.0
sg7
F4.82
sg8
F0.235
sg9
S"H4'"
p199
sg11
F4.364
sg12
F0.639
sg13
g14
sa(dp200
g2
g172
sg4
I1187
sg5
I01
sg6
F4.195
sg7
F7.83
sg8
F0.314
sg9
S'H5'
p201
sg11
F5.474
sg12
F0.981
sg13
g17
sa(dp202
g2
g172
sg4
I558
sg5
I01
sg6
F0.0
sg7
F4.798
sg8
F0.307
sg9
S"H5'"
p203
sg11
F4.241
sg12
F0.461
sg13
g46
sa(dp204
g2
g172
sg4
I578
sg5
I01
sg6
F0.0
sg7
F4.727
sg8
F0.282
sg9
S"H5''"
p205
sg11
F4.155
sg12
F0.478
sg13
g46
sa(dp206
g2
g172
sg4
I1210
sg5
I01
sg6
F5.81
sg7
F8.522
sg8
F0.207
sg9
S'H6'
p207
sg11
F7.752
sg12
F1.0
sg13
g17
sa(dp208
g2
g172
sg4
I32
sg5
I00
sg6
F4.08
sg7
F9.739
sg8
F1.509
sg9
S"HO2'"
p209
sg11
F6.316
sg12
F0.026
sg13
g14
sa(dp210
g2
g172
sg4
I152
sg5
I00
sg6
F0.0
sg7
F192.14
sg8
F29.627
sg9
S'N1'
p211
sg11
F147.63
sg12
F0.126
sg13
g17
sa(dp212
g2
g172
sg4
I442
sg5
I01
sg6
F0.0
sg7
F167.30324
sg8
F18.585
sg9
S'N3'
p213
sg11
F158.552
sg12
F0.365
sg13
g17
sa(dp214
g2
g172
sg4
I5
sg5
I00
sg6
F0.0
sg7
F0.0
sg8
F0.0
sg9
S'O4'
p215
sg11
F0.0
sg12
F0.004
sg13
g14
sa(dp216
g2
g172
sg4
I111
sg5
I00
sg6
F-5.2
sg7
F1.577
sg8
F1.784
sg9
g68
sg11
F-2.966
sg12
F0.092
sg13
g14
sa.