(lp0
(dp1
S'comp_id'
p2
S'A'
p3
sS'count'
p4
I776
sS'min'
p5
F84.233
sS'max'
p6
F130.385
sS'std'
p7
F3.816
sS'atom_id'
p8
S"C1'"
p9
sS'avg'
p10
F91.748
sa(dp11
g2
g3
sg4
I807
sg5
F0.0
sg6
F167.71
sg7
F7.874
sg8
S'C2'
p12
sg10
F152.392
sa(dp13
g2
g3
sg4
I524
sg5
F4.74587
sg6
F89.1
sg7
F5.63
sg8
S"C2'"
p14
sg10
F74.802
sa(dp15
g2
g3
sg4
I485
sg5
F0.0
sg6
F90.06
sg7
F4.18
sg8
S"C3'"
p16
sg10
F73.219
sa(dp17
g2
g3
sg4
I20
sg5
F0.0
sg6
F151.893
sg7
F60.365
sg8
S'C4'
p18
sg10
F117.639
sa(dp19
g2
g3
sg4
I467
sg5
F0.0
sg6
F87.994
sg7
F4.368
sg8
S"C4'"
p20
sg10
F82.267
sa(dp21
g2
g3
sg4
I20
sg5
F0.0
sg6
F153.63
sg7
F50.055
sg8
S'C5'
p22
sg10
F93.389
sa(dp23
g2
g3
sg4
I400
sg5
F0.0
sg6
F97.12
sg7
F5.039
sg8
S"C5'"
p24
sg10
F65.655
sa(dp25
g2
g3
sg4
I22
sg5
F0.0
sg6
F159.6
sg7
F61.262
sg8
S'C6'
p26
sg10
F126.772
sa(dp27
g2
g3
sg4
I799
sg5
F0.0
sg6
F144.047
sg7
F9.363
sg8
S'C8'
p28
sg10
F138.623
sa(dp29
g2
g3
sg4
I1238
sg5
F3.699
sg6
F7.198
sg7
F0.228
sg8
S"H1'"
p30
sS'h_desc'
p31
S'isolated'
p32
sg10
F5.889
sa(dp33
g2
g3
sg4
I1252
sg5
F0.0
sg6
F9.385
sg7
F0.478
sg8
S'H2'
p34
sg31
g32
sg10
F7.65
sa(dp35
g2
g3
sg4
I1072
sg5
F3.608
sg6
F5.907
sg7
F0.227
sg8
S"H2'"
p36
sg31
g32
sg10
F4.592
sa(dp37
g2
g3
sg4
I985
sg5
F3.911
sg6
F5.45
sg7
F0.209
sg8
S"H3'"
p38
sg31
g32
sg10
F4.631
sa(dp39
g2
g3
sg4
I855
sg5
F0.0
sg6
F5.29
sg7
F0.267
sg8
S"H4'"
p40
sg31
g32
sg10
F4.459
sa(dp41
g2
g3
sg4
I647
sg5
F0.0
sg6
F4.942
sg7
F0.283
sg8
S"H5'"
p42
sg31
g32
sg10
F4.287
sa(dp43
g2
g3
sg4
I626
sg5
F0.0
sg6
F4.8
sg7
F0.262
sg8
S"H5''"
p44
sg31
g32
sg10
F4.186
sa(dp45
g2
g3
sg4
I260
sg5
F0.0
sg6
F10.387
sg7
F1.193
sg8
S'H61'
p46
sg31
S'genimal'
p47
sg10
F7.434
sa(dp48
g2
g3
sg4
I237
sg5
F0.0
sg6
F9.206
sg7
F1.092
sg8
S'H62'
p49
sg31
g47
sg10
F6.686
sa(dp50
g2
g3
sg4
I1219
sg5
F6.999
sg6
F9.244
sg7
F0.287
sg8
S'H8'
p51
sg31
g32
sg10
F8.012
sa(dp52
g2
g3
sg4
I42
sg5
F4.27
sg6
F7.749
sg7
F1.086
sg8
S"HO2'"
p53
sg31
g32
sg10
F6.095
sa(dp54
g2
g3
sg4
I216
sg5
F0.0
sg6
F229.7
sg7
F32.895
sg8
S'N1'
p55
sg10
F215.088
sa(dp56
g2
g3
sg4
I172
sg5
F0.0
sg6
F231.077
sg7
F32.912
sg8
S'N3'
p57
sg10
F210.063
sa(dp58
g2
g3
sg4
I132
sg5
F0.0
sg6
F97.01
sg7
F14.456
sg8
S'N6'
p59
sg10
F79.319
sa(dp60
g2
g3
sg4
I126
sg5
F0.0
sg6
F237.1
sg7
F40.636
sg8
S'N7'
p61
sg10
F223.134
sa(dp62
g2
g3
sg4
I131
sg5
F0.0
sg6
F176.8
sg7
F29.456
sg8
S'N9'
p63
sg10
F164.887
sa(dp64
g2
g3
sg4
I122
sg5
F-5.085
sg6
F2.426
sg7
F1.69
sg8
S'P'
p65
sg10
F-2.884
sa(dp66
g2
S'C'
p67
sg4
I883
sg5
F84.0
sg6
F118.952
sg7
F2.183
sg8
S"C1'"
p68
sg10
F92.734
sa(dp69
g2
g67
sg4
I57
sg5
F0.0
sg6
F189.36
sg7
F62.506
sg8
S'C2'
p70
sg10
F133.475
sa(dp71
g2
g67
sg4
I666
sg5
F0.0
sg6
F93.761
sg7
F3.891
sg8
S"C2'"
p72
sg10
F75.099
sa(dp73
g2
g67
sg4
I623
sg5
F0.0
sg6
F99.623
sg7
F4.045
sg8
S"C3'"
p74
sg10
F72.125
sa(dp75
g2
g67
sg4
I70
sg5
F0.0
sg6
F169.52
sg7
F56.198
sg8
S'C4'
p76
sg10
F144.905
sa(dp77
g2
g67
sg4
I581
sg5
F0.0
sg6
F86.998
sg7
F6.204
sg8
S"C4'"
p78
sg10
F81.481
sa(dp79
g2
g67
sg4
I879
sg5
F0.0
sg6
F141.052
sg7
F4.795
sg8
S'C5'
p80
sg10
F97.375
sa(dp81
g2
g67
sg4
I488
sg5
F0.0
sg6
F97.47
sg7
F7.034
sg8
S"C5'"
p82
sg10
F64.252
sa(dp83
g2
g67
sg4
I915
sg5
F117.604
sg6
F145.02
sg7
F2.168
sg8
S'C6'
p84
sg10
F140.867
sa(dp85
g2
g67
sg4
I1492
sg5
F3.282
sg6
F6.424
sg7
F0.25
sg8
S"H1'"
p86
sg31
g32
sg10
F5.551
sa(dp87
g2
g67
sg4
I1280
sg5
F0.0
sg6
F5.068
sg7
F0.244
sg8
S"H2'"
p88
sg31
g32
sg10
F4.324
sa(dp89
g2
g67
sg4
I1145
sg5
F0.0
sg6
F5.633
sg7
F0.23
sg8
S"H3'"
p90
sg31
g32
sg10
F4.402
sa(dp91
g2
g67
sg4
I953
sg5
F0.0
sg6
F12.58
sg7
F0.388
sg8
S"H4'"
p92
sg31
g32
sg10
F4.328
sa(dp93
g2
g67
sg4
I818
sg5
F5.639
sg6
F10.38
sg7
F0.686
sg8
S'H41'
p94
sg31
g47
sg10
F7.949
sa(dp95
g2
g67
sg4
I798
sg5
F5.23
sg6
F9.057
sg7
F0.688
sg8
S'H42'
p96
sg31
g47
sg10
F7.244
sa(dp97
g2
g67
sg4
I1485
sg5
F4.195
sg6
F7.09
sg7
F0.285
sg8
S'H5'
p98
sg31
g32
sg10
F5.478
sa(dp99
g2
g67
sg4
I695
sg5
F0.0
sg6
F7.17
sg7
F0.394
sg8
S"H5'"
p100
sg31
g32
sg10
F4.267
sa(dp101
g2
g67
sg4
I727
sg5
F0.0
sg6
F5.036
sg7
F0.471
sg8
S"H5''"
p102
sg31
g32
sg10
F4.082
sa(dp103
g2
g67
sg4
I1509
sg5
F5.62
sg6
F8.46
sg7
F0.219
sg8
S'H6'
p104
sg31
g32
sg10
F7.678
sa(dp105
g2
g67
sg4
I63
sg5
F3.96
sg6
F9.7
sg7
F1.461
sg8
S"HO2'"
p106
sg31
g32
sg10
F5.974
sa(dp107
g2
g67
sg4
I178
sg5
F0.0
sg6
F178.834
sg7
F34.702
sg8
S'N1'
p108
sg10
F143.057
sa(dp109
g2
g67
sg4
I155
sg5
F0.0
sg6
F204.3
sg7
F46.336
sg8
S'N3'
p110
sg10
F182.472
sa(dp111
g2
g67
sg4
I318
sg5
F0.0
sg6
F104.5
sg7
F11.071
sg8
S'N4'
p112
sg10
F96.718
sa(dp113
g2
g67
sg4
I159
sg5
F-5.127
sg6
F0.62
sg7
F1.643
sg8
g65
sg10
F-3.135
sa(dp114
g2
S'G'
p115
sg4
I1021
sg5
F79.8
sg6
F95.05
sg7
F1.976
sg8
S"C1'"
p116
sg10
F91.514
sa(dp117
g2
g115
sg4
I42
sg5
F0.0
sg6
F162.5
sg7
F64.224
sg8
S'C2'
p118
sg10
F121.304
sa(dp119
g2
g115
sg4
I761
sg5
F0.0
sg6
F85.1
sg7
F3.538
sg8
S"C2'"
p120
sg10
F74.73
sa(dp121
g2
g115
sg4
I703
sg5
F0.0
sg6
F84.16672
sg7
F3.819
sg8
S"C3'"
p122
sg10
F73.257
sa(dp123
g2
g115
sg4
I31
sg5
F0.0
sg6
F158.62
sg7
F69.841
sg8
S'C4'
p124
sg10
F107.381
sa(dp125
g2
g115
sg4
I670
sg5
F72.079
sg6
F96.1
sg7
F2.325
sg8
S"C4'"
p126
sg10
F82.421
sa(dp127
g2
g115
sg4
I46
sg5
F0.0
sg6
F167.24
sg7
F51.815
sg8
S'C5'
p128
sg10
F98.851
sa(dp129
g2
g115
sg4
I595
sg5
F50.36
sg6
F97.91
sg7
F4.615
sg8
S"C5'"
p130
sg10
F66.03
sa(dp131
g2
g115
sg4
I69
sg5
F0.0
sg6
F162.394
sg7
F54.122
sg8
S'C6'
p132
sg10
F137.831
sa(dp133
g2
g115
sg4
I1165
sg5
F0.0
sg6
F143.88
sg7
F5.55
sg8
S'C8'
p134
sg10
F136.301
sa(dp135
g2
g115
sg4
I1298
sg5
F6.09
sg6
F13.971
sg7
F0.974
sg8
S'H1'
p136
sg31
g32
sg10
F12.347
sa(dp137
g2
g115
sg4
I1819
sg5
F3.41
sg6
F7.618
sg7
F0.334
sg8
S"H1'"
p138
sg31
g32
sg10
F5.664
sa(dp139
g2
g115
sg4
I1559
sg5
F3.256
sg6
F6.299
sg7
F0.255
sg8
S"H2'"
p140
sg31
g32
sg10
F4.575
sa(dp141
g2
g115
sg4
I389
sg5
F0.0
sg6
F9.391
sg7
F1.466
sg8
S'H21'
p142
sg31
g47
sg10
F7.366
sa(dp143
g2
g115
sg4
I374
sg5
F0.0
sg6
F9.055
sg7
F1.244
sg8
S'H22'
p144
sg31
g47
sg10
F6.301
sa(dp145
g2
g115
sg4
I1428
sg5
F3.798
sg6
F5.775
sg7
F0.255
sg8
S"H3'"
p146
sg31
g32
sg10
F4.552
sa(dp147
g2
g115
sg4
I1195
sg5
F0.0
sg6
F5.106
sg7
F0.231
sg8
S"H4'"
p148
sg31
g32
sg10
F4.418
sa(dp149
g2
g115
sg4
I989
sg5
F2.888
sg6
F5.423
sg7
F0.229
sg8
S"H5'"
p150
sg31
g32
sg10
F4.262
sa(dp151
g2
g115
sg4
I982
sg5
F2.55
sg6
F5.11
sg7
F0.235
sg8
S"H5''"
p152
sg31
g32
sg10
F4.179
sa(dp153
g2
g115
sg4
I1853
sg5
F0.0
sg6
F8.625
sg7
F0.397
sg8
S'H8'
p154
sg31
g32
sg10
F7.595
sa(dp155
g2
g115
sg4
I46
sg5
F4.4
sg6
F7.097
sg7
F1.127
sg8
S"HO2'"
p156
sg31
g32
sg10
F6.055
sa(dp157
g2
g115
sg4
I750
sg5
F0.0
sg6
F166.07
sg7
F14.238
sg8
S'N1'
p158
sg10
F145.335
sa(dp159
g2
g115
sg4
I119
sg5
F0.0
sg6
F81.06
sg7
F18.86
sg8
S'N2'
p160
sg10
F69.643
sa(dp161
g2
g115
sg4
I24
sg5
F0.0
sg6
F234.1
sg7
F81.464
sg8
S'N3'
p162
sg10
F95.288
sa(dp163
g2
g115
sg4
I161
sg5
F0.0
sg6
F238.055
sg7
F53.859
sg8
S'N7'
p164
sg10
F220.116
sa(dp165
g2
g115
sg4
I220
sg5
F0.0
sg6
F176.4
sg7
F33.685
sg8
S'N9'
p166
sg10
F162.518
sa(dp167
g2
g115
sg4
I165
sg5
F-5.243
sg6
F0.56
sg7
F1.604
sg8
g65
sg10
F-2.747
sa(dp168
g2
S'U'
p169
sg4
I776
sg5
F80.62447
sg6
F96.3
sg7
F2.153
sg8
S"C1'"
p170
sg10
F91.977
sa(dp171
g2
g169
sg4
I61
sg5
F0.0
sg6
F183.2
sg7
F43.292
sg8
S'C2'
p172
sg10
F141.583
sa(dp173
g2
g169
sg4
I555
sg5
F0.0
sg6
F83.0
sg7
F3.635
sg8
S"C2'"
p174
sg10
F74.57
sa(dp175
g2
g169
sg4
I496
sg5
F0.0
sg6
F80.528
sg7
F4.163
sg8
S"C3'"
p176
sg10
F73.052
sa(dp177
g2
g169
sg4
I66
sg5
F0.0
sg6
F169.7
sg7
F44.639
sg8
S'C4'
p178
sg10
F154.636
sa(dp179
g2
g169
sg4
I486
sg5
F0.0
sg6
F94.42
sg7
F4.335
sg8
S"C4'"
p180
sg10
F82.335
sa(dp181
g2
g169
sg4
I720
sg5
F0.0
sg6
F154.13
sg7
F7.513
sg8
S'C5'
p182
sg10
F102.833
sa(dp183
g2
g169
sg4
I407
sg5
F0.0
sg6
F98.027
sg7
F6.795
sg8
S"C5'"
p184
sg10
F65.255
sa(dp185
g2
g169
sg4
I757
sg5
F0.0
sg6
F169.95
sg7
F6.577
sg8
S'C6'
p186
sg10
F140.88
sa(dp187
g2
g169
sg4
I1181
sg5
F3.69
sg6
F6.56
sg7
F0.251
sg8
S"H1'"
p188
sg31
g32
sg10
F5.613
sa(dp189
g2
g169
sg4
I1026
sg5
F0.0
sg6
F6.626
sg7
F0.285
sg8
S"H2'"
p190
sg31
g32
sg10
F4.368
sa(dp191
g2
g169
sg4
I713
sg5
F1.2
sg6
F154.54024
sg7
F5.45
sg8
S'H3'
p192
sg31
g32
sg10
F13.298
sa(dp193
g2
g169
sg4
I893
sg5
F0.0
sg6
F7.826
sg7
F0.261
sg8
S"H3'"
p194
sg31
g32
sg10
F4.472
sa(dp195
g2
g169
sg4
I773
sg5
F0.0
sg6
F4.82
sg7
F0.235
sg8
S"H4'"
p196
sg31
g32
sg10
F4.364
sa(dp197
g2
g169
sg4
I1187
sg5
F4.195
sg6
F7.83
sg7
F0.314
sg8
S'H5'
p198
sg31
g32
sg10
F5.474
sa(dp199
g2
g169
sg4
I558
sg5
F0.0
sg6
F4.798
sg7
F0.307
sg8
S"H5'"
p200
sg31
g32
sg10
F4.241
sa(dp201
g2
g169
sg4
I578
sg5
F0.0
sg6
F4.727
sg7
F0.282
sg8
S"H5''"
p202
sg31
g32
sg10
F4.155
sa(dp203
g2
g169
sg4
I1210
sg5
F5.81
sg6
F8.522
sg7
F0.207
sg8
S'H6'
p204
sg31
g32
sg10
F7.752
sa(dp205
g2
g169
sg4
I32
sg5
F4.08
sg6
F9.739
sg7
F1.509
sg8
S"HO2'"
p206
sg31
g32
sg10
F6.316
sa(dp207
g2
g169
sg4
I152
sg5
F0.0
sg6
F192.14
sg7
F29.627
sg8
S'N1'
p208
sg10
F147.63
sa(dp209
g2
g169
sg4
I442
sg5
F0.0
sg6
F167.30324
sg7
F18.585
sg8
S'N3'
p210
sg10
F158.552
sa(dp211
g2
g169
sg4
I5
sg5
F0.0
sg6
F0.0
sg7
F0.0
sg8
S'O4'
p212
sg10
F0.0
sa(dp213
g2
g169
sg4
I111
sg5
F-5.2
sg6
F1.577
sg7
F1.784
sg8
g65
sg10
F-2.966
sa.