(lp0
(dp1
S'comp_id'
p2
S'A'
p3
sS'count'
p4
I615
sS'major'
p5
I01
sS'min'
p6
F84.233
sS'max'
p7
F97.8
sS'std'
p8
F1.926
sS'atom_id'
p9
S"C1'"
p10
sS'avg'
p11
F91.3
sS'norm_freq'
p12
F0.59
sS'desc'
p13
S'isolated'
p14
sa(dp15
g2
g3
sg4
I667
sg5
I01
sg6
F97.11
sg7
F167.71
sg8
F3.293
sg9
S'C2'
p16
sg11
F153.177
sg12
F0.64
sg13
S'aroma'
p17
sa(dp18
g2
g3
sg4
I431
sg5
I01
sg6
F65.245
sg7
F89.1
sg8
F2.128
sg9
S"C2'"
p19
sg11
F75.114
sg12
F0.413
sg13
g14
sa(dp20
g2
g3
sg4
I400
sg5
I01
sg6
F62.835
sg7
F90.06
sg8
F2.58
sg9
S"C3'"
p21
sg11
F73.201
sg12
F0.384
sg13
g14
sa(dp22
g2
g3
sg4
I16
sg5
I00
sg6
F145.326
sg7
F151.893
sg8
F1.641
sg9
S'C4'
p23
sg11
F147.048
sg12
F0.015
sg13
g17
sa(dp24
g2
g3
sg4
I382
sg5
I01
sg6
F71.993
sg7
F87.994
sg8
F2.197
sg9
S"C4'"
p25
sg11
F82.271
sg12
F0.366
sg13
g14
sa(dp26
g2
g3
sg4
I16
sg5
I00
sg6
F66.277
sg7
F153.63
sg8
F16.323
sg9
S'C5'
p27
sg11
F116.736
sg12
F0.015
sg13
g17
sa(dp28
g2
g3
sg4
I338
sg5
I01
sg6
F51.143
sg7
F97.12
sg8
F4.046
sg9
S"C5'"
p29
sg11
F65.758
sg12
F0.324
sg13
g14
sa(dp30
g2
g3
sg4
I18
sg5
I00
sg6
F140.86
sg7
F159.6
sg8
F3.785
sg9
S'C6'
p31
sg11
F154.943
sg12
F0.017
sg13
g17
sa(dp32
g2
g3
sg4
I659
sg5
I01
sg6
F92.811
sg7
F144.047
sg8
F2.878
sg9
S'C8'
p33
sg11
F139.508
sg12
F0.632
sg13
g17
sa(dp34
g2
g3
sg4
I1007
sg5
I01
sg6
F4.558
sg7
F6.7
sg8
F0.215
sg9
S"H1'"
p35
sg11
F5.892
sg12
F0.965
sg13
g14
sa(dp36
g2
g3
sg4
I1043
sg5
I01
sg6
F6.077
sg7
F9.385
sg8
F0.431
sg9
S'H2'
p37
sg11
F7.65
sg12
F1.0
sg13
g17
sa(dp38
g2
g3
sg4
I878
sg5
I01
sg6
F3.608
sg7
F5.907
sg8
F0.225
sg9
S"H2'"
p39
sg11
F4.59
sg12
F0.842
sg13
g14
sa(dp40
g2
g3
sg4
I800
sg5
I01
sg6
F4.062
sg7
F5.43
sg8
F0.206
sg9
S"H3'"
p41
sg11
F4.632
sg12
F0.767
sg13
g14
sa(dp42
g2
g3
sg4
I689
sg5
I01
sg6
F3.095
sg7
F5.29
sg8
F0.163
sg9
S"H4'"
p43
sg11
F4.468
sg12
F0.661
sg13
g14
sa(dp44
g2
g3
sg4
I524
sg5
I01
sg6
F2.803
sg7
F4.942
sg8
F0.231
sg9
S"H5'"
p45
sg11
F4.301
sg12
F0.502
sg13
S'geminal'
p46
sa(dp47
g2
g3
sg4
I533
sg5
I01
sg6
F3.203
sg7
F4.69
sg8
F0.2
sg9
S"H5''"
p48
sg11
F4.189
sg12
F0.511
sg13
g46
sa(dp49
g2
g3
sg4
I213
sg5
I00
sg6
F5.59
sg7
F10.387
sg8
F0.736
sg9
S'H61'
p50
sg11
F7.509
sg12
F0.204
sg13
g46
sa(dp51
g2
g3
sg4
I199
sg5
I00
sg6
F5.091
sg7
F9.206
sg8
F0.65
sg9
S'H62'
p52
sg11
F6.798
sg12
F0.191
sg13
g46
sa(dp53
g2
g3
sg4
I1007
sg5
I01
sg6
F6.999
sg7
F9.244
sg8
F0.29
sg9
S'H8'
p54
sg11
F8.02
sg12
F0.965
sg13
g17
sa(dp55
g2
g3
sg4
I32
sg5
I00
sg6
F4.44
sg7
F7.749
sg8
F1.008
sg9
S"HO2'"
p56
sg11
F6.29
sg12
F0.031
sg13
g14
sa(dp57
g2
g3
sg4
I193
sg5
I00
sg6
F153.868
sg7
F229.7
sg8
F14.263
sg9
S'N1'
p58
sg11
F219.077
sg12
F0.185
sg13
g17
sa(dp59
g2
g3
sg4
I152
sg5
I00
sg6
F166.79
sg7
F231.077
sg8
F5.379
sg9
S'N3'
p60
sg11
F215.11
sg12
F0.146
sg13
g17
sa(dp61
g2
g3
sg4
I111
sg5
I00
sg6
F72.58
sg7
F95.78
sg8
F3.018
sg9
S'N6'
p62
sg11
F81.686
sg12
F0.106
sg13
g14
sa(dp63
g2
g3
sg4
I111
sg5
I00
sg6
F221.528
sg7
F235.8
sg8
F2.399
sg9
S'N7'
p64
sg11
F230.376
sg12
F0.106
sg13
g17
sa(dp65
g2
g3
sg4
I124
sg5
I00
sg6
F160.253
sg7
F176.8
sg8
F2.201
sg9
S'N9'
p66
sg11
F170.141
sg12
F0.119
sg13
g17
sa(dp67
g2
g3
sg4
I101
sg5
I00
sg6
F-5.085
sg7
F2.426
sg8
F1.361
sg9
S'P'
p68
sg11
F-3.277
sg12
F0.097
sg13
g14
sa(dp69
g2
S'C'
p70
sg4
I744
sg5
I01
sg6
F85.631
sg7
F95.8
sg8
F1.809
sg9
S"C1'"
p71
sg11
F92.593
sg12
F0.598
sg13
g14
sa(dp72
g2
g70
sg4
I48
sg5
I00
sg6
F6.786
sg7
F189.36
sg8
F24.577
sg9
S'C2'
p73
sg11
F158.502
sg12
F0.039
sg13
g17
sa(dp74
g2
g70
sg4
I578
sg5
I01
sg6
F44.202
sg7
F93.761
sg8
F2.689
sg9
S"C2'"
p75
sg11
F75.176
sg12
F0.464
sg13
g14
sa(dp76
g2
g70
sg4
I541
sg5
I01
sg6
F59.843
sg7
F99.623
sg8
F2.87
sg9
S"C3'"
p77
sg11
F72.158
sg12
F0.435
sg13
g14
sa(dp78
g2
g70
sg4
I61
sg5
I00
sg6
F154.18
sg7
F169.52
sg8
F4.2
sg9
S'C4'
p79
sg11
F166.284
sg12
F0.049
sg13
g17
sa(dp80
g2
g70
sg4
I498
sg5
I01
sg6
F71.834
sg7
F86.8
sg8
F2.053
sg9
S"C4'"
p81
sg11
F81.85
sg12
F0.4
sg13
g14
sa(dp82
g2
g70
sg4
I727
sg5
I01
sg6
F90.927
sg7
F135.619
sg8
F2.109
sg9
S'C5'
p83
sg11
F97.191
sg12
F0.584
sg13
g17
sa(dp84
g2
g70
sg4
I426
sg5
I01
sg6
F50.261
sg7
F95.33
sg8
F3.825
sg9
S"C5'"
p85
sg11
F64.664
sg12
F0.342
sg13
g14
sa(dp86
g2
g70
sg4
I777
sg5
I01
sg6
F126.255
sg7
F145.02
sg8
F1.725
sg9
S'C6'
p87
sg11
F140.902
sg12
F0.624
sg13
g17
sa(dp88
g2
g70
sg4
I1224
sg5
I01
sg6
F3.6
sg7
F6.424
sg8
F0.228
sg9
S"H1'"
p89
sg11
F5.557
sg12
F0.983
sg13
g14
sa(dp90
g2
g70
sg4
I1063
sg5
I01
sg6
F3.388
sg7
F5.068
sg8
F0.211
sg9
S"H2'"
p91
sg11
F4.33
sg12
F0.854
sg13
g14
sa(dp92
g2
g70
sg4
I964
sg5
I01
sg6
F3.247
sg7
F5.633
sg8
F0.191
sg9
S"H3'"
p93
sg11
F4.404
sg12
F0.774
sg13
g14
sa(dp94
g2
g70
sg4
I795
sg5
I01
sg6
F2.7614
sg7
F4.68
sg8
F0.19
sg9
S"H4'"
p95
sg11
F4.328
sg12
F0.639
sg13
g14
sa(dp96
g2
g70
sg4
I687
sg5
I01
sg6
F5.639
sg7
F10.38
sg8
F0.681
sg9
S'H41'
p97
sg11
F7.958
sg12
F0.552
sg13
g46
sa(dp98
g2
g70
sg4
I668
sg5
I01
sg6
F5.23
sg7
F8.936
sg8
F0.68
sg9
S'H42'
p99
sg11
F7.245
sg12
F0.537
sg13
g46
sa(dp100
g2
g70
sg4
I1226
sg5
I01
sg6
F4.195
sg7
F6.623
sg8
F0.282
sg9
S'H5'
p101
sg11
F5.476
sg12
F0.985
sg13
g17
sa(dp102
g2
g70
sg4
I567
sg5
I01
sg6
F2.698
sg7
F5.037
sg8
F0.303
sg9
S"H5'"
p103
sg11
F4.283
sg12
F0.455
sg13
g46
sa(dp104
g2
g70
sg4
I614
sg5
I01
sg6
F2.65
sg7
F5.036
sg8
F0.273
sg9
S"H5''"
p105
sg11
F4.121
sg12
F0.493
sg13
g46
sa(dp106
g2
g70
sg4
I1245
sg5
I01
sg6
F6.91
sg7
F8.46
sg8
F0.21
sg9
S'H6'
p107
sg11
F7.677
sg12
F1.0
sg13
g17
sa(dp108
g2
g70
sg4
I53
sg5
I00
sg6
F3.97
sg7
F9.7
sg8
F1.354
sg9
S"HO2'"
p109
sg11
F6.306
sg12
F0.043
sg13
g14
sa(dp110
g2
g70
sg4
I169
sg5
I00
sg6
F91.76
sg7
F178.834
sg8
F10.676
sg9
S'N1'
p111
sg11
F150.675
sg12
F0.136
sg13
g17
sa(dp112
g2
g70
sg4
I138
sg5
I00
sg6
F164.113
sg7
F204.3
sg8
F9.494
sg9
S'N3'
p113
sg11
F193.482
sg12
F0.111
sg13
g17
sa(dp114
g2
g70
sg4
I284
sg5
I00
sg6
F93.428
sg7
F104.247
sg8
F1.692
sg9
S'N4'
p115
sg11
F98.019
sg12
F0.228
sg13
g14
sa(dp116
g2
g70
sg4
I126
sg5
I00
sg6
F-5.127
sg7
F-0.356
sg8
F1.23
sg9
g68
sg11
F-3.644
sg12
F0.101
sg13
g14
sa(dp117
g2
S'G'
p118
sg4
I865
sg5
I01
sg6
F84.004
sg7
F95.05
sg8
F1.973
sg9
S"C1'"
p119
sg11
F91.454
sg12
F0.558
sg13
g14
sa(dp120
g2
g118
sg4
I33
sg5
I00
sg6
F144.41
sg7
F162.5
sg8
F4.2
sg9
S'C2'
p121
sg11
F154.387
sg12
F0.021
sg13
g17
sa(dp122
g2
g118
sg4
I663
sg5
I01
sg6
F64.735
sg7
F85.1
sg8
F2.292
sg9
S"C2'"
p123
sg11
F74.752
sg12
F0.428
sg13
g14
sa(dp124
g2
g118
sg4
I609
sg5
I01
sg6
F62.408
sg7
F82.1
sg8
F2.601
sg9
S"C3'"
p125
sg11
F73.261
sg12
F0.393
sg13
g14
sa(dp126
g2
g118
sg4
I22
sg5
I00
sg6
F148.9
sg7
F158.62
sg8
F2.193
sg9
S'C4'
p127
sg11
F151.31
sg12
F0.014
sg13
g17
sa(dp128
g2
g118
sg4
I580
sg5
I01
sg6
F72.079
sg7
F89.736
sg8
F2.343
sg9
S"C4'"
p129
sg11
F82.375
sg12
F0.374
sg13
g14
sa(dp130
g2
g118
sg4
I36
sg5
I00
sg6
F115.1
sg7
F167.24
sg8
F17.432
sg9
S'C5'
p131
sg11
F123.693
sg12
F0.023
sg13
g17
sa(dp132
g2
g118
sg4
I523
sg5
I01
sg6
F50.36
sg7
F97.91
sg8
F4.884
sg9
S"C5'"
p133
sg11
F66.03
sg12
F0.338
sg13
g14
sa(dp134
g2
g118
sg4
I60
sg5
I00
sg6
F136.45
sg7
F162.394
sg8
F6.59
sg9
S'C6'
p135
sg11
F158.505
sg12
F0.039
sg13
g17
sa(dp136
g2
g118
sg4
I978
sg5
I01
sg6
F107.807
sg7
F143.88
sg8
F2.575
sg9
S'C8'
p137
sg11
F136.79
sg12
F0.631
sg13
g17
sa(dp138
g2
g118
sg4
I1083
sg5
I01
sg6
F6.91
sg7
F13.971
sg8
F0.953
sg9
S'H1'
p139
sg11
F12.359
sg12
F0.699
sg13
g14
sa(dp140
g2
g118
sg4
I1525
sg5
I01
sg6
F3.41
sg7
F7.618
sg8
F0.337
sg9
S"H1'"
p141
sg11
F5.665
sg12
F0.985
sg13
g14
sa(dp142
g2
g118
sg4
I1334
sg5
I01
sg6
F3.256
sg7
F6.299
sg8
F0.258
sg9
S"H2'"
p143
sg11
F4.579
sg12
F0.861
sg13
g14
sa(dp144
g2
g118
sg4
I323
sg5
I00
sg6
F5.469
sg7
F9.391
sg8
F1.01
sg9
S'H21'
p145
sg11
F7.51
sg12
F0.209
sg13
g46
sa(dp146
g2
g118
sg4
I316
sg5
I00
sg6
F4.71
sg7
F8.978
sg8
F0.802
sg9
S'H22'
p147
sg11
F6.388
sg12
F0.204
sg13
g46
sa(dp148
g2
g118
sg4
I1212
sg5
I01
sg6
F3.798
sg7
F5.775
sg8
F0.25
sg9
S"H3'"
p149
sg11
F4.552
sg12
F0.782
sg13
g14
sa(dp150
g2
g118
sg4
I1012
sg5
I01
sg6
F2.66
sg7
F5.106
sg8
F0.199
sg9
S"H4'"
p151
sg11
F4.423
sg12
F0.653
sg13
g14
sa(dp152
g2
g118
sg4
I830
sg5
I01
sg6
F2.888
sg7
F5.423
sg8
F0.233
sg9
S"H5'"
p153
sg11
F4.26
sg12
F0.536
sg13
g46
sa(dp154
g2
g118
sg4
I848
sg5
I01
sg6
F2.55
sg7
F5.11
sg8
F0.244
sg9
S"H5''"
p155
sg11
F4.176
sg12
F0.547
sg13
g46
sa(dp156
g2
g118
sg4
I1549
sg5
I01
sg6
F6.64
sg7
F8.625
sg8
F0.357
sg9
S'H8'
p157
sg11
F7.608
sg12
F1.0
sg13
g17
sa(dp158
g2
g118
sg4
I38
sg5
I00
sg6
F4.57
sg7
F7.097
sg8
F0.977
sg9
S"HO2'"
p159
sg11
F6.37
sg12
F0.025
sg13
g14
sa(dp160
g2
g118
sg4
I646
sg5
I01
sg6
F80.51
sg7
F166.07
sg8
F4.457
sg9
S'N1'
p161
sg11
F146.655
sg12
F0.417
sg13
g17
sa(dp162
g2
g118
sg4
I106
sg5
I00
sg6
F70.806
sg7
F78.42
sg8
F1.696
sg9
S'N2'
p163
sg11
F74.599
sg12
F0.068
sg13
g14
sa(dp164
g2
g118
sg4
I15
sg5
I00
sg6
F84.63
sg7
F234.1
sg8
F39.539
sg9
S'N3'
p165
sg11
F152.461
sg12
F0.01
sg13
g17
sa(dp166
g2
g118
sg4
I148
sg5
I00
sg6
F217.005
sg7
F238.055
sg8
F3.89
sg9
S'N7'
p167
sg11
F233.115
sg12
F0.096
sg13
g17
sa(dp168
g2
g118
sg4
I206
sg5
I00
sg6
F164.151
sg7
F176.4
sg8
F1.768
sg9
S'N9'
p169
sg11
F169.478
sg12
F0.133
sg13
g17
sa(dp170
g2
g118
sg4
I130
sg5
I00
sg6
F-5.243
sg7
F-0.016
sg8
F1.218
sg9
g68
sg11
F-3.283
sg12
F0.084
sg13
g14
sa(dp171
g2
S'U'
p172
sg4
I638
sg5
I01
sg6
F85.185
sg7
F96.3
sg8
F2.119
sg9
S"C1'"
p173
sg11
F91.942
sg12
F0.632
sg13
g14
sa(dp174
g2
g172
sg4
I56
sg5
I00
sg6
F149.633
sg7
F183.2
sg8
F7.717
sg9
S'C2'
p175
sg11
F154.224
sg12
F0.055
sg13
g17
sa(dp176
g2
g172
sg4
I479
sg5
I01
sg6
F65.212
sg7
F83.0
sg8
F1.805
sg9
S"C2'"
p177
sg11
F74.583
sg12
F0.474
sg13
g14
sa(dp178
g2
g172
sg4
I429
sg5
I01
sg6
F62.261
sg7
F80.528
sg8
F2.599
sg9
S"C3'"
p179
sg11
F73.075
sg12
F0.425
sg13
g14
sa(dp180
g2
g172
sg4
I61
sg5
I00
sg6
F164.02
sg7
F169.7
sg8
F1.624
sg9
S'C4'
p181
sg11
F167.311
sg12
F0.06
sg13
g17
sa(dp182
g2
g172
sg4
I416
sg5
I01
sg6
F72.067
sg7
F94.42
sg8
F2.254
sg9
S"C4'"
p183
sg11
F82.388
sg12
F0.412
sg13
g14
sa(dp184
g2
g172
sg4
I594
sg5
I01
sg6
F80.77
sg7
F154.13
sg8
F3.711
sg9
S'C5'
p185
sg11
F103.286
sg12
F0.588
sg13
g17
sa(dp186
g2
g172
sg4
I356
sg5
I01
sg6
F50.507
sg7
F98.027
sg8
F5.319
sg9
S"C5'"
p187
sg11
F65.552
sg12
F0.352
sg13
g14
sa(dp188
g2
g172
sg4
I629
sg5
I01
sg6
F125.749
sg7
F169.95
sg8
F2.545
sg9
S'C6'
p189
sg11
F141.355
sg12
F0.623
sg13
g17
sa(dp190
g2
g172
sg4
I981
sg5
I01
sg6
F3.69
sg7
F6.372
sg8
F0.255
sg9
S"H1'"
p191
sg11
F5.613
sg12
F0.971
sg13
g14
sa(dp192
g2
g172
sg4
I860
sg5
I01
sg6
F3.16464
sg7
F5.2
sg8
F0.234
sg9
S"H2'"
p193
sg11
F4.372
sg12
F0.851
sg13
g14
sa(dp194
g2
g172
sg4
I611
sg5
I01
sg6
F3.51
sg7
F14.755
sg8
F1.206
sg9
S'H3'
p195
sg11
F13.118
sg12
F0.605
sg13
g14
sa(dp196
g2
g172
sg4
I758
sg5
I01
sg6
F3.673
sg7
F5.18
sg8
F0.178
sg9
S"H3'"
p197
sg11
F4.476
sg12
F0.75
sg13
g14
sa(dp198
g2
g172
sg4
I652
sg5
I01
sg6
F3.091
sg7
F4.797
sg8
F0.172
sg9
S"H4'"
p199
sg11
F4.368
sg12
F0.646
sg13
g14
sa(dp200
g2
g172
sg4
I988
sg5
I01
sg6
F4.195
sg7
F6.476
sg8
F0.313
sg9
S'H5'
p201
sg11
F5.47
sg12
F0.978
sg13
g17
sa(dp202
g2
g172
sg4
I464
sg5
I01
sg6
F3.133
sg7
F4.798
sg8
F0.253
sg9
S"H5'"
p203
sg11
F4.253
sg12
F0.459
sg13
g46
sa(dp204
g2
g172
sg4
I504
sg5
I01
sg6
F3.01
sg7
F4.727
sg8
F0.226
sg9
S"H5''"
p205
sg11
F4.163
sg12
F0.499
sg13
g46
sa(dp206
g2
g172
sg4
I1010
sg5
I01
sg6
F6.88
sg7
F8.522
sg8
F0.199
sg9
S'H6'
p207
sg11
F7.754
sg12
F1.0
sg13
g17
sa(dp208
g2
g172
sg4
I27
sg5
I00
sg6
F4.08
sg7
F8.906
sg8
F1.25
sg9
S"HO2'"
p209
sg11
F6.498
sg12
F0.027
sg13
g14
sa(dp210
g2
g172
sg4
I136
sg5
I00
sg6
F139.494
sg7
F167.2
sg8
F8.008
sg9
S'N1'
p211
sg11
F150.427
sg12
F0.135
sg13
g17
sa(dp212
g2
g172
sg4
I380
sg5
I01
sg6
F154.363
sg7
F165.283
sg8
F2.252
sg9
S'N3'
p213
sg11
F160.774
sg12
F0.376
sg13
g17
sa(dp214
g2
g172
sg4
I93
sg5
I00
sg6
F-5.2
sg7
F1.577
sg8
F1.563
sg9
g68
sg11
F-3.339
sg12
F0.092
sg13
g14
sa.